TMS320C6x COFF Assembler PC v5.1.0 Thu Mar 31 17:05:45 2011

Tools Copyright (c) 1996-2005 Texas Instruments Incorporated
C:\Users\ADMINI~1\AppData\Local\Temp\TI8242                          PAGE    1

       1                    ;******************************************************************************
       2                    ;* TMS320C6x C/C++ Codegen                                          PC v5.1.0 *
       3                    ;* Date/Time created: Thu Mar 31 17:05:44 2011                                *
       4                    ;******************************************************************************
       5                            .compiler_opts --endian=little --mem_model:code=near --mem_model:data=far --quiet --silicon_ve
       6                    
       7                    ;******************************************************************************
       8                    ;* GLOBAL FILE PARAMETERS                                                     *
       9                    ;*                                                                            *
      10                    ;*   Architecture      : TMS320C64xx                                          *
      11                    ;*   Optimization      : Disabled                                             *
      12                    ;*   Optimizing for    : Compile time, Ease of Development                    *
      13                    ;*                       Based on options: no -o, -ms2                        *
      14                    ;*   Endian            : Little                                               *
      15                    ;*   Interrupt Thrshld : Disabled                                             *
      16                    ;*   Data Access Model : Far                                                  *
      17                    ;*   Pipelining        : Disabled                                             *
      18                    ;*   Memory Aliases    : Presume are aliases (pessimistic)                    *
      19                    ;*   Debug Info        : DWARF Debug                                          *
      20                    ;*                                                                            *
      21                    ;******************************************************************************
      22                    
      23                            .asg    A15, FP
      24                            .asg    B14, DP
      25                            .asg    B15, SP
      26                            .global $bss
      27                    
      28                    
      29                    DW$CU   .dwtag  DW_TAG_compile_unit
      30                            .dwattr DW$CU, DW_AT_name("proc_result_v2.c")
      31                            .dwattr DW$CU, DW_AT_producer("TMS320C6x C/C++ Codegen PC v5.1.0 Copyright (c) 1996-2005 Texas
      32                            .dwattr DW$CU, DW_AT_stmt_list(0x00)
      33                            .dwattr DW$CU, DW_AT_TI_VERSION(0x01)
      34                    
      35                    DW$1    .dwtag  DW_TAG_subprogram, DW_AT_name("memcpy"), DW_AT_symbol_name("_memcpy")
      36                            .dwattr DW$1, DW_AT_type(*DW$T$3)
      37                            .dwattr DW$1, DW_AT_declaration(0x01)
      38                            .dwattr DW$1, DW_AT_external(0x01)
      39                    DW$2    .dwtag  DW_TAG_formal_parameter, DW_AT_type(*DW$T$3)
      40                    DW$3    .dwtag  DW_TAG_formal_parameter, DW_AT_type(*DW$T$99)
      41                    DW$4    .dwtag  DW_TAG_formal_parameter, DW_AT_type(*DW$T$11)
      42                            .dwendtag DW$1
      43                    
      44                    
      45                    DW$5    .dwtag  DW_TAG_subprogram, DW_AT_name("CACHE_flush"), DW_AT_symbol_name("_CACHE_flush")
      46                            .dwattr DW$5, DW_AT_declaration(0x01)
      47                            .dwattr DW$5, DW_AT_external(0x01)
      48                    DW$6    .dwtag  DW_TAG_formal_parameter, DW_AT_type(*DW$T$102)
      49                    DW$7    .dwtag  DW_TAG_formal_parameter, DW_AT_type(*DW$T$3)
      50                    DW$8    .dwtag  DW_TAG_formal_parameter, DW_AT_type(*DW$T$103)
      51                            .dwendtag DW$5
      52                    
      53                    
      54                    DW$9    .dwtag  DW_TAG_subprogram, DW_AT_name("FillBmpHeader"), DW_AT_symbol_name("_FillBmpHeader")
      55                            .dwattr DW$9, DW_AT_type(*DW$T$10)
TMS320C6x COFF Assembler PC v5.1.0 Thu Mar 31 17:05:45 2011

Tools Copyright (c) 1996-2005 Texas Instruments Incorporated
C:\Users\ADMINI~1\AppData\Local\Temp\TI8242                          PAGE    2

      56                            .dwattr DW$9, DW_AT_declaration(0x01)
      57                            .dwattr DW$9, DW_AT_external(0x01)
      58                    DW$10   .dwtag  DW_TAG_formal_parameter, DW_AT_type(*DW$T$103)
      59                    DW$11   .dwtag  DW_TAG_formal_parameter, DW_AT_type(*DW$T$10)
      60                    DW$12   .dwtag  DW_TAG_formal_parameter, DW_AT_type(*DW$T$10)
      61                            .dwendtag DW$9
      62                    
      63                    
      64                    DW$13   .dwtag  DW_TAG_subprogram, DW_AT_name("get_checksum"), DW_AT_symbol_name("_get_checksum")
      65                            .dwattr DW$13, DW_AT_type(*DW$T$121)
      66                            .dwattr DW$13, DW_AT_declaration(0x01)
      67                            .dwattr DW$13, DW_AT_external(0x01)
      68                    DW$14   .dwtag  DW_TAG_formal_parameter, DW_AT_type(*DW$T$122)
      69                    DW$15   .dwtag  DW_TAG_formal_parameter, DW_AT_type(*DW$T$10)
      70                            .dwendtag DW$13
      71                    
      72                    
      73                    DW$16   .dwtag  DW_TAG_subprogram, DW_AT_name("addr_align"), DW_AT_symbol_name("_addr_align")
      74                            .dwattr DW$16, DW_AT_type(*DW$T$10)
      75                            .dwattr DW$16, DW_AT_declaration(0x01)
      76                            .dwattr DW$16, DW_AT_external(0x01)
      77                    
      78                    DW$17   .dwtag  DW_TAG_subprogram, DW_AT_name("IdenAfterEnroll"), DW_AT_symbol_name("_IdenAfterEnroll"
      79                            .dwattr DW$17, DW_AT_type(*DW$T$10)
      80                            .dwattr DW$17, DW_AT_declaration(0x01)
      81                            .dwattr DW$17, DW_AT_external(0x01)
      82                    
      83                    DW$18   .dwtag  DW_TAG_subprogram, DW_AT_name("memset"), DW_AT_symbol_name("_memset")
      84                            .dwattr DW$18, DW_AT_type(*DW$T$10)
      85                            .dwattr DW$18, DW_AT_declaration(0x01)
      86                            .dwattr DW$18, DW_AT_external(0x01)
      87                    DW$19   .dwtag  DW_TAG_variable, DW_AT_name("tsk_used_reg"), DW_AT_symbol_name("_tsk_used_reg")
      88                            .dwattr DW$19, DW_AT_type(*DW$T$135)
      89                            .dwattr DW$19, DW_AT_declaration(0x01)
      90                            .dwattr DW$19, DW_AT_external(0x01)
      91                    DW$20   .dwtag  DW_TAG_variable, DW_AT_name("dsp_used_reg"), DW_AT_symbol_name("_dsp_used_reg")
      92                            .dwattr DW$20, DW_AT_type(*DW$T$136)
      93                            .dwattr DW$20, DW_AT_declaration(0x01)
      94                            .dwattr DW$20, DW_AT_external(0x01)
      95                    DW$21   .dwtag  DW_TAG_variable, DW_AT_name("ENROLL_RESULT_ADDR"), DW_AT_symbol_name("_ENROLL_RESULT_A
      96                            .dwattr DW$21, DW_AT_type(*DW$T$130)
      97                            .dwattr DW$21, DW_AT_declaration(0x01)
      98                            .dwattr DW$21, DW_AT_external(0x01)
      99                    DW$22   .dwtag  DW_TAG_variable, DW_AT_name("ENROLL_LEFT_STRUCT_ADDR1"), DW_AT_symbol_name("_ENROLL_LE
     100                            .dwattr DW$22, DW_AT_type(*DW$T$130)
     101                            .dwattr DW$22, DW_AT_declaration(0x01)
     102                            .dwattr DW$22, DW_AT_external(0x01)
     103                    DW$23   .dwtag  DW_TAG_variable, DW_AT_name("ENROLL_RIGHT_STRUCT_ADDR1"), DW_AT_symbol_name("_ENROLL_R
     104                            .dwattr DW$23, DW_AT_type(*DW$T$130)
     105                            .dwattr DW$23, DW_AT_declaration(0x01)
     106                            .dwattr DW$23, DW_AT_external(0x01)
     107                    DW$24   .dwtag  DW_TAG_variable, DW_AT_name("ENROLL_RESULT_MAX_LEN"), DW_AT_symbol_name("_ENROLL_RESUL
     108                            .dwattr DW$24, DW_AT_type(*DW$T$130)
     109                            .dwattr DW$24, DW_AT_declaration(0x01)
     110                            .dwattr DW$24, DW_AT_external(0x01)
TMS320C6x COFF Assembler PC v5.1.0 Thu Mar 31 17:05:45 2011

Tools Copyright (c) 1996-2005 Texas Instruments Incorporated
C:\Users\ADMINI~1\AppData\Local\Temp\TI8242                          PAGE    3

     111                    DW$25   .dwtag  DW_TAG_variable, DW_AT_name("ENROLL_FEATURE_STRUCT_OFFSET"), DW_AT_symbol_name("_ENROL
     112                            .dwattr DW$25, DW_AT_type(*DW$T$130)
     113                            .dwattr DW$25, DW_AT_declaration(0x01)
     114                            .dwattr DW$25, DW_AT_external(0x01)
     115                    DW$26   .dwtag  DW_TAG_variable, DW_AT_name("ENROLL_IMAGE_DATA_OFFSET"), DW_AT_symbol_name("_ENROLL_IM
     116                            .dwattr DW$26, DW_AT_type(*DW$T$130)
     117                            .dwattr DW$26, DW_AT_declaration(0x01)
     118                            .dwattr DW$26, DW_AT_external(0x01)
     119                    DW$27   .dwtag  DW_TAG_variable, DW_AT_name("left_imginfo"), DW_AT_symbol_name("_left_imginfo")
     120                            .dwattr DW$27, DW_AT_type(*DW$T$132)
     121                            .dwattr DW$27, DW_AT_declaration(0x01)
     122                            .dwattr DW$27, DW_AT_external(0x01)
     123                    DW$28   .dwtag  DW_TAG_variable, DW_AT_name("right_imginfo"), DW_AT_symbol_name("_right_imginfo")
     124                            .dwattr DW$28, DW_AT_type(*DW$T$132)
     125                            .dwattr DW$28, DW_AT_declaration(0x01)
     126                            .dwattr DW$28, DW_AT_external(0x01)
     127                    ;       C:\CCStudio_v3.1\C6000\cgtools\bin\acp6x.exe -@C:\Users\ADMINI~1\AppData\Local\Temp\TI8244 
     128 00000000                   .sect   ".text"
     129                            .global _set_enroll_result
     130                    
     131                    DW$29   .dwtag  DW_TAG_subprogram, DW_AT_name("set_enroll_result"), DW_AT_symbol_name("_set_enroll_res
     132                            .dwattr DW$29, DW_AT_low_pc(_set_enroll_result)
     133                            .dwattr DW$29, DW_AT_high_pc(0x00)
     134                            .dwattr DW$29, DW_AT_begin_file("proc_result_v2.c")
     135                            .dwattr DW$29, DW_AT_begin_line(0x22)
     136                            .dwattr DW$29, DW_AT_begin_column(0x06)
     137                            .dwpsn  "proc_result_v2.c",40,1
     138                    
     139                            .dwfde DW$CIE
     140                    
     141                    ;******************************************************************************
     142                    ;* FUNCTION NAME: _set_enroll_result                                          *
     143                    ;*                                                                            *
     144                    ;*   Regs Modified     : A0,A1,A2,A3,A4,A5,A6,A7,A8,A9,B0,B1,B2,B3,B4,B5,B6,  *
     145                    ;*                           B7,B8,B9,SP,A16,A17,A18,A19,A20,A21,A22,A23,A24, *
     146                    ;*                           A25,A26,A27,A28,A29,A30,A31,B16,B17,B18,B19,B20, *
     147                    ;*                           B21,B22,B23,B24,B25,B26,B27,B28,B29,B30,B31      *
     148                    ;*   Regs Used         : A0,A1,A2,A3,A4,A5,A6,A7,A8,A9,B0,B1,B2,B3,B4,B5,B6,  *
     149                    ;*                           B7,B8,B9,SP,A16,A17,A18,A19,A20,A21,A22,A23,A24, *
     150                    ;*                           A25,A26,A27,A28,A29,A30,A31,B16,B17,B18,B19,B20, *
     151                    ;*                           B21,B22,B23,B24,B25,B26,B27,B28,B29,B30,B31      *
     152                    ;*   Local Frame Size  : 0 Args + 48 Auto + 4 Save = 52 byte                  *
     153                    ;******************************************************************************
     154                    _set_enroll_result:
     155                    ;** --------------------------------------------------------------------------*
     156                            .dwcfa  0x0e, 0
     157                            .dwcfa  0x09, 126, 19
     158 00000000 01BDD4F6             STW     .D2T2   B3,*SP--(56)      ; |40| 
     159 00000004 00002000             NOP             2
     160                            .dwcfa  0x0e, 56
     161                            .dwcfa  0x80, 19, 0
     162                    DW$30   .dwtag  DW_TAG_formal_parameter, DW_AT_name("base_addr"), DW_AT_symbol_name("_base_addr")
     163                            .dwattr DW$30, DW_AT_type(*DW$T$106)
     164                            .dwattr DW$30, DW_AT_location[DW_OP_reg4]
     165                    DW$31   .dwtag  DW_TAG_formal_parameter, DW_AT_name("enroll_fea_addr"), DW_AT_symbol_name("_enroll_fea
TMS320C6x COFF Assembler PC v5.1.0 Thu Mar 31 17:05:45 2011

Tools Copyright (c) 1996-2005 Texas Instruments Incorporated
C:\Users\ADMINI~1\AppData\Local\Temp\TI8242                          PAGE    4

     166                            .dwattr DW$31, DW_AT_type(*DW$T$103)
     167                            .dwattr DW$31, DW_AT_location[DW_OP_reg20]
     168                    DW$32   .dwtag  DW_TAG_formal_parameter, DW_AT_name("img_addr"), DW_AT_symbol_name("_img_addr")
     169                            .dwattr DW$32, DW_AT_type(*DW$T$103)
     170                            .dwattr DW$32, DW_AT_location[DW_OP_reg6]
     171                    DW$33   .dwtag  DW_TAG_formal_parameter, DW_AT_name("rotate_fea_addr"), DW_AT_symbol_name("_rotate_fea
     172                            .dwattr DW$33, DW_AT_type(*DW$T$103)
     173                            .dwattr DW$33, DW_AT_location[DW_OP_reg22]
     174                    DW$34   .dwtag  DW_TAG_formal_parameter, DW_AT_name("p_imgInfo"), DW_AT_symbol_name("_p_imgInfo")
     175                            .dwattr DW$34, DW_AT_type(*DW$T$108)
     176                            .dwattr DW$34, DW_AT_location[DW_OP_reg8]
     177                    DW$35   .dwtag  DW_TAG_formal_parameter, DW_AT_name("eye"), DW_AT_symbol_name("_eye")
     178                            .dwattr DW$35, DW_AT_type(*DW$T$10)
     179                            .dwattr DW$35, DW_AT_location[DW_OP_reg24]
     180                    DW$36   .dwtag  DW_TAG_variable, DW_AT_name("base_addr"), DW_AT_symbol_name("_base_addr")
     181                            .dwattr DW$36, DW_AT_type(*DW$T$106)
     182                            .dwattr DW$36, DW_AT_location[DW_OP_breg31 4]
     183                    DW$37   .dwtag  DW_TAG_variable, DW_AT_name("enroll_fea_addr"), DW_AT_symbol_name("_enroll_fea_addr")
     184                            .dwattr DW$37, DW_AT_type(*DW$T$103)
     185                            .dwattr DW$37, DW_AT_location[DW_OP_breg31 8]
     186                    DW$38   .dwtag  DW_TAG_variable, DW_AT_name("img_addr"), DW_AT_symbol_name("_img_addr")
     187                            .dwattr DW$38, DW_AT_type(*DW$T$103)
     188                            .dwattr DW$38, DW_AT_location[DW_OP_breg31 12]
     189                    DW$39   .dwtag  DW_TAG_variable, DW_AT_name("rotate_fea_addr"), DW_AT_symbol_name("_rotate_fea_addr")
     190                            .dwattr DW$39, DW_AT_type(*DW$T$103)
     191                            .dwattr DW$39, DW_AT_location[DW_OP_breg31 16]
     192                    DW$40   .dwtag  DW_TAG_variable, DW_AT_name("p_imgInfo"), DW_AT_symbol_name("_p_imgInfo")
     193                            .dwattr DW$40, DW_AT_type(*DW$T$108)
     194                            .dwattr DW$40, DW_AT_location[DW_OP_breg31 20]
     195                    DW$41   .dwtag  DW_TAG_variable, DW_AT_name("eye"), DW_AT_symbol_name("_eye")
     196                            .dwattr DW$41, DW_AT_type(*DW$T$10)
     197                            .dwattr DW$41, DW_AT_location[DW_OP_breg31 24]
     198                    DW$42   .dwtag  DW_TAG_variable, DW_AT_name("addr"), DW_AT_symbol_name("_addr")
     199                            .dwattr DW$42, DW_AT_type(*DW$T$103)
     200                            .dwattr DW$42, DW_AT_location[DW_OP_breg31 28]
     201                    DW$43   .dwtag  DW_TAG_variable, DW_AT_name("off"), DW_AT_symbol_name("_off")
     202                            .dwattr DW$43, DW_AT_type(*DW$T$103)
     203                            .dwattr DW$43, DW_AT_location[DW_OP_breg31 32]
     204                    DW$44   .dwtag  DW_TAG_variable, DW_AT_name("src_data"), DW_AT_symbol_name("_src_data")
     205                            .dwattr DW$44, DW_AT_type(*DW$T$19)
     206                            .dwattr DW$44, DW_AT_location[DW_OP_breg31 36]
     207                    DW$45   .dwtag  DW_TAG_variable, DW_AT_name("dest_data"), DW_AT_symbol_name("_dest_data")
     208                            .dwattr DW$45, DW_AT_type(*DW$T$19)
     209                            .dwattr DW$45, DW_AT_location[DW_OP_breg31 40]
     210                    DW$46   .dwtag  DW_TAG_variable, DW_AT_name("enroll_result"), DW_AT_symbol_name("_enroll_result")
     211                            .dwattr DW$46, DW_AT_type(*DW$T$137)
     212                            .dwattr DW$46, DW_AT_location[DW_OP_breg31 44]
     213                    DW$47   .dwtag  DW_TAG_variable, DW_AT_name("result_info"), DW_AT_symbol_name("_result_info")
     214                            .dwattr DW$47, DW_AT_type(*DW$T$139)
     215                            .dwattr DW$47, DW_AT_location[DW_OP_breg31 48]
     216 00000008 043CC2F6             STW     .D2T2   B8,*+SP(24)       ; |40| 
     217 0000000c 043CA2F4             STW     .D2T1   A8,*+SP(20)       ; |40| 
     218 00000010 033C82F6             STW     .D2T2   B6,*+SP(16)       ; |40| 
     219 00000014 033C62F4             STW     .D2T1   A6,*+SP(12)       ; |40| 
     220 00000018 023C42F6             STW     .D2T2   B4,*+SP(8)        ; |40| 
TMS320C6x COFF Assembler PC v5.1.0 Thu Mar 31 17:05:45 2011

Tools Copyright (c) 1996-2005 Texas Instruments Incorporated
C:\Users\ADMINI~1\AppData\Local\Temp\TI8242                          PAGE    5

     221 0000001c 023C22F4             STW     .D2T1   A4,*+SP(4)        ; |40| 
     222 00000020 00002000             NOP             2
     223                            .dwpsn  "proc_result_v2.c",43,18
     224 00000024 0180A358             ZERO    .L1     A3                ; |43| 
     225 00000028 01BD22F4             STW     .D2T1   A3,*+SP(36)       ; |43| 
     226 0000002c 00002000             NOP             2
     227                            .dwpsn  "proc_result_v2.c",44,18
     228 00000030 01BD42F4             STW     .D2T1   A3,*+SP(40)       ; |44| 
     229 00000034 00002000             NOP             2
     230                            .dwpsn  "proc_result_v2.c",45,20
     231 00000038 01BD62F4             STW     .D2T1   A3,*+SP(44)       ; |45| 
     232 0000003c 00002000             NOP             2
     233                            .dwpsn  "proc_result_v2.c",46,22
     234 00000040 0200A35A             ZERO    .L2     B4                ; |46| 
     235 00000044 023D82F6             STW     .D2T2   B4,*+SP(48)       ; |46| 
     236 00000048 00002000             NOP             2
     237                            .dwpsn  "proc_result_v2.c",48,2
     238 0000004c 01900FD8             MV      .L1     A4,A3
     239 00000050 018C0264             LDW     .D1T1   *A3,A3            ; |48| 
     240 00000054 00006000             NOP             4
     241 00000058 01BCE2F4             STW     .D2T1   A3,*+SP(28)       ; |48| 
     242 0000005c 00002000             NOP             2
     243                            .dwpsn  "proc_result_v2.c",49,2
     244 00000060 023D02F6             STW     .D2T2   B4,*+SP(32)       ; |49| 
     245 00000064 00002000             NOP             2
     246                            .dwpsn  "proc_result_v2.c",51,2
     247 00000068 0FFFF410!            CALL    .S1     _addr_align       ; |51| 
     248 0000006c 02BF8942             ADD     .D2     SP,28,B5          ; |51| 
     249 00000070 01864162             ADDKPC  .S2     RL0,B3,2          ; |51| 
     250 00000074 02141FD8             MV      .L1X    B5,A4             ; |51| 
     251                    RL0:       ; CALL OCCURS {_addr_align}       ; |51| 
     252                            .dwpsn  "proc_result_v2.c",53,2
     253 00000078 023CE2E6             LDW     .D2T2   *+SP(28),B4       ; |53| 
     254 0000007c 00006000             NOP             4
     255 00000080 023D82F6             STW     .D2T2   B4,*+SP(48)       ; |53| 
     256 00000084 00002000             NOP             2
     257                            .dwpsn  "proc_result_v2.c",54,2
     258 00000088 01BCC2E4             LDW     .D2T1   *+SP(24),A3       ; |54| 
     259 0000008c 00004000             NOP             3
     260 00000090 02101FD8             MV      .L1X    B4,A4             ; |54| 
     261 00000094 01900274             STW     .D1T1   A3,*A4            ; |54| 
     262 00000098 00002000             NOP             2
     263                            .dwpsn  "proc_result_v2.c",56,2
     264 0000009c 023C42E6             LDW     .D2T2   *+SP(8),B4        ; |56| 
     265 000000a0 00006000             NOP             4
     266 000000a4 023D22F6             STW     .D2T2   B4,*+SP(36)       ; |56| 
     267 000000a8 00002000             NOP             2
     268                            .dwpsn  "proc_result_v2.c",59,3
     269 000000ac 01BCA2E4             LDW     .D2T1   *+SP(20),A3       ; |59| 
     270 000000b0 00004000             NOP             3
     271 000000b4 0FFFEC10!            CALL    .S1     __fixfi           ; |59| 
     272 000000b8 020D0264             LDW     .D1T1   *+A3(32),A4       ; |59| 
     273 000000bc 01886162             ADDKPC  .S2     RL1,B3,3          ; |59| 
     274 000000c0           RL1:       ; CALL OCCURS {__fixfi}           ; |59| 
     275 000000c0 023D82E6             LDW     .D2T2   *+SP(48),B4       ; |59| 
TMS320C6x COFF Assembler PC v5.1.0 Thu Mar 31 17:05:45 2011

Tools Copyright (c) 1996-2005 Texas Instruments Incorporated
C:\Users\ADMINI~1\AppData\Local\Temp\TI8242                          PAGE    6

     276 000000c4 00004000             NOP             3
     277 000000c8 02901FDA             MV      .L2X    A4,B5             ; |59| 
     278 000000cc 029042F6             STW     .D2T2   B5,*+B4(8)        ; |59| 
     279 000000d0 00002000             NOP             2
     280                            .dwpsn  "proc_result_v2.c",60,3
     281 000000d4 01BCA2E4             LDW     .D2T1   *+SP(20),A3       ; |60| 
     282 000000d8 00004000             NOP             3
     283 000000dc 0FFFE810!            CALL    .S1     __fixfi           ; |60| 
     284 000000e0 020CE264             LDW     .D1T1   *+A3(28),A4       ; |60| 
     285 000000e4 01826162             ADDKPC  .S2     RL2,B3,3          ; |60| 
     286 000000e8           RL2:       ; CALL OCCURS {__fixfi}           ; |60| 
     287 000000e8 023D82E6             LDW     .D2T2   *+SP(48),B4       ; |60| 
     288 000000ec 00004000             NOP             3
     289 000000f0 02901FDA             MV      .L2X    A4,B5             ; |60| 
     290 000000f4 029022F6             STW     .D2T2   B5,*+B4(4)        ; |60| 
     291 000000f8 00002000             NOP             2
     292                            .dwpsn  "proc_result_v2.c",61,3
     293 000000fc 01BCA2E4             LDW     .D2T1   *+SP(20),A3       ; |61| 
     294 00000100 00004000             NOP             3
     295 00000104 0FFFE010!            CALL    .S1     __fixfi           ; |61| 
     296 00000108 020D2264             LDW     .D1T1   *+A3(36),A4       ; |61| 
     297 0000010c 01846162             ADDKPC  .S2     RL3,B3,3          ; |61| 
     298 00000110           RL3:       ; CALL OCCURS {__fixfi}           ; |61| 
     299 00000110 023D82E6             LDW     .D2T2   *+SP(48),B4       ; |61| 
     300 00000114 00004000             NOP             3
     301 00000118 02901FDA             MV      .L2X    A4,B5             ; |61| 
     302 0000011c 029062F6             STW     .D2T2   B5,*+B4(12)       ; |61| 
     303 00000120 00002000             NOP             2
     304                            .dwpsn  "proc_result_v2.c",62,3
     305 00000124 01BCA2E4             LDW     .D2T1   *+SP(20),A3       ; |62| 
     306 00000128 00004000             NOP             3
     307 0000012c 023D82E6             LDW     .D2T2   *+SP(48),B4       ; |62| 
     308 00000130 018DC264             LDW     .D1T1   *+A3(56),A3       ; |62| 
     309 00000134 00006000             NOP             4
     310 00000138 019082F4             STW     .D2T1   A3,*+B4(16)       ; |62| 
     311 0000013c 00002000             NOP             2
     312                            .dwpsn  "proc_result_v2.c",64,3
     313 00000140 023CA2E6             LDW     .D2T2   *+SP(20),B4       ; |64| 
     314 00000144 00004000             NOP             3
     315 00000148 0FFFD810!            CALL    .S1     __fixfi           ; |64| 
     316 0000014c 021162E4             LDW     .D2T1   *+B4(44),A4       ; |64| 
     317 00000150 01856162             ADDKPC  .S2     RL4,B3,3          ; |64| 
     318 00000154           RL4:       ; CALL OCCURS {__fixfi}           ; |64| 
     319 00000154 023D82E6             LDW     .D2T2   *+SP(48),B4       ; |64| 
     320 00000158 00004000             NOP             3
     321 0000015c 02901FDA             MV      .L2X    A4,B5             ; |64| 
     322 00000160 0290C2F6             STW     .D2T2   B5,*+B4(24)       ; |64| 
     323 00000164 00002000             NOP             2
     324                            .dwpsn  "proc_result_v2.c",65,3
     325 00000168 023CA2E6             LDW     .D2T2   *+SP(20),B4       ; |65| 
     326 0000016c 00004000             NOP             3
     327 00000170 0FFFD410!            CALL    .S1     __fixfi           ; |65| 
     328 00000174 021142E4             LDW     .D2T1   *+B4(40),A4       ; |65| 
     329 00000178 01876162             ADDKPC  .S2     RL5,B3,3          ; |65| 
     330 0000017c           RL5:       ; CALL OCCURS {__fixfi}           ; |65| 
TMS320C6x COFF Assembler PC v5.1.0 Thu Mar 31 17:05:45 2011

Tools Copyright (c) 1996-2005 Texas Instruments Incorporated
C:\Users\ADMINI~1\AppData\Local\Temp\TI8242                          PAGE    7

     331 0000017c 023D82E6             LDW     .D2T2   *+SP(48),B4       ; |65| 
     332 00000180 00004000             NOP             3
     333 00000184 02901FDA             MV      .L2X    A4,B5             ; |65| 
     334 00000188 0290A2F6             STW     .D2T2   B5,*+B4(20)       ; |65| 
     335 0000018c 00002000             NOP             2
     336                            .dwpsn  "proc_result_v2.c",66,3
     337 00000190 023CA2E6             LDW     .D2T2   *+SP(20),B4       ; |66| 
     338 00000194 00004000             NOP             3
     339 00000198 0FFFD010!            CALL    .S1     __fixfi           ; |66| 
     340 0000019c 021182E4             LDW     .D2T1   *+B4(48),A4       ; |66| 
     341 000001a0 01816162             ADDKPC  .S2     RL6,B3,3          ; |66| 
     342 000001a4           RL6:       ; CALL OCCURS {__fixfi}           ; |66| 
     343 000001a4 023D82E6             LDW     .D2T2   *+SP(48),B4       ; |66| 
     344 000001a8 00006000             NOP             4
     345 000001ac 0210E2F4             STW     .D2T1   A4,*+B4(28)       ; |66| 
     346 000001b0 00002000             NOP             2
     347                            .dwpsn  "proc_result_v2.c",67,3
     348 000001b4 01BCA2E4             LDW     .D2T1   *+SP(20),A3       ; |67| 
     349                    ;** --------------------------------------------------------------------------*
     350 000001b8 00004000             NOP             3
     351 000001bc 023D82E4             LDW     .D2T1   *+SP(48),A4       ; |67| 
     352 000001c0 018E0264             LDW     .D1T1   *+A3(64),A3       ; |67| 
     353 000001c4 00006000             NOP             4
     354 000001c8 01910274             STW     .D1T1   A3,*+A4(32)       ; |67| 
     355 000001cc 00002000             NOP             2
     356                            .dwpsn  "proc_result_v2.c",72,2
     357 000001d0 01800028!            MVKL    .S1     _ENROLL_FEATURE_STRUCT_OFFSET,A3 ; |72| 
     358 000001d4 01800068!            MVKH    .S1     _ENROLL_FEATURE_STRUCT_OFFSET,A3 ; |72| 
     359 000001d8 018C0264             LDW     .D1T1   *A3,A3            ; |72| 
     360 000001dc 00006000             NOP             4
     361 000001e0 01BD02F4             STW     .D2T1   A3,*+SP(32)       ; |72| 
     362 000001e4 00002000             NOP             2
     363                            .dwpsn  "proc_result_v2.c",73,2
     364 000001e8 0FFFC410!            CALL    .S1     _addr_align       ; |73| 
     365 000001ec 02BF8942             ADD     .D2     SP,28,B5          ; |73| 
     366 000001f0 01872162             ADDKPC  .S2     RL7,B3,1          ; |73| 
     367 000001f4 02141FD8             MV      .L1X    B5,A4             ; |73| 
     368 000001f8 020C1FDA             MV      .L2X    A3,B4             ; |73| 
     369                    RL7:       ; CALL OCCURS {_addr_align}       ; |73| 
     370                            .dwpsn  "proc_result_v2.c",74,2
     371 000001fc 023CE2E6             LDW     .D2T2   *+SP(28),B4       ; |74| 
     372 00000200 00006000             NOP             4
     373 00000204 023D62F6             STW     .D2T2   B4,*+SP(44)       ; |74| 
     374 00000208 00002000             NOP             2
     375                            .dwpsn  "proc_result_v2.c",76,2
     376                    
     377 0000020c 0201002B             MVK     .S2     512,B4            ; |76| 
     378 00000210 01901FD8  ||         MV      .L1X    B4,A3
     379                    
     380 00000214 020C0276             STW     .D1T2   B4,*A3            ; |76| 
     381 00000218 00002000             NOP             2
     382                            .dwpsn  "proc_result_v2.c",78,2
     383 0000021c 0190A358             MVK     .L1     4,A3              ; |78| 
     384 00000220 01BD02F4             STW     .D2T1   A3,*+SP(32)       ; |78| 
     385 00000224 00002000             NOP             2
TMS320C6x COFF Assembler PC v5.1.0 Thu Mar 31 17:05:45 2011

Tools Copyright (c) 1996-2005 Texas Instruments Incorporated
C:\Users\ADMINI~1\AppData\Local\Temp\TI8242                          PAGE    8

     386                            .dwpsn  "proc_result_v2.c",79,2
     387 00000228 0FFFBC10!            CALL    .S1     _addr_align       ; |79| 
     388 0000022c 02BF8942             ADD     .D2     SP,28,B5          ; |79| 
     389 00000230 01872162             ADDKPC  .S2     RL8,B3,1          ; |79| 
     390 00000234 02141FD8             MV      .L1X    B5,A4             ; |79| 
     391 00000238 020C1FDA             MV      .L2X    A3,B4             ; |79| 
     392                    RL8:       ; CALL OCCURS {_addr_align}       ; |79| 
     393                            .dwpsn  "proc_result_v2.c",80,2
     394 0000023c 023CE2E6             LDW     .D2T2   *+SP(28),B4       ; |80| 
     395 00000240 00006000             NOP             4
     396 00000244 023D42F6             STW     .D2T2   B4,*+SP(40)       ; |80| 
     397 00000248 00002000             NOP             2
     398                            .dwpsn  "proc_result_v2.c",82,2
     399                    
     400 0000024c 0FFFB811!            CALL    .S1     _memcpy           ; |82| 
     401 00000250 023D22E6  ||         LDW     .D2T2   *+SP(36),B4       ; |82| 
     402                    
     403 00000254 023D42E4             LDW     .D2T1   *+SP(40),A4       ; |82| 
     404 00000258 01884162             ADDKPC  .S2     RL9,B3,2          ; |82| 
     405 0000025c 03010028             MVK     .S1     0x200,A6          ; |82| 
     406                    RL9:       ; CALL OCCURS {_memcpy}           ; |82| 
     407                            .dwpsn  "proc_result_v2.c",85,2
     408 00000260 0201002A             MVK     .S2     512,B4            ; |85| 
     409 00000264 023D02F6             STW     .D2T2   B4,*+SP(32)       ; |85| 
     410 00000268 00002000             NOP             2
     411                            .dwpsn  "proc_result_v2.c",86,2
     412 0000026c 0FFFB410!            CALL    .S1     _addr_align       ; |86| 
     413 00000270 02BF8942             ADD     .D2     SP,28,B5          ; |86| 
     414 00000274 01874162             ADDKPC  .S2     RL10,B3,2         ; |86| 
     415 00000278 02141FD8             MV      .L1X    B5,A4             ; |86| 
     416                    RL10:      ; CALL OCCURS {_addr_align}       ; |86| 
     417                            .dwpsn  "proc_result_v2.c",88,2
     418 0000027c 023CE2E6             LDW     .D2T2   *+SP(28),B4       ; |88| 
     419 00000280 00006000             NOP             4
     420 00000284 023D62F6             STW     .D2T2   B4,*+SP(44)       ; |88| 
     421 00000288 00002000             NOP             2
     422                            .dwpsn  "proc_result_v2.c",89,2
     423                    
     424 0000028c 025A1C2B             MVKL    .S2     0x4b438,B4        ; |89| 
     425 00000290 01901FD8  ||         MV      .L1X    B4,A3
     426                    
     427 00000294 0200026A             MVKH    .S2     0x4b438,B4        ; |89| 
     428 00000298 020C0276             STW     .D1T2   B4,*A3            ; |89| 
     429 0000029c 00002000             NOP             2
     430                            .dwpsn  "proc_result_v2.c",92,2
     431 000002a0 0210A35A             MVK     .L2     4,B4              ; |92| 
     432 000002a4 023D02F6             STW     .D2T2   B4,*+SP(32)       ; |92| 
     433 000002a8 00002000             NOP             2
     434                            .dwpsn  "proc_result_v2.c",93,2
     435 000002ac 0FFFAC10!            CALL    .S1     _addr_align       ; |93| 
     436 000002b0 02BF8942             ADD     .D2     SP,28,B5          ; |93| 
     437 000002b4 01874162             ADDKPC  .S2     RL11,B3,2         ; |93| 
     438 000002b8 02141FD8             MV      .L1X    B5,A4             ; |93| 
     439                    RL11:      ; CALL OCCURS {_addr_align}       ; |93| 
     440                            .dwpsn  "proc_result_v2.c",94,2
TMS320C6x COFF Assembler PC v5.1.0 Thu Mar 31 17:05:45 2011

Tools Copyright (c) 1996-2005 Texas Instruments Incorporated
C:\Users\ADMINI~1\AppData\Local\Temp\TI8242                          PAGE    9

     441 000002bc 0FFFAC10!            CALL    .S1     _FillBmpHeader    ; |94| 
     442 000002c0 023CE2E4             LDW     .D2T1   *+SP(28),A4       ; |94| 
     443 000002c4 0201402A             MVK     .S2     0x280,B4          ; |94| 
     444 000002c8 01842162             ADDKPC  .S2     RL12,B3,1         ; |94| 
     445 000002cc 0300F028             MVK     .S1     0x1e0,A6          ; |94| 
     446                    RL12:      ; CALL OCCURS {_FillBmpHeader}    ; |94| 
     447                            .dwpsn  "proc_result_v2.c",97,2
     448 000002d0 023C62E6             LDW     .D2T2   *+SP(12),B4       ; |97| 
     449 000002d4 00006000             NOP             4
     450 000002d8 023D22F6             STW     .D2T2   B4,*+SP(36)       ; |97| 
     451 000002dc 00002000             NOP             2
     452                            .dwpsn  "proc_result_v2.c",99,2
     453 000002e0 02021C2A             MVK     .S2     1080,B4           ; |99| 
     454 000002e4 023D02F6             STW     .D2T2   B4,*+SP(32)       ; |99| 
     455 000002e8 00002000             NOP             2
     456                            .dwpsn  "proc_result_v2.c",100,2
     457 000002ec 0FFFA410!            CALL    .S1     _addr_align       ; |100| 
     458 000002f0 02BF8942             ADD     .D2     SP,28,B5          ; |100| 
     459 000002f4 01874162             ADDKPC  .S2     RL13,B3,2         ; |100| 
     460 000002f8 02141FD8             MV      .L1X    B5,A4             ; |100| 
     461                    RL13:      ; CALL OCCURS {_addr_align}       ; |100| 
     462                            .dwpsn  "proc_result_v2.c",101,2
     463 000002fc 023CE2E6             LDW     .D2T2   *+SP(28),B4       ; |101| 
     464 00000300 00006000             NOP             4
     465 00000304 023D42F6             STW     .D2T2   B4,*+SP(40)       ; |101| 
     466 00000308 00002000             NOP             2
     467                            .dwpsn  "proc_result_v2.c",103,2
     468                    
     469 0000030c 0FFFA011!            CALL    .S1     _memcpy           ; |103| 
     470 00000310 023D22E6  ||         LDW     .D2T2   *+SP(36),B4       ; |103| 
     471                    
     472 00000314 023D42E4             LDW     .D2T1   *+SP(40),A4       ; |103| 
     473 00000318 03580028             MVKL    .S1     0x4b000,A6        ; |103| 
     474 0000031c 01892162             ADDKPC  .S2     RL14,B3,1         ; |103| 
     475 00000320 03000268             MVKH    .S1     0x4b000,A6        ; |103| 
     476                    RL14:      ; CALL OCCURS {_memcpy}           ; |103| 
     477                            .dwpsn  "proc_result_v2.c",106,2
     478 00000324 0258002A             MVKL    .S2     0x4b000,B4        ; |106| 
     479 00000328 0200026A             MVKH    .S2     0x4b000,B4        ; |106| 
     480 0000032c 023D02F6             STW     .D2T2   B4,*+SP(32)       ; |106| 
     481 00000330 00002000             NOP             2
     482                            .dwpsn  "proc_result_v2.c",107,2
     483 00000334 0FFF9C10!            CALL    .S1     _addr_align       ; |107| 
     484 00000338 02BF8942             ADD     .D2     SP,28,B5          ; |107| 
     485 0000033c 01894162             ADDKPC  .S2     RL15,B3,2         ; |107| 
     486 00000340 02141FD8             MV      .L1X    B5,A4             ; |107| 
     487                    RL15:      ; CALL OCCURS {_addr_align}       ; |107| 
     488                            .dwpsn  "proc_result_v2.c",109,2
     489 00000344 023CE2E6             LDW     .D2T2   *+SP(28),B4       ; |109| 
     490 00000348 00006000             NOP             4
     491 0000034c 023D62F6             STW     .D2T2   B4,*+SP(44)       ; |109| 
     492 00000350 00002000             NOP             2
     493                            .dwpsn  "proc_result_v2.c",111,2
     494 00000354 003C82E6             LDW     .D2T2   *+SP(16),B0       ; |111| 
     495 00000358 00006000             NOP             4
TMS320C6x COFF Assembler PC v5.1.0 Thu Mar 31 17:05:45 2011

Tools Copyright (c) 1996-2005 Texas Instruments Incorporated
C:\Users\ADMINI~1\AppData\Local\Temp\TI8242                          PAGE   10

     496 0000035c 2015A120     [ B0]   BNOP    .S1     L1,5              ; |111| 
     497                               ; BRANCHCC OCCURS {L1}            ; |111| 
     498                    ;** --------------------------------------------------------------------------*
     499                            .dwpsn  "proc_result_v2.c",113,3
     500                    
     501 00000360 0200A359             ZERO    .L1     A4                ; |113| 
     502 00000364 019016A0  ||         MV      .S1X    B4,A3
     503                    
     504 00000368 020C0274             STW     .D1T1   A4,*A3            ; |113| 
     505 0000036c 00002000             NOP             2
     506                            .dwpsn  "proc_result_v2.c",114,3
     507 00000370 02BD62E6             LDW     .D2T2   *+SP(44),B5       ; |114| 
     508 00000374 00004000             NOP             3
     509 00000378 0200A35A             ZERO    .L2     B4                ; |114| 
     510 0000037c 021422F6             STW     .D2T2   B4,*+B5(4)        ; |114| 
     511 00000380 00002000             NOP             2
     512                            .dwpsn  "proc_result_v2.c",116,3
     513 00000384 0210A35A             MVK     .L2     4,B4              ; |116| 
     514 00000388 023D02F6             STW     .D2T2   B4,*+SP(32)       ; |116| 
     515 0000038c 00002000             NOP             2
     516                            .dwpsn  "proc_result_v2.c",117,2
     517 00000390 0022A120             BNOP    .S1     L2,5              ; |117| 
     518                               ; BRANCH OCCURS {L2}              ; |117| 
     519                    ;** --------------------------------------------------------------------------*
     520                    L1:    
     521                            .dwpsn  "proc_result_v2.c",120,3
     522                    
     523 00000394 0202002B             MVK     .S2     1024,B4           ; |120| 
     524 00000398 01901FD8  ||         MV      .L1X    B4,A3
     525                    
     526 0000039c 020C0276             STW     .D1T2   B4,*A3            ; |120| 
     527 000003a0 00002000             NOP             2
     528                            .dwpsn  "proc_result_v2.c",122,3
     529 000003a4 023C82E6             LDW     .D2T2   *+SP(16),B4       ; |122| 
     530 000003a8 00006000             NOP             4
     531 000003ac 023D22F6             STW     .D2T2   B4,*+SP(36)       ; |122| 
     532 000003b0 00002000             NOP             2
     533                            .dwpsn  "proc_result_v2.c",124,3
     534 000003b4 0210A35A             MVK     .L2     4,B4              ; |124| 
     535 000003b8 023D02F6             STW     .D2T2   B4,*+SP(32)       ; |124| 
     536 000003bc 00002000             NOP             2
     537                            .dwpsn  "proc_result_v2.c",125,3
     538 000003c0 0FFF8810!            CALL    .S1     _addr_align       ; |125| 
     539 000003c4 02BF8942             ADD     .D2     SP,28,B5          ; |125| 
     540 000003c8 01844162             ADDKPC  .S2     RL16,B3,2         ; |125| 
     541 000003cc 02141FD8             MV      .L1X    B5,A4             ; |125| 
     542                    RL16:      ; CALL OCCURS {_addr_align}       ; |125| 
     543                            .dwpsn  "proc_result_v2.c",126,3
     544 000003d0 023CE2E6             LDW     .D2T2   *+SP(28),B4       ; |126| 
     545 000003d4 00006000             NOP             4
     546 000003d8 023D42F6             STW     .D2T2   B4,*+SP(40)       ; |126| 
     547 000003dc 00002000             NOP             2
     548                            .dwpsn  "proc_result_v2.c",128,3
     549                    
     550 000003e0 0FFF8411!            CALL    .S1     _memcpy           ; |128| 
TMS320C6x COFF Assembler PC v5.1.0 Thu Mar 31 17:05:45 2011

Tools Copyright (c) 1996-2005 Texas Instruments Incorporated
C:\Users\ADMINI~1\AppData\Local\Temp\TI8242                          PAGE   11

     551 000003e4 023D22E6  ||         LDW     .D2T2   *+SP(36),B4       ; |128| 
     552                    
     553 000003e8 023D42E4             LDW     .D2T1   *+SP(40),A4       ; |128| 
     554 000003ec 01854162             ADDKPC  .S2     RL17,B3,2         ; |128| 
     555 000003f0 03020028             MVK     .S1     0x400,A6          ; |128| 
     556                    RL17:      ; CALL OCCURS {_memcpy}           ; |128| 
     557                            .dwpsn  "proc_result_v2.c",130,3
     558 000003f4 023D62E6             LDW     .D2T2   *+SP(44),B4       ; |130| 
     559 000003f8 00006000             NOP             4
     560 000003fc 021002E6             LDW     .D2T2   *B4,B4            ; |130| 
     561 00000400 00006000             NOP             4
     562 00000404 023D02F6             STW     .D2T2   B4,*+SP(32)       ; |130| 
     563                    ;** --------------------------------------------------------------------------*
     564                    L2:    
     565                            .dwpsn  "proc_result_v2.c",133,2
     566 00000408 0FFF8010!            CALL    .S1     _addr_align       ; |133| 
     567 0000040c 02BF8942             ADD     .D2     SP,28,B5          ; |133| 
     568 00000410 01864162             ADDKPC  .S2     RL18,B3,2         ; |133| 
     569 00000414 02141FD8             MV      .L1X    B5,A4             ; |133| 
     570                    RL18:      ; CALL OCCURS {_addr_align}       ; |133| 
     571                            .dwpsn  "proc_result_v2.c",134,2
     572 00000418 02BCE2E6             LDW     .D2T2   *+SP(28),B5       ; |134| 
     573 0000041c 023C22E6             LDW     .D2T2   *+SP(4),B4        ; |134| 
     574 00000420 00006000             NOP             4
     575 00000424 029002F6             STW     .D2T2   B5,*B4            ; |134| 
     576 00000428 00002000             NOP             2
     577                            .dwpsn  "proc_result_v2.c",135,1
     578 0000042c 01BDD2E6             LDW     .D2T2   *++SP(56),B3      ; |135| 
     579 00000430 00006000             NOP             4
     580                            .dwcfa  0xc0, 19
     581                            .dwcfa  0x0e, 0
     582 00000434 008CA362             RETNOP  .S2     B3,5              ; |135| 
     583                               ; BRANCH OCCURS {B3}              ; |135| 
     584                            .dwattr DW$29, DW_AT_end_file("proc_result_v2.c")
     585                            .dwattr DW$29, DW_AT_end_line(0x87)
     586                            .dwattr DW$29, DW_AT_end_column(0x01)
     587                            .dwendentry
     588                            .dwendtag DW$29
     589                    
     590 00000438                   .sect   ".text"
     591                            .global _copy_enroll_result
     592                    
     593                    DW$48   .dwtag  DW_TAG_subprogram, DW_AT_name("copy_enroll_result"), DW_AT_symbol_name("_copy_enroll_r
     594                            .dwattr DW$48, DW_AT_low_pc(_copy_enroll_result)
     595                            .dwattr DW$48, DW_AT_high_pc(0x00)
     596                            .dwattr DW$48, DW_AT_begin_file("proc_result_v2.c")
     597                            .dwattr DW$48, DW_AT_begin_line(0x89)
     598                            .dwattr DW$48, DW_AT_begin_column(0x06)
     599                            .dwpsn  "proc_result_v2.c",138,1
     600                    
     601                            .dwfde DW$CIE
     602                    
     603                    ;******************************************************************************
     604                    ;* FUNCTION NAME: _copy_enroll_result                                         *
     605                    ;*                                                                            *
TMS320C6x COFF Assembler PC v5.1.0 Thu Mar 31 17:05:45 2011

Tools Copyright (c) 1996-2005 Texas Instruments Incorporated
C:\Users\ADMINI~1\AppData\Local\Temp\TI8242                          PAGE   12

     606                    ;*   Regs Modified     : A0,A1,A2,A3,A4,A5,A6,A7,A8,A9,B0,B1,B2,B3,B4,B5,B6,  *
     607                    ;*                           B7,B8,B9,SP,A16,A17,A18,A19,A20,A21,A22,A23,A24, *
     608                    ;*                           A25,A26,A27,A28,A29,A30,A31,B16,B17,B18,B19,B20, *
     609                    ;*                           B21,B22,B23,B24,B25,B26,B27,B28,B29,B30,B31      *
     610                    ;*   Regs Used         : A0,A1,A2,A3,A4,A5,A6,A7,A8,A9,B0,B1,B2,B3,B4,B5,B6,  *
     611                    ;*                           B7,B8,B9,SP,A16,A17,A18,A19,A20,A21,A22,A23,A24, *
     612                    ;*                           A25,A26,A27,A28,A29,A30,A31,B16,B17,B18,B19,B20, *
     613                    ;*                           B21,B22,B23,B24,B25,B26,B27,B28,B29,B30,B31      *
     614                    ;*   Local Frame Size  : 0 Args + 48 Auto + 4 Save = 52 byte                  *
     615                    ;******************************************************************************
     616                    _copy_enroll_result:
     617                    ;** --------------------------------------------------------------------------*
     618                            .dwcfa  0x0e, 0
     619                            .dwcfa  0x09, 126, 19
     620 00000438 01BDD4F6             STW     .D2T2   B3,*SP--(56)      ; |138| 
     621 0000043c 00002000             NOP             2
     622                            .dwcfa  0x0e, 56
     623                            .dwcfa  0x80, 19, 0
     624                    DW$49   .dwtag  DW_TAG_formal_parameter, DW_AT_name("start_addr"), DW_AT_symbol_name("_start_addr")
     625                            .dwattr DW$49, DW_AT_type(*DW$T$106)
     626                            .dwattr DW$49, DW_AT_location[DW_OP_reg4]
     627                    DW$50   .dwtag  DW_TAG_formal_parameter, DW_AT_name("end_addr"), DW_AT_symbol_name("_end_addr")
     628                            .dwattr DW$50, DW_AT_type(*DW$T$106)
     629                            .dwattr DW$50, DW_AT_location[DW_OP_reg20]
     630                    DW$51   .dwtag  DW_TAG_variable, DW_AT_name("start_addr"), DW_AT_symbol_name("_start_addr")
     631                            .dwattr DW$51, DW_AT_type(*DW$T$106)
     632                            .dwattr DW$51, DW_AT_location[DW_OP_breg31 4]
     633                    DW$52   .dwtag  DW_TAG_variable, DW_AT_name("end_addr"), DW_AT_symbol_name("_end_addr")
     634                            .dwattr DW$52, DW_AT_type(*DW$T$106)
     635                            .dwattr DW$52, DW_AT_location[DW_OP_breg31 8]
     636                    DW$53   .dwtag  DW_TAG_variable, DW_AT_name("if_send_rotate"), DW_AT_symbol_name("_if_send_rotate")
     637                            .dwattr DW$53, DW_AT_type(*DW$T$32)
     638                            .dwattr DW$53, DW_AT_location[DW_OP_breg31 12]
     639                    DW$54   .dwtag  DW_TAG_variable, DW_AT_name("i"), DW_AT_symbol_name("_i")
     640                            .dwattr DW$54, DW_AT_type(*DW$T$129)
     641                            .dwattr DW$54, DW_AT_location[DW_OP_breg31 16]
     642                    DW$55   .dwtag  DW_TAG_variable, DW_AT_name("off"), DW_AT_symbol_name("_off")
     643                            .dwattr DW$55, DW_AT_type(*DW$T$129)
     644                            .dwattr DW$55, DW_AT_location[DW_OP_breg31 20]
     645                    DW$56   .dwtag  DW_TAG_variable, DW_AT_name("left_count"), DW_AT_symbol_name("_left_count")
     646                            .dwattr DW$56, DW_AT_type(*DW$T$129)
     647                            .dwattr DW$56, DW_AT_location[DW_OP_breg31 24]
     648                    DW$57   .dwtag  DW_TAG_variable, DW_AT_name("right_count"), DW_AT_symbol_name("_right_count")
     649                            .dwattr DW$57, DW_AT_type(*DW$T$129)
     650                            .dwattr DW$57, DW_AT_location[DW_OP_breg31 28]
     651                    DW$58   .dwtag  DW_TAG_variable, DW_AT_name("addr"), DW_AT_symbol_name("_addr")
     652                            .dwattr DW$58, DW_AT_type(*DW$T$103)
     653                            .dwattr DW$58, DW_AT_location[DW_OP_breg31 32]
     654                    DW$59   .dwtag  DW_TAG_variable, DW_AT_name("single_enroll_result_len"), DW_AT_symbol_name("_single_en
     655                            .dwattr DW$59, DW_AT_type(*DW$T$103)
     656                            .dwattr DW$59, DW_AT_location[DW_OP_breg31 36]
     657                    DW$60   .dwtag  DW_TAG_variable, DW_AT_name("fea_addr"), DW_AT_symbol_name("_fea_addr")
     658                            .dwattr DW$60, DW_AT_type(*DW$T$103)
     659                            .dwattr DW$60, DW_AT_location[DW_OP_breg31 40]
     660                    DW$61   .dwtag  DW_TAG_variable, DW_AT_name("img_addr"), DW_AT_symbol_name("_img_addr")
TMS320C6x COFF Assembler PC v5.1.0 Thu Mar 31 17:05:45 2011

Tools Copyright (c) 1996-2005 Texas Instruments Incorporated
C:\Users\ADMINI~1\AppData\Local\Temp\TI8242                          PAGE   13

     661                            .dwattr DW$61, DW_AT_type(*DW$T$103)
     662                            .dwattr DW$61, DW_AT_location[DW_OP_breg31 44]
     663                    DW$62   .dwtag  DW_TAG_variable, DW_AT_name("rotate_addr"), DW_AT_symbol_name("_rotate_addr")
     664                            .dwattr DW$62, DW_AT_type(*DW$T$103)
     665                            .dwattr DW$62, DW_AT_location[DW_OP_breg31 48]
     666                    
     667 00000440 023C22F5             STW     .D2T1   A4,*+SP(4)        ; |138| 
     668 00000444 01901FD8  ||         MV      .L1X    B4,A3             ; |138| 
     669                    
     670 00000448 01BC42F4             STW     .D2T1   A3,*+SP(8)        ; |138| 
     671 0000044c 00002000             NOP             2
     672                            .dwpsn  "proc_result_v2.c",139,7
     673 00000450 0200A35A             ZERO    .L2     B4                ; |139| 
     674 00000454 023CC2D6             STH     .D2T2   B4,*+SP(12)       ; |139| 
     675 00000458 00002000             NOP             2
     676                            .dwpsn  "proc_result_v2.c",145,9
     677 0000045c 023D22F6             STW     .D2T2   B4,*+SP(36)       ; |145| 
     678 00000460 00002000             NOP             2
     679                            .dwpsn  "proc_result_v2.c",148,2
     680 00000464 0200362A!            MVKL    .S2     _dsp_used_reg+108,B4 ; |148| 
     681 00000468 0200006A!            MVKH    .S2     _dsp_used_reg+108,B4 ; |148| 
     682 0000046c 021002C6             LDH     .D2T2   *B4,B4            ; |148| 
     683 00000470 00006000             NOP             4
     684 00000474 023CC2F6             STW     .D2T2   B4,*+SP(24)       ; |148| 
     685 00000478 00002000             NOP             2
     686                            .dwpsn  "proc_result_v2.c",149,2
     687 0000047c 01803728!            MVKL    .S1     _dsp_used_reg+110,A3 ; |149| 
     688 00000480 01800068!            MVKH    .S1     _dsp_used_reg+110,A3 ; |149| 
     689 00000484 018C0244             LDH     .D1T1   *A3,A3            ; |149| 
     690 00000488 00006000             NOP             4
     691 0000048c 01BCE2F4             STW     .D2T1   A3,*+SP(28)       ; |149| 
     692 00000490 00002000             NOP             2
     693                            .dwpsn  "proc_result_v2.c",155,2
     694 00000494 0200002A!            MVKL    .S2     _ENROLL_RESULT_MAX_LEN,B4 ; |155| 
     695 00000498 0200006A!            MVKH    .S2     _ENROLL_RESULT_MAX_LEN,B4 ; |155| 
     696 0000049c 021002E6             LDW     .D2T2   *B4,B4            ; |155| 
     697 000004a0 00006000             NOP             4
     698 000004a4 023D22F6             STW     .D2T2   B4,*+SP(36)       ; |155| 
     699 000004a8 00002000             NOP             2
     700                            .dwpsn  "proc_result_v2.c",157,2
     701 000004ac 01802028!            MVKL    .S1     _dsp_used_reg+64,A3 ; |157| 
     702 000004b0 01800068!            MVKH    .S1     _dsp_used_reg+64,A3 ; |157| 
     703 000004b4 018C0204             LDHU    .D1T1   *A3,A3            ; |157| 
     704 000004b8 00006000             NOP             4
     705 000004bc 000C2A58             CMPEQ   .L1     A3,1,A0           ; |157| 
     706 000004c0 D0096120     [!A0]   BNOP    .S1     L3,3              ; |157| 
     707 000004c4 01802128!            MVKL    .S1     _dsp_used_reg+66,A3 ; |157| 
     708                    
     709 000004c8 01800069!            MVKH    .S1     _dsp_used_reg+66,A3 ; |157| 
     710 000004cc 02001FDA  ||         MV      .L2X    A0,B4             ; |157| 
     711                    
     712                               ; BRANCHCC OCCURS {L3}            ; |157| 
     713                    ;** --------------------------------------------------------------------------*
     714 000004d0 018C0204             LDHU    .D1T1   *A3,A3            ; |157| 
     715 000004d4 00006000             NOP             4
TMS320C6x COFF Assembler PC v5.1.0 Thu Mar 31 17:05:45 2011

Tools Copyright (c) 1996-2005 Texas Instruments Incorporated
C:\Users\ADMINI~1\AppData\Local\Temp\TI8242                          PAGE   14

     716 000004d8 018C2F58             AND     .L1     1,A3,A3           ; |157| 
     717 000004dc 018C0A58             CMPEQ   .L1     A3,0,A3           ; |157| 
     718 000004e0 020C3DDA             XOR     .L2X    1,A3,B4           ; |157| 
     719                    ;** --------------------------------------------------------------------------*
     720 000004e4           L3:    
     721 000004e4 00101FD8             MV      .L1X    B4,A0             ; |157| 
     722 000004e8 D005A120     [!A0]   BNOP    .S1     L4,5              ; |157| 
     723                               ; BRANCHCC OCCURS {L4}            ; |157| 
     724                    ;** --------------------------------------------------------------------------*
     725                            .dwpsn  "proc_result_v2.c",159,4
     726 000004ec 0204A35A             MVK     .L2     1,B4              ; |159| 
     727 000004f0 023CC2D6             STH     .D2T2   B4,*+SP(12)       ; |159| 
     728                    ;** --------------------------------------------------------------------------*
     729                    L4:    
     730                            .dwpsn  "proc_result_v2.c",161,2
     731 000004f4 0200A35A             ZERO    .L2     B4                ; |161| 
     732 000004f8 023CA2F6             STW     .D2T2   B4,*+SP(20)       ; |161| 
     733 000004fc 00002000             NOP             2
     734                            .dwpsn  "proc_result_v2.c",162,2
     735 00000500 02101FDA             MV      .L2X    A4,B4
     736 00000504 021002E6             LDW     .D2T2   *B4,B4            ; |162| 
     737 00000508 00006000             NOP             4
     738 0000050c 023D02F6             STW     .D2T2   B4,*+SP(32)       ; |162| 
     739 00000510 00002000             NOP             2
     740                            .dwpsn  "proc_result_v2.c",163,2
     741 00000514 0FFF6010!            CALL    .S1     _addr_align       ; |163| 
     742 00000518 023CA2E6             LDW     .D2T2   *+SP(20),B4       ; |163| 
     743 0000051c 02BC9EC2             ADDAD   .D2     SP,4,B5           ; |163| 
     744 00000520 01822162             ADDKPC  .S2     RL19,B3,1         ; |163| 
     745 00000524 02141FD8             MV      .L1X    B5,A4             ; |163| 
     746                    RL19:      ; CALL OCCURS {_addr_align}       ; |163| 
     747                            .dwpsn  "proc_result_v2.c",164,2
     748 00000528 01BC22E4             LDW     .D2T1   *+SP(4),A3        ; |164| 
     749 0000052c 023D02E6             LDW     .D2T2   *+SP(32),B4       ; |164| 
     750 00000530 00006000             NOP             4
     751 00000534 020C0276             STW     .D1T2   B4,*A3            ; |164| 
     752 00000538 00002000             NOP             2
     753                            .dwpsn  "proc_result_v2.c",167,2
     754 0000053c 01801F28!            MVKL    .S1     _dsp_used_reg+62,A3 ; |167| 
     755 00000540 01800068!            MVKH    .S1     _dsp_used_reg+62,A3 ; |167| 
     756                    
     757 00000544 018C0205             LDHU    .D1T1   *A3,A3            ; |167| 
     758 00000548 023CC2E6  ||         LDW     .D2T2   *+SP(24),B4       ; |167| 
     759                    
     760 0000054c 00006000             NOP             4
     761 00000550 001078F8             CMPLT   .L1X    B4,A3,A0          ; |167| 
     762 00000554 C04FA120     [ A0]   BNOP    .S1     L8,5              ; |167| 
     763                               ; BRANCHCC OCCURS {L8}            ; |167| 
     764                    ;** --------------------------------------------------------------------------*
     765                            .dwpsn  "proc_result_v2.c",169,8
     766 00000558 0200A35A             ZERO    .L2     B4                ; |169| 
     767 0000055c 023C82F6             STW     .D2T2   B4,*+SP(16)       ; |169| 
     768 00000560 00002000             NOP             2
     769                            .dwpsn  "proc_result_v2.c",169,13
     770 00000564 01801F28!            MVKL    .S1     _dsp_used_reg+62,A3 ; |169| 
TMS320C6x COFF Assembler PC v5.1.0 Thu Mar 31 17:05:45 2011

Tools Copyright (c) 1996-2005 Texas Instruments Incorporated
C:\Users\ADMINI~1\AppData\Local\Temp\TI8242                          PAGE   15

     771 00000568 01800068!            MVKH    .S1     _dsp_used_reg+62,A3 ; |169| 
     772 0000056c 018C0204             LDHU    .D1T1   *A3,A3            ; |169| 
     773 00000570 00006000             NOP             4
     774 00000574 000C9AFA             CMPLT   .L2X    B4,A3,B0          ; |169| 
     775 00000578 3047A120     [!B0]   BNOP    .S1     L8,5              ; |169| 
     776                               ; BRANCHCC OCCURS {L8}            ; |169| 
     777                    ;*----------------------------------------------------------------------------*
     778                    ;*   SOFTWARE PIPELINE INFORMATION
     779                    ;*      Disqualified loop: Software pipelining disabled
     780                    ;*----------------------------------------------------------------------------*
     781                    L5:    
     782                    DW$L$_copy_enroll_result$7$B:
     783                            .dwpsn  "proc_result_v2.c",171,4
     784 0000057c 01E01028             MVKL    .S1     0x8202c020,A3     ; |171| 
     785 00000580 01C10168             MVKH    .S1     0x8202c020,A3     ; |171| 
     786 00000584 02112CA2             SHL     .S2     B4,9,B4           ; |171| 
     787 00000588 020C907A             ADD     .L2X    A3,B4,B4          ; |171| 
     788 0000058c 023D42F6             STW     .D2T2   B4,*+SP(40)       ; |171| 
     789 00000590 00002000             NOP             2
     790                            .dwpsn  "proc_result_v2.c",172,4
     791 00000594 02BC82E6             LDW     .D2T2   *+SP(16),B5       ; |172| 
     792 00000598 023D22E6             LDW     .D2T2   *+SP(36),B4       ; |172| 
     793 0000059c 01800028!            MVKL    .S1     _ENROLL_LEFT_STRUCT_ADDR1,A3 ; |172| 
     794 000005a0 01800068!            MVKH    .S1     _ENROLL_LEFT_STRUCT_ADDR1,A3 ; |172| 
     795 000005a4 018C0264             LDW     .D1T1   *A3,A3            ; |172| 
     796 000005a8 0300002A!            MVKL    .S2     _ENROLL_IMAGE_DATA_OFFSET,B6 ; |172| 
     797 000005ac 0410A882             MPYLH   .M2     B5,B4,B8          ; |172| 
     798 000005b0 03948882             MPYLH   .M2     B4,B5,B7          ; |172| 
     799 000005b4 0290AF82             MPYU    .M2     B5,B4,B5          ; |172| 
     800                    
     801 000005b8 0300006B!            MVKH    .S2     _ENROLL_IMAGE_DATA_OFFSET,B6 ; |172| 
     802 000005bc 021D007A  ||         ADD     .L2     B8,B7,B4          ; |172| 
     803                    
     804 000005c0 031802E7             LDW     .D2T2   *B6,B6            ; |172| 
     805 000005c4 02120CA2  ||         SHL     .S2     B4,16,B4          ; |172| 
     806                    
     807 000005c8 00002000             NOP             2
     808 000005cc 0210A07A             ADD     .L2     B5,B4,B4          ; |172| 
     809 000005d0 01907078             ADD     .L1X    B4,A3,A3          ; |172| 
     810 000005d4 020CD07A             ADD     .L2X    B6,A3,B4          ; |172| 
     811 000005d8 023D62F6             STW     .D2T2   B4,*+SP(44)       ; |172| 
     812 000005dc 00002000             NOP             2
     813                            .dwpsn  "proc_result_v2.c",175,4
     814 000005e0 023CC286             LDHU    .D2T2   *+SP(12),B4       ; |175| 
     815 000005e4 00006000             NOP             4
     816 000005e8 00102A5A             CMPEQ   .L2     B4,1,B0           ; |175| 
     817 000005ec 300BA120     [!B0]   BNOP    .S1     L6,5              ; |175| 
     818                               ; BRANCHCC OCCURS {L6}            ; |175| 
     819                    DW$L$_copy_enroll_result$7$E:
     820                    ;** --------------------------------------------------------------------------*
     821                    DW$L$_copy_enroll_result$8$B:
     822                            .dwpsn  "proc_result_v2.c",176,5
     823 000005f0 023C82E6             LDW     .D2T2   *+SP(16),B4       ; |176| 
     824 000005f4 01E81028             MVKL    .S1     0x8202d020,A3     ; |176| 
     825 000005f8 000D2120             BNOP    .S1     L7,1              ; |176| 
TMS320C6x COFF Assembler PC v5.1.0 Thu Mar 31 17:05:45 2011

Tools Copyright (c) 1996-2005 Texas Instruments Incorporated
C:\Users\ADMINI~1\AppData\Local\Temp\TI8242                          PAGE   16

     826 000005fc 01C10168             MVKH    .S1     0x8202d020,A3     ; |176| 
     827 00000600 02114CA2             SHL     .S2     B4,10,B4          ; |176| 
     828 00000604 020C907A             ADD     .L2X    A3,B4,B4          ; |176| 
     829 00000608 023D82F6             STW     .D2T2   B4,*+SP(48)       ; |176| 
     830                               ; BRANCH OCCURS {L7}              ; |176| 
     831                    DW$L$_copy_enroll_result$8$E:
     832                    ;** --------------------------------------------------------------------------*
     833                    L6:    
     834                    DW$L$_copy_enroll_result$9$B:
     835                            .dwpsn  "proc_result_v2.c",178,5
     836 0000060c 0200A35A             ZERO    .L2     B4                ; |178| 
     837 00000610 023D82F6             STW     .D2T2   B4,*+SP(48)       ; |178| 
     838                    DW$L$_copy_enroll_result$9$E:
     839                    ;** --------------------------------------------------------------------------*
     840                    L7:    
     841                    DW$L$_copy_enroll_result$10$B:
     842                            .dwpsn  "proc_result_v2.c",179,4
     843 00000614 023C82E6             LDW     .D2T2   *+SP(16),B4       ; |179| 
     844 00000618 03BC9EC2             ADDAD   .D2     SP,4,B7           ; |179| 
     845 0000061c 033D82E6             LDW     .D2T2   *+SP(48),B6       ; |179| 
     846 00000620 033D62E4             LDW     .D2T1   *+SP(44),A6       ; |179| 
     847 00000624 0FFF3C10             CALL    .S1     _set_enroll_result ; |179| 
     848                    
     849 00000628 023D42E7             LDW     .D2T2   *+SP(40),B4       ; |179| 
     850 0000062c 02906CA3  ||         SHL     .S2     B4,3,B5           ; |179| 
     851 00000630 0190FCA0  ||         SHL     .S1X    B4,7,A3           ; |179| 
     852                    
     853 00000634 0F80002A!            MVKL    .S2     _left_imginfo,B31 ; |179| 
     854                    
     855 00000638 021C1FD9             MV      .L1X    B7,A4             ; |179| 
     856 0000063c 0F80006A! ||         MVKH    .S2     _left_imginfo,B31 ; |179| 
     857                    
     858 00000640 019470F8             SUB     .L1X    A3,B5,A3          ; |179| 
     859                    
     860 00000644 01840163             ADDKPC  .S2     RL20,B3,0         ; |179| 
     861 00000648 047C7079  ||         ADD     .L1X    B31,A3,A8         ; |179| 
     862 0000064c 0404A35A  ||         MVK     .L2     0x1,B8            ; |179| 
     863                    
     864                    RL20:      ; CALL OCCURS {_set_enroll_result}  ; |179| 
     865                            .dwpsn  "proc_result_v2.c",169,51
     866 00000650 023C82E6             LDW     .D2T2   *+SP(16),B4       ; |169| 
     867 00000654 00006000             NOP             4
     868 00000658 0210205A             ADD     .L2     1,B4,B4           ; |169| 
     869 0000065c 023C82F6             STW     .D2T2   B4,*+SP(16)       ; |169| 
     870 00000660 00002000             NOP             2
     871                            .dwpsn  "proc_result_v2.c",169,13
     872 00000664 01801F28!            MVKL    .S1     _dsp_used_reg+62,A3 ; |169| 
     873 00000668 01800068!            MVKH    .S1     _dsp_used_reg+62,A3 ; |169| 
     874 0000066c 028C0206             LDHU    .D1T2   *A3,B5            ; |169| 
     875 00000670 00006000             NOP             4
     876 00000674 00148AFA             CMPLT   .L2     B4,B5,B0          ; |169| 
     877 00000678 2FC7A120     [ B0]   BNOP    .S1     L5,5              ; |169| 
     878                               ; BRANCHCC OCCURS {L5}            ; |169| 
     879                    DW$L$_copy_enroll_result$10$E:
     880                    ;** --------------------------------------------------------------------------*
TMS320C6x COFF Assembler PC v5.1.0 Thu Mar 31 17:05:45 2011

Tools Copyright (c) 1996-2005 Texas Instruments Incorporated
C:\Users\ADMINI~1\AppData\Local\Temp\TI8242                          PAGE   17

     881                    L8:    
     882                            .dwpsn  "proc_result_v2.c",185,2
     883 0000067c 01801F28!            MVKL    .S1     _dsp_used_reg+62,A3 ; |185| 
     884 00000680 01800068!            MVKH    .S1     _dsp_used_reg+62,A3 ; |185| 
     885                    
     886 00000684 018C0205             LDHU    .D1T1   *A3,A3            ; |185| 
     887 00000688 023CE2E6  ||         LDW     .D2T2   *+SP(28),B4       ; |185| 
     888                    
     889 0000068c 00006000             NOP             4
     890 00000690 000C9AFA             CMPLT   .L2X    B4,A3,B0          ; |185| 
     891 00000694 2052A120     [ B0]   BNOP    .S1     L12,5             ; |185| 
     892                               ; BRANCHCC OCCURS {L12}           ; |185| 
     893                    ;** --------------------------------------------------------------------------*
     894                            .dwpsn  "proc_result_v2.c",187,8
     895 00000698 0200A35A             ZERO    .L2     B4                ; |187| 
     896 0000069c 023C82F6             STW     .D2T2   B4,*+SP(16)       ; |187| 
     897 000006a0 00002000             NOP             2
     898                            .dwpsn  "proc_result_v2.c",187,13
     899 000006a4 01801F28!            MVKL    .S1     _dsp_used_reg+62,A3 ; |187| 
     900 000006a8 01800068!            MVKH    .S1     _dsp_used_reg+62,A3 ; |187| 
     901 000006ac 018C0204             LDHU    .D1T1   *A3,A3            ; |187| 
     902 000006b0 00006000             NOP             4
     903 000006b4 000C9AFA             CMPLT   .L2X    B4,A3,B0          ; |187| 
     904 000006b8 304AA120     [!B0]   BNOP    .S1     L12,5             ; |187| 
     905                               ; BRANCHCC OCCURS {L12}           ; |187| 
     906                    ;*----------------------------------------------------------------------------*
     907                    ;*   SOFTWARE PIPELINE INFORMATION
     908                    ;*      Disqualified loop: Software pipelining disabled
     909                    ;*----------------------------------------------------------------------------*
     910                    L9:    
     911                    DW$L$_copy_enroll_result$13$B:
     912                            .dwpsn  "proc_result_v2.c",189,4
     913 000006bc 023C82E6             LDW     .D2T2   *+SP(16),B4       ; |189| 
     914 000006c0 00002000             NOP             2
     915 000006c4 01E41028             MVKL    .S1     0x8202c820,A3     ; |189| 
     916 000006c8 01C10168             MVKH    .S1     0x8202c820,A3     ; |189| 
     917 000006cc 02112CA2             SHL     .S2     B4,9,B4           ; |189| 
     918 000006d0 020C907A             ADD     .L2X    A3,B4,B4          ; |189| 
     919 000006d4 023D42F6             STW     .D2T2   B4,*+SP(40)       ; |189| 
     920 000006d8 00002000             NOP             2
     921                            .dwpsn  "proc_result_v2.c",190,4
     922 000006dc 033C82E6             LDW     .D2T2   *+SP(16),B6       ; |190| 
     923 000006e0 02BD22E6             LDW     .D2T2   *+SP(36),B5       ; |190| 
     924 000006e4 01800028!            MVKL    .S1     _ENROLL_RIGHT_STRUCT_ADDR1,A3 ; |190| 
     925 000006e8 01800068!            MVKH    .S1     _ENROLL_RIGHT_STRUCT_ADDR1,A3 ; |190| 
     926 000006ec 018C0264             LDW     .D1T1   *A3,A3            ; |190| 
     927 000006f0 0200002A!            MVKL    .S2     _ENROLL_IMAGE_DATA_OFFSET,B4 ; |190| 
     928 000006f4 0414C882             MPYLH   .M2     B6,B5,B8          ; |190| 
     929 000006f8 0398A882             MPYLH   .M2     B5,B6,B7          ; |190| 
     930 000006fc 0314CF82             MPYU    .M2     B6,B5,B6          ; |190| 
     931                    
     932 00000700 0200006B!            MVKH    .S2     _ENROLL_IMAGE_DATA_OFFSET,B4 ; |190| 
     933 00000704 029D007A  ||         ADD     .L2     B8,B7,B5          ; |190| 
     934                    
     935 00000708 029002E7             LDW     .D2T2   *B4,B5            ; |190| 
TMS320C6x COFF Assembler PC v5.1.0 Thu Mar 31 17:05:45 2011

Tools Copyright (c) 1996-2005 Texas Instruments Incorporated
C:\Users\ADMINI~1\AppData\Local\Temp\TI8242                          PAGE   18

     936 0000070c 02160CA2  ||         SHL     .S2     B5,16,B4          ; |190| 
     937                    
     938 00000710 00002000             NOP             2
     939 00000714 0210C07A             ADD     .L2     B6,B4,B4          ; |190| 
     940 00000718 01907078             ADD     .L1X    B4,A3,A3          ; |190| 
     941 0000071c 020CB07A             ADD     .L2X    B5,A3,B4          ; |190| 
     942 00000720 023D62F6             STW     .D2T2   B4,*+SP(44)       ; |190| 
     943 00000724 00002000             NOP             2
     944                            .dwpsn  "proc_result_v2.c",193,4
     945 00000728 023CC286             LDHU    .D2T2   *+SP(12),B4       ; |193| 
     946 0000072c 00006000             NOP             4
     947 00000730 00102A5A             CMPEQ   .L2     B4,1,B0           ; |193| 
     948 00000734 300DA120     [!B0]   BNOP    .S1     L10,5             ; |193| 
     949                               ; BRANCHCC OCCURS {L10}           ; |193| 
     950                    DW$L$_copy_enroll_result$13$E:
     951                    ;** --------------------------------------------------------------------------*
     952                    DW$L$_copy_enroll_result$14$B:
     953                            .dwpsn  "proc_result_v2.c",194,5
     954 00000738 023C82E6             LDW     .D2T2   *+SP(16),B4       ; |194| 
     955 0000073c 01F01028             MVKL    .S1     0x8202e020,A3     ; |194| 
     956 00000740 00072120             BNOP    .S1     L11,1             ; |194| 
     957 00000744 01C10168             MVKH    .S1     0x8202e020,A3     ; |194| 
     958 00000748 02114CA2             SHL     .S2     B4,10,B4          ; |194| 
     959 0000074c 020C907A             ADD     .L2X    A3,B4,B4          ; |194| 
     960 00000750 023D82F6             STW     .D2T2   B4,*+SP(48)       ; |194| 
     961                               ; BRANCH OCCURS {L11}             ; |194| 
     962                    DW$L$_copy_enroll_result$14$E:
     963                    ;** --------------------------------------------------------------------------*
     964                    L10:    
     965                    DW$L$_copy_enroll_result$15$B:
     966                            .dwpsn  "proc_result_v2.c",196,5
     967 00000754 0200A35A             ZERO    .L2     B4                ; |196| 
     968 00000758 023D82F6             STW     .D2T2   B4,*+SP(48)       ; |196| 
     969                    DW$L$_copy_enroll_result$15$E:
     970                    ;** --------------------------------------------------------------------------*
     971                    L11:    
     972                    DW$L$_copy_enroll_result$16$B:
     973                            .dwpsn  "proc_result_v2.c",197,4
     974 0000075c 023C82E6             LDW     .D2T2   *+SP(16),B4       ; |197| 
     975 00000760 02BC9EC2             ADDAD   .D2     SP,4,B5           ; |197| 
     976 00000764 033D82E6             LDW     .D2T2   *+SP(48),B6       ; |197| 
     977 00000768 033D62E4             LDW     .D2T1   *+SP(44),A6       ; |197| 
     978 0000076c 0FFF1410             CALL    .S1     _set_enroll_result ; |197| 
     979                    
     980 00000770 023D42E7             LDW     .D2T2   *+SP(40),B4       ; |197| 
     981 00000774 03906CA3  ||         SHL     .S2     B4,3,B7           ; |197| 
     982 00000778 0190FCA0  ||         SHL     .S1X    B4,7,A3           ; |197| 
     983                    
     984 0000077c 0F80002A!            MVKL    .S2     _right_imginfo,B31 ; |197| 
     985                    
     986 00000780 02141FD9             MV      .L1X    B5,A4             ; |197| 
     987 00000784 0F80006A! ||         MVKH    .S2     _right_imginfo,B31 ; |197| 
     988                    
     989 00000788 019C70F8             SUB     .L1X    A3,B7,A3          ; |197| 
     990                    
TMS320C6x COFF Assembler PC v5.1.0 Thu Mar 31 17:05:45 2011

Tools Copyright (c) 1996-2005 Texas Instruments Incorporated
C:\Users\ADMINI~1\AppData\Local\Temp\TI8242                          PAGE   19

     991 0000078c 01860163             ADDKPC  .S2     RL21,B3,0         ; |197| 
     992 00000790 047C7079  ||         ADD     .L1X    B31,A3,A8         ; |197| 
     993 00000794 0408A35A  ||         MVK     .L2     0x2,B8            ; |197| 
     994                    
     995                    RL21:      ; CALL OCCURS {_set_enroll_result}  ; |197| 
     996                            .dwpsn  "proc_result_v2.c",187,51
     997 00000798 023C82E6             LDW     .D2T2   *+SP(16),B4       ; |187| 
     998 0000079c 00006000             NOP             4
     999 000007a0 0210205A             ADD     .L2     1,B4,B4           ; |187| 
    1000 000007a4 023C82F6             STW     .D2T2   B4,*+SP(16)       ; |187| 
    1001 000007a8 00002000             NOP             2
    1002                            .dwpsn  "proc_result_v2.c",187,13
    1003 000007ac 01801F28!            MVKL    .S1     _dsp_used_reg+62,A3 ; |187| 
    1004 000007b0 01800068!            MVKH    .S1     _dsp_used_reg+62,A3 ; |187| 
    1005                    
    1006 000007b4 020C0207             LDHU    .D1T2   *A3,B4            ; |187| 
    1007 000007b8 02900FDA  ||         MV      .L2     B4,B5             ; |187| 
    1008                    
    1009 000007bc 00006000             NOP             4
    1010 000007c0 0010AAFA             CMPLT   .L2     B5,B4,B0          ; |187| 
    1011 000007c4 2FBFA120     [ B0]   BNOP    .S1     L9,5              ; |187| 
    1012                               ; BRANCHCC OCCURS {L9}            ; |187| 
    1013                    DW$L$_copy_enroll_result$16$E:
    1014                    ;** --------------------------------------------------------------------------*
    1015                    L12:    
    1016                            .dwpsn  "proc_result_v2.c",202,2
    1017 000007c8 023D02E6             LDW     .D2T2   *+SP(32),B4       ; |202| 
    1018 000007cc 02BC42E6             LDW     .D2T2   *+SP(8),B5        ; |202| 
    1019 000007d0 00006000             NOP             4
    1020 000007d4 021402F6             STW     .D2T2   B4,*B5            ; |202| 
    1021 000007d8 00002000             NOP             2
    1022                            .dwpsn  "proc_result_v2.c",203,1
    1023 000007dc 01BDD2E6             LDW     .D2T2   *++SP(56),B3      ; |203| 
    1024 000007e0 00006000             NOP             4
    1025                            .dwcfa  0xc0, 19
    1026                            .dwcfa  0x0e, 0
    1027 000007e4 008CA362             RETNOP  .S2     B3,5              ; |203| 
    1028                               ; BRANCH OCCURS {B3}              ; |203| 
    1029                    
    1030                    DW$63   .dwtag  DW_TAG_loop
    1031                            .dwattr DW$63, DW_AT_name("C:\Users\ADMINI~1\AppData\Local\Temp\TI8242:L9:1:1301562344")
    1032                            .dwattr DW$63, DW_AT_begin_file("proc_result_v2.c")
    1033                            .dwattr DW$63, DW_AT_begin_line(0xbb)
    1034                            .dwattr DW$63, DW_AT_end_line(0xc7)
    1035                    DW$64   .dwtag  DW_TAG_loop_range
    1036                            .dwattr DW$64, DW_AT_low_pc(DW$L$_copy_enroll_result$13$B)
    1037                            .dwattr DW$64, DW_AT_high_pc(DW$L$_copy_enroll_result$13$E)
    1038                    DW$65   .dwtag  DW_TAG_loop_range
    1039                            .dwattr DW$65, DW_AT_low_pc(DW$L$_copy_enroll_result$14$B)
    1040                            .dwattr DW$65, DW_AT_high_pc(DW$L$_copy_enroll_result$14$E)
    1041                    DW$66   .dwtag  DW_TAG_loop_range
    1042                            .dwattr DW$66, DW_AT_low_pc(DW$L$_copy_enroll_result$15$B)
    1043                            .dwattr DW$66, DW_AT_high_pc(DW$L$_copy_enroll_result$15$E)
    1044                    DW$67   .dwtag  DW_TAG_loop_range
    1045                            .dwattr DW$67, DW_AT_low_pc(DW$L$_copy_enroll_result$16$B)
TMS320C6x COFF Assembler PC v5.1.0 Thu Mar 31 17:05:45 2011

Tools Copyright (c) 1996-2005 Texas Instruments Incorporated
C:\Users\ADMINI~1\AppData\Local\Temp\TI8242                          PAGE   20

    1046                            .dwattr DW$67, DW_AT_high_pc(DW$L$_copy_enroll_result$16$E)
    1047                            .dwendtag DW$63
    1048                    
    1049                    
    1050                    DW$68   .dwtag  DW_TAG_loop
    1051                            .dwattr DW$68, DW_AT_name("C:\Users\ADMINI~1\AppData\Local\Temp\TI8242:L5:1:1301562344")
    1052                            .dwattr DW$68, DW_AT_begin_file("proc_result_v2.c")
    1053                            .dwattr DW$68, DW_AT_begin_line(0xa9)
    1054                            .dwattr DW$68, DW_AT_end_line(0xb5)
    1055                    DW$69   .dwtag  DW_TAG_loop_range
    1056                            .dwattr DW$69, DW_AT_low_pc(DW$L$_copy_enroll_result$7$B)
    1057                            .dwattr DW$69, DW_AT_high_pc(DW$L$_copy_enroll_result$7$E)
    1058                    DW$70   .dwtag  DW_TAG_loop_range
    1059                            .dwattr DW$70, DW_AT_low_pc(DW$L$_copy_enroll_result$8$B)
    1060                            .dwattr DW$70, DW_AT_high_pc(DW$L$_copy_enroll_result$8$E)
    1061                    DW$71   .dwtag  DW_TAG_loop_range
    1062                            .dwattr DW$71, DW_AT_low_pc(DW$L$_copy_enroll_result$9$B)
    1063                            .dwattr DW$71, DW_AT_high_pc(DW$L$_copy_enroll_result$9$E)
    1064                    DW$72   .dwtag  DW_TAG_loop_range
    1065                            .dwattr DW$72, DW_AT_low_pc(DW$L$_copy_enroll_result$10$B)
    1066                            .dwattr DW$72, DW_AT_high_pc(DW$L$_copy_enroll_result$10$E)
    1067                            .dwendtag DW$68
    1068                    
    1069                            .dwattr DW$48, DW_AT_end_file("proc_result_v2.c")
    1070                            .dwattr DW$48, DW_AT_end_line(0xcb)
    1071                            .dwattr DW$48, DW_AT_end_column(0x01)
    1072                            .dwendentry
    1073                            .dwendtag DW$48
    1074                    
    1075 000007e8                   .sect   ".text"
    1076                            .global _SetEnrollResult
    1077                    
    1078                    DW$73   .dwtag  DW_TAG_subprogram, DW_AT_name("SetEnrollResult"), DW_AT_symbol_name("_SetEnrollResult"
    1079                            .dwattr DW$73, DW_AT_low_pc(_SetEnrollResult)
    1080                            .dwattr DW$73, DW_AT_high_pc(0x00)
    1081                            .dwattr DW$73, DW_AT_begin_file("proc_result_v2.c")
    1082                            .dwattr DW$73, DW_AT_begin_line(0xce)
    1083                            .dwattr DW$73, DW_AT_begin_column(0x06)
    1084                            .dwpsn  "proc_result_v2.c",207,1
    1085                    
    1086                            .dwfde DW$CIE
    1087                    
    1088                    ;******************************************************************************
    1089                    ;* FUNCTION NAME: _SetEnrollResult                                            *
    1090                    ;*                                                                            *
    1091                    ;*   Regs Modified     : A0,A1,A2,A3,A4,A5,A6,A7,A8,A9,B0,B1,B2,B3,B4,B5,B6,  *
    1092                    ;*                           B7,B8,B9,SP,A16,A17,A18,A19,A20,A21,A22,A23,A24, *
    1093                    ;*                           A25,A26,A27,A28,A29,A30,A31,B16,B17,B18,B19,B20, *
    1094                    ;*                           B21,B22,B23,B24,B25,B26,B27,B28,B29,B30,B31      *
    1095                    ;*   Regs Used         : A0,A1,A2,A3,A4,A5,A6,A7,A8,A9,B0,B1,B2,B3,B4,B5,B6,  *
    1096                    ;*                           B7,B8,B9,SP,A16,A17,A18,A19,A20,A21,A22,A23,A24, *
    1097                    ;*                           A25,A26,A27,A28,A29,A30,A31,B16,B17,B18,B19,B20, *
    1098                    ;*                           B21,B22,B23,B24,B25,B26,B27,B28,B29,B30,B31      *
    1099                    ;*   Local Frame Size  : 0 Args + 24 Auto + 4 Save = 28 byte                  *
    1100                    ;******************************************************************************
TMS320C6x COFF Assembler PC v5.1.0 Thu Mar 31 17:05:45 2011

Tools Copyright (c) 1996-2005 Texas Instruments Incorporated
C:\Users\ADMINI~1\AppData\Local\Temp\TI8242                          PAGE   21

    1101                    _SetEnrollResult:
    1102                    ;** --------------------------------------------------------------------------*
    1103                            .dwcfa  0x0e, 0
    1104                            .dwcfa  0x09, 126, 19
    1105 000007e8 01BD14F6             STW     .D2T2   B3,*SP--(32)      ; |207| 
    1106 000007ec 00002000             NOP             2
    1107                            .dwcfa  0x0e, 32
    1108                            .dwcfa  0x80, 19, 0
    1109                    DW$74   .dwtag  DW_TAG_formal_parameter, DW_AT_name("procimg_reg"), DW_AT_symbol_name("_procimg_reg")
    1110                            .dwattr DW$74, DW_AT_type(*DW$T$114)
    1111                            .dwattr DW$74, DW_AT_location[DW_OP_reg4]
    1112                    DW$75   .dwtag  DW_TAG_variable, DW_AT_name("procimg_reg"), DW_AT_symbol_name("_procimg_reg")
    1113                            .dwattr DW$75, DW_AT_type(*DW$T$114)
    1114                            .dwattr DW$75, DW_AT_location[DW_OP_breg31 4]
    1115                    DW$76   .dwtag  DW_TAG_variable, DW_AT_name("addr"), DW_AT_symbol_name("_addr")
    1116                            .dwattr DW$76, DW_AT_type(*DW$T$103)
    1117                            .dwattr DW$76, DW_AT_location[DW_OP_breg31 8]
    1118                    DW$77   .dwtag  DW_TAG_variable, DW_AT_name("addr_end"), DW_AT_symbol_name("_addr_end")
    1119                            .dwattr DW$77, DW_AT_type(*DW$T$103)
    1120                            .dwattr DW$77, DW_AT_location[DW_OP_breg31 12]
    1121                    DW$78   .dwtag  DW_TAG_variable, DW_AT_name("left_count"), DW_AT_symbol_name("_left_count")
    1122                            .dwattr DW$78, DW_AT_type(*DW$T$10)
    1123                            .dwattr DW$78, DW_AT_location[DW_OP_breg31 16]
    1124                    DW$79   .dwtag  DW_TAG_variable, DW_AT_name("right_count"), DW_AT_symbol_name("_right_count")
    1125                            .dwattr DW$79, DW_AT_type(*DW$T$10)
    1126                            .dwattr DW$79, DW_AT_location[DW_OP_breg31 20]
    1127                    DW$80   .dwtag  DW_TAG_variable, DW_AT_name("send_enroll_result"), DW_AT_symbol_name("_send_enroll_res
    1128                            .dwattr DW$80, DW_AT_type(*DW$T$141)
    1129                            .dwattr DW$80, DW_AT_location[DW_OP_breg31 24]
    1130 000007f0 023C22F4             STW     .D2T1   A4,*+SP(4)        ; |207| 
    1131 000007f4 00002000             NOP             2
    1132                            .dwpsn  "proc_result_v2.c",209,7
    1133 000007f8 0180A358             ZERO    .L1     A3                ; |209| 
    1134 000007fc 01BC82F4             STW     .D2T1   A3,*+SP(16)       ; |209| 
    1135 00000800 00002000             NOP             2
    1136                            .dwpsn  "proc_result_v2.c",209,21
    1137 00000804 01BCA2F4             STW     .D2T1   A3,*+SP(20)       ; |209| 
    1138 00000808 00002000             NOP             2
    1139                            .dwpsn  "proc_result_v2.c",210,24
    1140 0000080c 0200A35A             ZERO    .L2     B4                ; |210| 
    1141 00000810 023CC2F6             STW     .D2T2   B4,*+SP(24)       ; |210| 
    1142 00000814 00002000             NOP             2
    1143                            .dwpsn  "proc_result_v2.c",212,2
    1144 00000818 01BC42F4             STW     .D2T1   A3,*+SP(8)        ; |212| 
    1145 0000081c 00002000             NOP             2
    1146                            .dwpsn  "proc_result_v2.c",213,2
    1147 00000820 01BC62F4             STW     .D2T1   A3,*+SP(12)       ; |213| 
    1148 00000824 00002000             NOP             2
    1149                            .dwpsn  "proc_result_v2.c",216,2
    1150 00000828 0200002A!            MVKL    .S2     _tsk_used_reg,B4  ; |216| 
    1151 0000082c 0200006A!            MVKH    .S2     _tsk_used_reg,B4  ; |216| 
    1152 00000830 021002E6             LDW     .D2T2   *B4,B4            ; |216| 
    1153 00000834 00004000             NOP             3
    1154 00000838 0284A35A             MVK     .L2     1,B5              ; |216| 
    1155 0000083c 029202F6             STW     .D2T2   B5,*+B4(64)       ; |216| 
TMS320C6x COFF Assembler PC v5.1.0 Thu Mar 31 17:05:45 2011

Tools Copyright (c) 1996-2005 Texas Instruments Incorporated
C:\Users\ADMINI~1\AppData\Local\Temp\TI8242                          PAGE   22

    1156 00000840 00002000             NOP             2
    1157                            .dwpsn  "proc_result_v2.c",217,2
    1158 00000844 01801E28!            MVKL    .S1     _dsp_used_reg+60,A3 ; |217| 
    1159                    
    1160 00000848 01800069!            MVKH    .S1     _dsp_used_reg+60,A3 ; |217| 
    1161 0000084c 0200002A! ||         MVKL    .S2     _tsk_used_reg,B4  ; |217| 
    1162                    
    1163 00000850 020C0205             LDHU    .D1T1   *A3,A4            ; |217| 
    1164 00000854 0200006A! ||         MVKH    .S2     _tsk_used_reg,B4  ; |217| 
    1165                    
    1166 00000858 019002E4             LDW     .D2T1   *B4,A3            ; |217| 
    1167 0000085c 00006000             NOP             4
    1168 00000860 020F8254             STH     .D1T1   A4,*+A3(56)       ; |217| 
    1169 00000864 00002000             NOP             2
    1170                            .dwpsn  "proc_result_v2.c",218,2
    1171 00000868 0200002A!            MVKL    .S2     _tsk_used_reg,B4  ; |218| 
    1172                    
    1173 0000086c 01801F29!            MVKL    .S1     _dsp_used_reg+62,A3 ; |218| 
    1174 00000870 0200006A! ||         MVKH    .S2     _tsk_used_reg,B4  ; |218| 
    1175                    
    1176 00000874 021002E7             LDW     .D2T2   *B4,B4            ; |218| 
    1177 00000878 01800068! ||         MVKH    .S1     _dsp_used_reg+62,A3 ; |218| 
    1178                    
    1179 0000087c 028C0206             LDHU    .D1T2   *A3,B5            ; |218| 
    1180 00000880 00006000             NOP             4
    1181 00000884 0293A2D6             STH     .D2T2   B5,*+B4(58)       ; |218| 
    1182 00000888 00002000             NOP             2
    1183                            .dwpsn  "proc_result_v2.c",219,2
    1184                    
    1185 0000088c 0200002B!            MVKL    .S2     _tsk_used_reg,B4  ; |219| 
    1186 00000890 01802028! ||         MVKL    .S1     _dsp_used_reg+64,A3 ; |219| 
    1187                    
    1188 00000894 0200006B!            MVKH    .S2     _tsk_used_reg,B4  ; |219| 
    1189 00000898 01800068! ||         MVKH    .S1     _dsp_used_reg+64,A3 ; |219| 
    1190                    
    1191 0000089c 021002E7             LDW     .D2T2   *B4,B4            ; |219| 
    1192 000008a0 018C0204  ||         LDHU    .D1T1   *A3,A3            ; |219| 
    1193                    
    1194 000008a4 00006000             NOP             4
    1195 000008a8 0193C2D4             STH     .D2T1   A3,*+B4(60)       ; |219| 
    1196 000008ac 00002000             NOP             2
    1197                            .dwpsn  "proc_result_v2.c",220,2
    1198                    
    1199 000008b0 01802129!            MVKL    .S1     _dsp_used_reg+66,A3 ; |220| 
    1200 000008b4 0200002A! ||         MVKL    .S2     _tsk_used_reg,B4  ; |220| 
    1201                    
    1202 000008b8 01800069!            MVKH    .S1     _dsp_used_reg+66,A3 ; |220| 
    1203 000008bc 0200006A! ||         MVKH    .S2     _tsk_used_reg,B4  ; |220| 
    1204                    
    1205 000008c0 018C0205             LDHU    .D1T1   *A3,A3            ; |220| 
    1206 000008c4 021002E6  ||         LDW     .D2T2   *B4,B4            ; |220| 
    1207                    
    1208 000008c8 00006000             NOP             4
    1209 000008cc 0193E2D4             STH     .D2T1   A3,*+B4(62)       ; |220| 
    1210 000008d0 00002000             NOP             2
TMS320C6x COFF Assembler PC v5.1.0 Thu Mar 31 17:05:45 2011

Tools Copyright (c) 1996-2005 Texas Instruments Incorporated
C:\Users\ADMINI~1\AppData\Local\Temp\TI8242                          PAGE   23

    1211                            .dwpsn  "proc_result_v2.c",223,2
    1212 000008d4 023C22E6             LDW     .D2T2   *+SP(4),B4        ; |223| 
    1213 000008d8 00000000             NOP             1
    1214 000008dc 01800028!            MVKL    .S1     _tsk_used_reg,A3  ; |223| 
    1215 000008e0 01800068!            MVKH    .S1     _tsk_used_reg,A3  ; |223| 
    1216 000008e4 018C0264             LDW     .D1T1   *A3,A3            ; |223| 
    1217 000008e8 0210C2E6             LDW     .D2T2   *+B4(24),B4       ; |223| 
    1218 000008ec 00006000             NOP             4
    1219 000008f0 020E2276             STW     .D1T2   B4,*+A3(68)       ; |223| 
    1220 000008f4 00002000             NOP             2
    1221                            .dwpsn  "proc_result_v2.c",226,2
    1222                    
    1223 000008f8 01803629!            MVKL    .S1     _dsp_used_reg+108,A3 ; |226| 
    1224 000008fc 02001F2A! ||         MVKL    .S2     _dsp_used_reg+62,B4 ; |226| 
    1225                    
    1226 00000900 01800069!            MVKH    .S1     _dsp_used_reg+108,A3 ; |226| 
    1227 00000904 0200006A! ||         MVKH    .S2     _dsp_used_reg+62,B4 ; |226| 
    1228                    
    1229 00000908 018C0245             LDH     .D1T1   *A3,A3            ; |226| 
    1230 0000090c 02100286  ||         LDHU    .D2T2   *B4,B4            ; |226| 
    1231                    
    1232 00000910 00006000             NOP             4
    1233 00000914 000C98FA             CMPLT   .L2X    A3,B4,B0          ; |226| 
    1234 00000918 200CA120     [ B0]   BNOP    .S1     L13,5             ; |226| 
    1235                               ; BRANCHCC OCCURS {L13}           ; |226| 
    1236                    ;** --------------------------------------------------------------------------*
    1237                            .dwpsn  "proc_result_v2.c",227,3
    1238 0000091c 01801F28!            MVKL    .S1     _dsp_used_reg+62,A3 ; |227| 
    1239 00000920 01800068!            MVKH    .S1     _dsp_used_reg+62,A3 ; |227| 
    1240 00000924 018C0204             LDHU    .D1T1   *A3,A3            ; |227| 
    1241 00000928 00006000             NOP             4
    1242 0000092c 01BC82F4             STW     .D2T1   A3,*+SP(16)       ; |227| 
    1243                    ;** --------------------------------------------------------------------------*
    1244                    L13:    
    1245                            .dwpsn  "proc_result_v2.c",229,2
    1246                    
    1247 00000930 0200372B!            MVKL    .S2     _dsp_used_reg+110,B4 ; |229| 
    1248 00000934 01801F28! ||         MVKL    .S1     _dsp_used_reg+62,A3 ; |229| 
    1249                    
    1250 00000938 0200006B!            MVKH    .S2     _dsp_used_reg+110,B4 ; |229| 
    1251 0000093c 01800068! ||         MVKH    .S1     _dsp_used_reg+62,A3 ; |229| 
    1252                    
    1253 00000940 021002C7             LDH     .D2T2   *B4,B4            ; |229| 
    1254 00000944 018C0204  ||         LDHU    .D1T1   *A3,A3            ; |229| 
    1255                    
    1256 00000948 00006000             NOP             4
    1257 0000094c 001078F8             CMPLT   .L1X    B4,A3,A0          ; |229| 
    1258 00000950 C00AA120     [ A0]   BNOP    .S1     L14,5             ; |229| 
    1259                               ; BRANCHCC OCCURS {L14}           ; |229| 
    1260                    ;** --------------------------------------------------------------------------*
    1261                            .dwpsn  "proc_result_v2.c",230,3
    1262 00000954 01801F28!            MVKL    .S1     _dsp_used_reg+62,A3 ; |230| 
    1263 00000958 01800068!            MVKH    .S1     _dsp_used_reg+62,A3 ; |230| 
    1264 0000095c 018C0204             LDHU    .D1T1   *A3,A3            ; |230| 
    1265 00000960 00006000             NOP             4
TMS320C6x COFF Assembler PC v5.1.0 Thu Mar 31 17:05:45 2011

Tools Copyright (c) 1996-2005 Texas Instruments Incorporated
C:\Users\ADMINI~1\AppData\Local\Temp\TI8242                          PAGE   24

    1266 00000964 01BCA2F4             STW     .D2T1   A3,*+SP(20)       ; |230| 
    1267                    ;** --------------------------------------------------------------------------*
    1268                    L14:    
    1269                            .dwpsn  "proc_result_v2.c",232,2
    1270 00000968 023C82E6             LDW     .D2T2   *+SP(16),B4       ; |232| 
    1271 0000096c 02BCA2E6             LDW     .D2T2   *+SP(20),B5       ; |232| 
    1272 00000970 00006000             NOP             4
    1273 00000974 0210A07A             ADD     .L2     B5,B4,B4          ; |232| 
    1274 00000978 00100ADA             CMPGT   .L2     B4,0,B0           ; |232| 
    1275 0000097c 301FA120     [!B0]   BNOP    .S1     L15,5             ; |232| 
    1276                               ; BRANCHCC OCCURS {L15}           ; |232| 
    1277                    ;** --------------------------------------------------------------------------*
    1278                            .dwpsn  "proc_result_v2.c",234,3
    1279 00000980 0200002A!            MVKL    .S2     _ENROLL_RESULT_ADDR,B4 ; |234| 
    1280 00000984 0200006A!            MVKH    .S2     _ENROLL_RESULT_ADDR,B4 ; |234| 
    1281 00000988 019002E4             LDW     .D2T1   *B4,A3            ; |234| 
    1282 0000098c 00006000             NOP             4
    1283 00000990 01BC42F4             STW     .D2T1   A3,*+SP(8)        ; |234| 
    1284 00000994 00002000             NOP             2
    1285                            .dwpsn  "proc_result_v2.c",235,3
    1286 00000998 0FFED010!            CALL    .S1     _addr_align       ; |235| 
    1287 0000099c 018A4162             ADDKPC  .S2     RL22,B3,2         ; |235| 
    1288 000009a0 0200A35A             ZERO    .L2     B4                ; |235| 
    1289 000009a4 023D1058             ADD     .L1X    8,SP,A4           ; |235| 
    1290                    RL22:      ; CALL OCCURS {_addr_align}       ; |235| 
    1291                            .dwpsn  "proc_result_v2.c",236,3
    1292 000009a8 01800028!            MVKL    .S1     _tsk_used_reg,A3  ; |236| 
    1293 000009ac 01800068!            MVKH    .S1     _tsk_used_reg,A3  ; |236| 
    1294                    
    1295 000009b0 018C0265             LDW     .D1T1   *A3,A3            ; |236| 
    1296 000009b4 023C42E6  ||         LDW     .D2T2   *+SP(8),B4        ; |236| 
    1297                    
    1298 000009b8 00006000             NOP             4
    1299 000009bc 020E8276             STW     .D1T2   B4,*+A3(80)       ; |236| 
    1300 000009c0 00002000             NOP             2
    1301                            .dwpsn  "proc_result_v2.c",239,3
    1302 000009c4 023C42E6             LDW     .D2T2   *+SP(8),B4        ; |239| 
    1303 000009c8 00006000             NOP             4
    1304 000009cc 023CC2F6             STW     .D2T2   B4,*+SP(24)       ; |239| 
    1305 000009d0 00002000             NOP             2
    1306                            .dwpsn  "proc_result_v2.c",241,3
    1307 000009d4 0211805A             ADD     .L2     12,B4,B4          ; |241| 
    1308 000009d8 023C42F6             STW     .D2T2   B4,*+SP(8)        ; |241| 
    1309                    ;** --------------------------------------------------------------------------*
    1310                    L15:    
    1311                            .dwpsn  "proc_result_v2.c",244,2
    1312 000009dc 01800128!            MVKL    .S1     _dsp_used_reg+2,A3 ; |244| 
    1313 000009e0 01800068!            MVKH    .S1     _dsp_used_reg+2,A3 ; |244| 
    1314 000009e4 018C0204             LDHU    .D1T1   *A3,A3            ; |244| 
    1315 000009e8 00004000             NOP             3
    1316 000009ec 0280202A!            MVKL    .S2     _dsp_used_reg+64,B5 ; |244| 
    1317 000009f0 000C8A58             CMPEQ   .L1     A3,4,A0           ; |244| 
    1318 000009f4 D00B6120     [!A0]   BNOP    .S1     L16,3             ; |244| 
    1319 000009f8 02001FDA             MV      .L2X    A0,B4             ; |244| 
    1320 000009fc 0280006A!            MVKH    .S2     _dsp_used_reg+64,B5 ; |244| 
TMS320C6x COFF Assembler PC v5.1.0 Thu Mar 31 17:05:45 2011

Tools Copyright (c) 1996-2005 Texas Instruments Incorporated
C:\Users\ADMINI~1\AppData\Local\Temp\TI8242                          PAGE   25

    1321                               ; BRANCHCC OCCURS {L16}           ; |244| 
    1322                    ;** --------------------------------------------------------------------------*
    1323 00000a00 02140286             LDHU    .D2T2   *B5,B4            ; |244| 
    1324 00000a04 00006000             NOP             4
    1325 00000a08 02100A5A             CMPEQ   .L2     B4,0,B4           ; |244| 
    1326                    ;** --------------------------------------------------------------------------*
    1327 00000a0c           L16:    
    1328 00000a0c 00101FD8             MV      .L1X    B4,A0             ; |244| 
    1329 00000a10 D009A120     [!A0]   BNOP    .S1     L17,5             ; |244| 
    1330                               ; BRANCHCC OCCURS {L17}           ; |244| 
    1331                    ;** --------------------------------------------------------------------------*
    1332                            .dwpsn  "proc_result_v2.c",249,3
    1333 00000a14 0FFEC010!            CALL    .S1     _IdenAfterEnroll  ; |249| 
    1334 00000a18 023C22E4             LDW     .D2T1   *+SP(4),A4        ; |249| 
    1335 00000a1c 01886162             ADDKPC  .S2     RL23,B3,3         ; |249| 
    1336                    RL23:      ; CALL OCCURS {_IdenAfterEnroll}  ; |249| 
    1337                            .dwpsn  "proc_result_v2.c",252,2
    1338 00000a20 0065A120             BNOP    .S1     L21,5             ; |252| 
    1339                               ; BRANCH OCCURS {L21}             ; |252| 
    1340                    ;** --------------------------------------------------------------------------*
    1341                    L17:    
    1342                            .dwpsn  "proc_result_v2.c",257,3
    1343 00000a24 0200002A!            MVKL    .S2     _tsk_used_reg,B4  ; |257| 
    1344 00000a28 0200006A!            MVKH    .S2     _tsk_used_reg,B4  ; |257| 
    1345 00000a2c 021002E6             LDW     .D2T2   *B4,B4            ; |257| 
    1346 00000a30 00004000             NOP             3
    1347 00000a34 02F8A35A             MVK     .L2     -2,B5             ; |257| 
    1348 00000a38 029242F6             STW     .D2T2   B5,*+B4(72)       ; |257| 
    1349 00000a3c 00002000             NOP             2
    1350                            .dwpsn  "proc_result_v2.c",258,3
    1351 00000a40 01800028!            MVKL    .S1     _tsk_used_reg,A3  ; |258| 
    1352 00000a44 01800068!            MVKH    .S1     _tsk_used_reg,A3  ; |258| 
    1353 00000a48 018C0264             LDW     .D1T1   *A3,A3            ; |258| 
    1354 00000a4c 00004000             NOP             3
    1355 00000a50 0278A358             MVK     .L1     -2,A4             ; |258| 
    1356 00000a54 020E6274             STW     .D1T1   A4,*+A3(76)       ; |258| 
    1357 00000a58 00002000             NOP             2
    1358                            .dwpsn  "proc_result_v2.c",260,3
    1359 00000a5c 01800128!            MVKL    .S1     _dsp_used_reg+2,A3 ; |260| 
    1360                    
    1361 00000a60 01800069!            MVKH    .S1     _dsp_used_reg+2,A3 ; |260| 
    1362 00000a64 0200202A  ||         MVK     .S2     64,B4             ; |260| 
    1363                    
    1364 00000a68 020C0256             STH     .D1T2   B4,*A3            ; |260| 
    1365 00000a6c 00002000             NOP             2
    1366                            .dwpsn  "proc_result_v2.c",262,3
    1367 00000a70 003C42E6             LDW     .D2T2   *+SP(8),B0        ; |262| 
    1368 00000a74 00006000             NOP             4
    1369 00000a78 300BA120     [!B0]   BNOP    .S1     L18,5             ; |262| 
    1370                               ; BRANCHCC OCCURS {L18}           ; |262| 
    1371                    ;** --------------------------------------------------------------------------*
    1372                            .dwpsn  "proc_result_v2.c",263,5
    1373 00000a7c 0FFF3B10             CALL    .S1     _copy_enroll_result ; |263| 
    1374 00000a80 01834162             ADDKPC  .S2     RL24,B3,2         ; |263| 
    1375 00000a84 023D805A             ADD     .L2     12,SP,B4          ; |263| 
TMS320C6x COFF Assembler PC v5.1.0 Thu Mar 31 17:05:45 2011

Tools Copyright (c) 1996-2005 Texas Instruments Incorporated
C:\Users\ADMINI~1\AppData\Local\Temp\TI8242                          PAGE   26

    1376 00000a88 023D1058             ADD     .L1X    8,SP,A4           ; |263| 
    1377                    RL24:      ; CALL OCCURS {_copy_enroll_result}  ; |263| 
    1378                    ;** --------------------------------------------------------------------------*
    1379                    L18:    
    1380                            .dwpsn  "proc_result_v2.c",266,3
    1381 00000a8c 023CC2E6             LDW     .D2T2   *+SP(24),B4       ; |266| 
    1382 00000a90 00004000             NOP             3
    1383 00000a94 0280A35A             ZERO    .L2     B5                ; |266| 
    1384 00000a98 029002F6             STW     .D2T2   B5,*B4            ; |266| 
    1385 00000a9c 00002000             NOP             2
    1386                            .dwpsn  "proc_result_v2.c",267,3
    1387 00000aa0 01801F28!            MVKL    .S1     _dsp_used_reg+62,A3 ; |267| 
    1388 00000aa4 01800068!            MVKH    .S1     _dsp_used_reg+62,A3 ; |267| 
    1389                    
    1390 00000aa8 018C0205             LDHU    .D1T1   *A3,A3            ; |267| 
    1391 00000aac 023C82E6  ||         LDW     .D2T2   *+SP(16),B4       ; |267| 
    1392                    
    1393 00000ab0 00006000             NOP             4
    1394 00000ab4 000C9AFA             CMPLT   .L2X    B4,A3,B0          ; |267| 
    1395 00000ab8 2010A120     [ B0]   BNOP    .S1     L19,5             ; |267| 
    1396                               ; BRANCHCC OCCURS {L19}           ; |267| 
    1397                    ;** --------------------------------------------------------------------------*
    1398                            .dwpsn  "proc_result_v2.c",268,4
    1399 00000abc 023CC2E6             LDW     .D2T2   *+SP(24),B4       ; |268| 
    1400 00000ac0 00000000             NOP             1
    1401 00000ac4 01801F28!            MVKL    .S1     _dsp_used_reg+62,A3 ; |268| 
    1402 00000ac8 01800068!            MVKH    .S1     _dsp_used_reg+62,A3 ; |268| 
    1403 00000acc 018C0204             LDHU    .D1T1   *A3,A3            ; |268| 
    1404 00000ad0 029002E6             LDW     .D2T2   *B4,B5            ; |268| 
    1405 00000ad4 00006000             NOP             4
    1406 00000ad8 028CB07A             ADD     .L2X    A3,B5,B5          ; |268| 
    1407 00000adc 029002F6             STW     .D2T2   B5,*B4            ; |268| 
    1408                    ;** --------------------------------------------------------------------------*
    1409                    L19:    
    1410                            .dwpsn  "proc_result_v2.c",269,3
    1411 00000ae0 01801F28!            MVKL    .S1     _dsp_used_reg+62,A3 ; |269| 
    1412 00000ae4 01800068!            MVKH    .S1     _dsp_used_reg+62,A3 ; |269| 
    1413                    
    1414 00000ae8 018C0205             LDHU    .D1T1   *A3,A3            ; |269| 
    1415 00000aec 023CA2E6  ||         LDW     .D2T2   *+SP(20),B4       ; |269| 
    1416                    
    1417 00000af0 00006000             NOP             4
    1418 00000af4 000C9AFA             CMPLT   .L2X    B4,A3,B0          ; |269| 
    1419 00000af8 2010A120     [ B0]   BNOP    .S1     L20,5             ; |269| 
    1420                               ; BRANCHCC OCCURS {L20}           ; |269| 
    1421                    ;** --------------------------------------------------------------------------*
    1422                            .dwpsn  "proc_result_v2.c",270,4
    1423 00000afc 023CC2E6             LDW     .D2T2   *+SP(24),B4       ; |270| 
    1424 00000b00 00000000             NOP             1
    1425 00000b04 01801F28!            MVKL    .S1     _dsp_used_reg+62,A3 ; |270| 
    1426 00000b08 01800068!            MVKH    .S1     _dsp_used_reg+62,A3 ; |270| 
    1427 00000b0c 018C0204             LDHU    .D1T1   *A3,A3            ; |270| 
    1428 00000b10 029002E6             LDW     .D2T2   *B4,B5            ; |270| 
    1429 00000b14 00006000             NOP             4
    1430 00000b18 028CB07A             ADD     .L2X    A3,B5,B5          ; |270| 
TMS320C6x COFF Assembler PC v5.1.0 Thu Mar 31 17:05:45 2011

Tools Copyright (c) 1996-2005 Texas Instruments Incorporated
C:\Users\ADMINI~1\AppData\Local\Temp\TI8242                          PAGE   27

    1431 00000b1c 029002F6             STW     .D2T2   B5,*B4            ; |270| 
    1432                    ;** --------------------------------------------------------------------------*
    1433                    L20:    
    1434                            .dwpsn  "proc_result_v2.c",272,3
    1435 00000b20 023C42E6             LDW     .D2T2   *+SP(8),B4        ; |272| 
    1436 00000b24 02BC62E6             LDW     .D2T2   *+SP(12),B5       ; |272| 
    1437 00000b28 033CC2E6             LDW     .D2T2   *+SP(24),B6       ; |272| 
    1438 00000b2c 00004000             NOP             3
    1439 00000b30 0210A0FA             SUB     .L2     B5,B4,B4          ; |272| 
    1440 00000b34 021822F6             STW     .D2T2   B4,*+B6(4)        ; |272| 
    1441 00000b38 00002000             NOP             2
    1442                            .dwpsn  "proc_result_v2.c",273,3
    1443 00000b3c 023CC2E6             LDW     .D2T2   *+SP(24),B4       ; |273| 
    1444 00000b40 00002000             NOP             2
    1445 00000b44 023C42E4             LDW     .D2T1   *+SP(8),A4        ; |273| 
    1446 00000b48 0FFE9810!            CALL    .S1     _get_checksum     ; |273| 
    1447 00000b4c 021022E6             LDW     .D2T2   *+B4(4),B4        ; |273| 
    1448 00000b50 01856162             ADDKPC  .S2     RL25,B3,3         ; |273| 
    1449 00000b54           RL25:      ; CALL OCCURS {_get_checksum}     ; |273| 
    1450 00000b54 023CC2E6             LDW     .D2T2   *+SP(24),B4       ; |273| 
    1451 00000b58 00006000             NOP             4
    1452 00000b5c 021082D4             STH     .D2T1   A4,*+B4(8)        ; |273| 
    1453 00000b60 00002000             NOP             2
    1454                            .dwpsn  "proc_result_v2.c",274,3
    1455 00000b64 01BCC2E4             LDW     .D2T1   *+SP(24),A3       ; |274| 
    1456 00000b68 00004000             NOP             3
    1457 00000b6c 0208A358             MVK     .L1     2,A4              ; |274| 
    1458 00000b70 020CA254             STH     .D1T1   A4,*+A3(10)       ; |274| 
    1459 00000b74 00002000             NOP             2
    1460                            .dwpsn  "proc_result_v2.c",276,3
    1461 00000b78 0280002A!            MVKL    .S2     _CACHE_flush,B5   ; |276| 
    1462 00000b7c 0280006A!            MVKH    .S2     _CACHE_flush,B5   ; |276| 
    1463 00000b80 00140362             CALL    .S2     B5                ; |276| 
    1464 00000b84 01852162             ADDKPC  .S2     RL26,B3,1         ; |276| 
    1465 00000b88 0200A35A             ZERO    .L2     B4                ; |276| 
    1466 00000b8c 0204A358             MVK     .L1     0x1,A4            ; |276| 
    1467 00000b90 03000028             ZERO    .S1     A6                ; |276| 
    1468                    RL26:      ; CALL OCCURS {_CACHE_flush}      ; |276| 
    1469                            .dwpsn  "proc_result_v2.c",278,3
    1470 00000b94 01800028!            MVKL    .S1     _tsk_used_reg,A3  ; |278| 
    1471 00000b98 01800068!            MVKH    .S1     _tsk_used_reg,A3  ; |278| 
    1472 00000b9c 020C0264             LDW     .D1T1   *A3,A4            ; |278| 
    1473 00000ba0 00000000             NOP             1
    1474 00000ba4 0F84A358             MVK     .L1     1,A31             ; |278| 
    1475 00000ba8 00002000             NOP             2
    1476 00000bac 0F91A274             STW     .D1T1   A31,*+A4(52)      ; |278| 
    1477 00000bb0 00000000             NOP             1
    1478                            .dwpsn  "proc_result_v2.c",280,2
    1479                    ;** --------------------------------------------------------------------------*
    1480                    L21:    
    1481                            .dwpsn  "proc_result_v2.c",282,1
    1482 00000bb4 01BD12E6             LDW     .D2T2   *++SP(32),B3      ; |282| 
    1483 00000bb8 00006000             NOP             4
    1484                            .dwcfa  0xc0, 19
    1485                            .dwcfa  0x0e, 0
TMS320C6x COFF Assembler PC v5.1.0 Thu Mar 31 17:05:45 2011

Tools Copyright (c) 1996-2005 Texas Instruments Incorporated
C:\Users\ADMINI~1\AppData\Local\Temp\TI8242                          PAGE   28

    1486 00000bbc 008CA362             RETNOP  .S2     B3,5              ; |282| 
    1487                               ; BRANCH OCCURS {B3}              ; |282| 
    1488                            .dwattr DW$73, DW_AT_end_file("proc_result_v2.c")
    1489                            .dwattr DW$73, DW_AT_end_line(0x11a)
    1490                            .dwattr DW$73, DW_AT_end_column(0x01)
    1491                            .dwendentry
    1492                            .dwendtag DW$73
    1493                    
    1494 00000bc0                   .sect   ".text"
    1495                            .global _ProcessEnrollIdenResult
    1496                    
    1497                    DW$81   .dwtag  DW_TAG_subprogram, DW_AT_name("ProcessEnrollIdenResult"), DW_AT_symbol_name("_ProcessE
    1498                            .dwattr DW$81, DW_AT_low_pc(_ProcessEnrollIdenResult)
    1499                            .dwattr DW$81, DW_AT_high_pc(0x00)
    1500                            .dwattr DW$81, DW_AT_begin_file("proc_result_v2.c")
    1501                            .dwattr DW$81, DW_AT_begin_line(0x121)
    1502                            .dwattr DW$81, DW_AT_begin_column(0x06)
    1503                            .dwpsn  "proc_result_v2.c",290,1
    1504                    
    1505                            .dwfde DW$CIE
    1506                    
    1507                    ;******************************************************************************
    1508                    ;* FUNCTION NAME: _ProcessEnrollIdenResult                                    *
    1509                    ;*                                                                            *
    1510                    ;*   Regs Modified     : A0,A1,A2,A3,A4,A5,A6,A7,A8,A9,B0,B1,B2,B3,B4,B5,B6,  *
    1511                    ;*                           B7,B8,B9,SP,A16,A17,A18,A19,A20,A21,A22,A23,A24, *
    1512                    ;*                           A25,A26,A27,A28,A29,A30,A31,B16,B17,B18,B19,B20, *
    1513                    ;*                           B21,B22,B23,B24,B25,B26,B27,B28,B29,B30,B31      *
    1514                    ;*   Regs Used         : A0,A1,A2,A3,A4,A5,A6,A7,A8,A9,B0,B1,B2,B3,B4,B5,B6,  *
    1515                    ;*                           B7,B8,B9,SP,A16,A17,A18,A19,A20,A21,A22,A23,A24, *
    1516                    ;*                           A25,A26,A27,A28,A29,A30,A31,B16,B17,B18,B19,B20, *
    1517                    ;*                           B21,B22,B23,B24,B25,B26,B27,B28,B29,B30,B31      *
    1518                    ;*   Local Frame Size  : 0 Args + 24 Auto + 4 Save = 28 byte                  *
    1519                    ;******************************************************************************
    1520                    _ProcessEnrollIdenResult:
    1521                    ;** --------------------------------------------------------------------------*
    1522                            .dwcfa  0x0e, 0
    1523                            .dwcfa  0x09, 126, 19
    1524 00000bc0 01BD14F6             STW     .D2T2   B3,*SP--(32)      ; |290| 
    1525 00000bc4 00002000             NOP             2
    1526                            .dwcfa  0x0e, 32
    1527                            .dwcfa  0x80, 19, 0
    1528                    DW$82   .dwtag  DW_TAG_formal_parameter, DW_AT_name("procimg_reg"), DW_AT_symbol_name("_procimg_reg")
    1529                            .dwattr DW$82, DW_AT_type(*DW$T$114)
    1530                            .dwattr DW$82, DW_AT_location[DW_OP_reg4]
    1531                    DW$83   .dwtag  DW_TAG_variable, DW_AT_name("procimg_reg"), DW_AT_symbol_name("_procimg_reg")
    1532                            .dwattr DW$83, DW_AT_type(*DW$T$114)
    1533                            .dwattr DW$83, DW_AT_location[DW_OP_breg31 4]
    1534                    DW$84   .dwtag  DW_TAG_variable, DW_AT_name("addr"), DW_AT_symbol_name("_addr")
    1535                            .dwattr DW$84, DW_AT_type(*DW$T$103)
    1536                            .dwattr DW$84, DW_AT_location[DW_OP_breg31 8]
    1537                    DW$85   .dwtag  DW_TAG_variable, DW_AT_name("addr_end"), DW_AT_symbol_name("_addr_end")
    1538                            .dwattr DW$85, DW_AT_type(*DW$T$103)
    1539                            .dwattr DW$85, DW_AT_location[DW_OP_breg31 12]
    1540                    DW$86   .dwtag  DW_TAG_variable, DW_AT_name("left_count"), DW_AT_symbol_name("_left_count")
TMS320C6x COFF Assembler PC v5.1.0 Thu Mar 31 17:05:45 2011

Tools Copyright (c) 1996-2005 Texas Instruments Incorporated
C:\Users\ADMINI~1\AppData\Local\Temp\TI8242                          PAGE   29

    1541                            .dwattr DW$86, DW_AT_type(*DW$T$129)
    1542                            .dwattr DW$86, DW_AT_location[DW_OP_breg31 16]
    1543                    DW$87   .dwtag  DW_TAG_variable, DW_AT_name("right_count"), DW_AT_symbol_name("_right_count")
    1544                            .dwattr DW$87, DW_AT_type(*DW$T$129)
    1545                            .dwattr DW$87, DW_AT_location[DW_OP_breg31 20]
    1546                    DW$88   .dwtag  DW_TAG_variable, DW_AT_name("send_enroll_result"), DW_AT_symbol_name("_send_enroll_res
    1547                            .dwattr DW$88, DW_AT_type(*DW$T$141)
    1548                            .dwattr DW$88, DW_AT_location[DW_OP_breg31 24]
    1549 00000bc8 023C22F4             STW     .D2T1   A4,*+SP(4)        ; |290| 
    1550 00000bcc 00002000             NOP             2
    1551                            .dwpsn  "proc_result_v2.c",293,24
    1552 00000bd0 0180A358             ZERO    .L1     A3                ; |293| 
    1553 00000bd4 01BCC2F4             STW     .D2T1   A3,*+SP(24)       ; |293| 
    1554 00000bd8 00002000             NOP             2
    1555                            .dwpsn  "proc_result_v2.c",295,2
    1556 00000bdc 01800028!            MVKL    .S1     _ENROLL_RESULT_ADDR,A3 ; |295| 
    1557 00000be0 01800068!            MVKH    .S1     _ENROLL_RESULT_ADDR,A3 ; |295| 
    1558 00000be4 018C0264             LDW     .D1T1   *A3,A3            ; |295| 
    1559 00000be8 00006000             NOP             4
    1560 00000bec 01BC42F4             STW     .D2T1   A3,*+SP(8)        ; |295| 
    1561 00000bf0 00002000             NOP             2
    1562                            .dwpsn  "proc_result_v2.c",296,2
    1563 00000bf4 0FFE8410!            CALL    .S1     _addr_align       ; |296| 
    1564 00000bf8 01894162             ADDKPC  .S2     RL27,B3,2         ; |296| 
    1565 00000bfc 023D1058             ADD     .L1X    8,SP,A4           ; |296| 
    1566 00000c00 0200A35A             ZERO    .L2     B4                ; |296| 
    1567                    RL27:      ; CALL OCCURS {_addr_align}       ; |296| 
    1568                            .dwpsn  "proc_result_v2.c",299,2
    1569 00000c04 023C42E6             LDW     .D2T2   *+SP(8),B4        ; |299| 
    1570 00000c08 00006000             NOP             4
    1571 00000c0c 023CC2F6             STW     .D2T2   B4,*+SP(24)       ; |299| 
    1572 00000c10 00002000             NOP             2
    1573                            .dwpsn  "proc_result_v2.c",301,2
    1574 00000c14 0200362A!            MVKL    .S2     _dsp_used_reg+108,B4 ; |301| 
    1575 00000c18 0200006A!            MVKH    .S2     _dsp_used_reg+108,B4 ; |301| 
    1576 00000c1c 021002C6             LDH     .D2T2   *B4,B4            ; |301| 
    1577 00000c20 00006000             NOP             4
    1578 00000c24 023C82F6             STW     .D2T2   B4,*+SP(16)       ; |301| 
    1579 00000c28 00002000             NOP             2
    1580                            .dwpsn  "proc_result_v2.c",302,2
    1581 00000c2c 01803728!            MVKL    .S1     _dsp_used_reg+110,A3 ; |302| 
    1582 00000c30 01800068!            MVKH    .S1     _dsp_used_reg+110,A3 ; |302| 
    1583 00000c34 018C0244             LDH     .D1T1   *A3,A3            ; |302| 
    1584 00000c38 00006000             NOP             4
    1585 00000c3c 01BCA2F4             STW     .D2T1   A3,*+SP(20)       ; |302| 
    1586 00000c40 00002000             NOP             2
    1587                            .dwpsn  "proc_result_v2.c",304,2
    1588 00000c44 023CC2E6             LDW     .D2T2   *+SP(24),B4       ; |304| 
    1589 00000c48 00004000             NOP             3
    1590 00000c4c 0280A35A             ZERO    .L2     B5                ; |304| 
    1591 00000c50 029022F6             STW     .D2T2   B5,*+B4(4)        ; |304| 
    1592 00000c54 00002000             NOP             2
    1593                            .dwpsn  "proc_result_v2.c",306,2
    1594 00000c58 023C42E6             LDW     .D2T2   *+SP(8),B4        ; |306| 
    1595 00000c5c 00006000             NOP             4
TMS320C6x COFF Assembler PC v5.1.0 Thu Mar 31 17:05:45 2011

Tools Copyright (c) 1996-2005 Texas Instruments Incorporated
C:\Users\ADMINI~1\AppData\Local\Temp\TI8242                          PAGE   30

    1596 00000c60 0211805A             ADD     .L2     12,B4,B4          ; |306| 
    1597 00000c64 023C42F6             STW     .D2T2   B4,*+SP(8)        ; |306| 
    1598 00000c68 00002000             NOP             2
    1599                            .dwpsn  "proc_result_v2.c",309,2
    1600 00000c6c 023C82E6             LDW     .D2T2   *+SP(16),B4       ; |309| 
    1601 00000c70 02BCA2E6             LDW     .D2T2   *+SP(20),B5       ; |309| 
    1602 00000c74 00006000             NOP             4
    1603 00000c78 0210A07A             ADD     .L2     B5,B4,B4          ; |309| 
    1604 00000c7c 00100ADA             CMPGT   .L2     B4,0,B0           ; |309| 
    1605 00000c80 301AA120     [!B0]   BNOP    .S1     L22,5             ; |309| 
    1606                               ; BRANCHCC OCCURS {L22}           ; |309| 
    1607                    ;** --------------------------------------------------------------------------*
    1608                            .dwpsn  "proc_result_v2.c",311,3
    1609 00000c84 0FFEF710             CALL    .S1     _copy_enroll_result ; |311| 
    1610 00000c88 01854162             ADDKPC  .S2     RL28,B3,2         ; |311| 
    1611 00000c8c 023D805A             ADD     .L2     12,SP,B4          ; |311| 
    1612 00000c90 023D1058             ADD     .L1X    8,SP,A4           ; |311| 
    1613                    RL28:      ; CALL OCCURS {_copy_enroll_result}  ; |311| 
    1614                            .dwpsn  "proc_result_v2.c",313,3
    1615 00000c94 02BC62E6             LDW     .D2T2   *+SP(12),B5       ; |313| 
    1616 00000c98 023C42E6             LDW     .D2T2   *+SP(8),B4        ; |313| 
    1617 00000c9c 033CC2E6             LDW     .D2T2   *+SP(24),B6       ; |313| 
    1618 00000ca0 00004000             NOP             3
    1619 00000ca4 0210A0FA             SUB     .L2     B5,B4,B4          ; |313| 
    1620 00000ca8 021822F6             STW     .D2T2   B4,*+B6(4)        ; |313| 
    1621 00000cac 00002000             NOP             2
    1622                            .dwpsn  "proc_result_v2.c",314,3
    1623 00000cb0 023CC2E6             LDW     .D2T2   *+SP(24),B4       ; |314| 
    1624 00000cb4 00002000             NOP             2
    1625 00000cb8 023C42E4             LDW     .D2T1   *+SP(8),A4        ; |314| 
    1626 00000cbc 0FFE6C10!            CALL    .S1     _get_checksum     ; |314| 
    1627 00000cc0 021022E6             LDW     .D2T2   *+B4(4),B4        ; |314| 
    1628 00000cc4 01826162             ADDKPC  .S2     RL29,B3,3         ; |314| 
    1629 00000cc8           RL29:      ; CALL OCCURS {_get_checksum}     ; |314| 
    1630 00000cc8 023CC2E6             LDW     .D2T2   *+SP(24),B4       ; |314| 
    1631 00000ccc 00006000             NOP             4
    1632 00000cd0 021082D4             STH     .D2T1   A4,*+B4(8)        ; |314| 
    1633 00000cd4 00002000             NOP             2
    1634                            .dwpsn  "proc_result_v2.c",315,3
    1635 00000cd8 01BCC2E4             LDW     .D2T1   *+SP(24),A3       ; |315| 
    1636 00000cdc 00004000             NOP             3
    1637 00000ce0 0208A35A             MVK     .L2     2,B4              ; |315| 
    1638 00000ce4 020CA256             STH     .D1T2   B4,*+A3(10)       ; |315| 
    1639                    ;** --------------------------------------------------------------------------*
    1640                    L22:    
    1641                            .dwpsn  "proc_result_v2.c",319,2
    1642 00000ce8 023CC2E6             LDW     .D2T2   *+SP(24),B4       ; |319| 
    1643 00000cec 00004000             NOP             3
    1644 00000cf0 0280A35A             ZERO    .L2     B5                ; |319| 
    1645 00000cf4 029002F6             STW     .D2T2   B5,*B4            ; |319| 
    1646 00000cf8 00002000             NOP             2
    1647                            .dwpsn  "proc_result_v2.c",320,2
    1648 00000cfc 01801F28!            MVKL    .S1     _dsp_used_reg+62,A3 ; |320| 
    1649 00000d00 01800068!            MVKH    .S1     _dsp_used_reg+62,A3 ; |320| 
    1650                    
TMS320C6x COFF Assembler PC v5.1.0 Thu Mar 31 17:05:45 2011

Tools Copyright (c) 1996-2005 Texas Instruments Incorporated
C:\Users\ADMINI~1\AppData\Local\Temp\TI8242                          PAGE   31

    1651 00000d04 018C0205             LDHU    .D1T1   *A3,A3            ; |320| 
    1652 00000d08 023C82E6  ||         LDW     .D2T2   *+SP(16),B4       ; |320| 
    1653                    
    1654 00000d0c 00006000             NOP             4
    1655 00000d10 000C9AFA             CMPLT   .L2X    B4,A3,B0          ; |320| 
    1656 00000d14 200FA120     [ B0]   BNOP    .S1     L23,5             ; |320| 
    1657                               ; BRANCHCC OCCURS {L23}           ; |320| 
    1658                    ;** --------------------------------------------------------------------------*
    1659                            .dwpsn  "proc_result_v2.c",321,3
    1660 00000d18 023CC2E6             LDW     .D2T2   *+SP(24),B4       ; |321| 
    1661 00000d1c 00000000             NOP             1
    1662 00000d20 01801F28!            MVKL    .S1     _dsp_used_reg+62,A3 ; |321| 
    1663 00000d24 01800068!            MVKH    .S1     _dsp_used_reg+62,A3 ; |321| 
    1664 00000d28 018C0204             LDHU    .D1T1   *A3,A3            ; |321| 
    1665 00000d2c 029002E6             LDW     .D2T2   *B4,B5            ; |321| 
    1666 00000d30 00006000             NOP             4
    1667 00000d34 028CB07A             ADD     .L2X    A3,B5,B5          ; |321| 
    1668 00000d38 029002F6             STW     .D2T2   B5,*B4            ; |321| 
    1669                    ;** --------------------------------------------------------------------------*
    1670                    L23:    
    1671                            .dwpsn  "proc_result_v2.c",322,2
    1672 00000d3c 01801F28!            MVKL    .S1     _dsp_used_reg+62,A3 ; |322| 
    1673 00000d40 01800068!            MVKH    .S1     _dsp_used_reg+62,A3 ; |322| 
    1674                    
    1675 00000d44 018C0205             LDHU    .D1T1   *A3,A3            ; |322| 
    1676 00000d48 023CA2E6  ||         LDW     .D2T2   *+SP(20),B4       ; |322| 
    1677                    
    1678 00000d4c 00006000             NOP             4
    1679 00000d50 000C9AFA             CMPLT   .L2X    B4,A3,B0          ; |322| 
    1680 00000d54 200FA120     [ B0]   BNOP    .S1     L24,5             ; |322| 
    1681                               ; BRANCHCC OCCURS {L24}           ; |322| 
    1682                    ;** --------------------------------------------------------------------------*
    1683                            .dwpsn  "proc_result_v2.c",323,3
    1684 00000d58 023CC2E6             LDW     .D2T2   *+SP(24),B4       ; |323| 
    1685 00000d5c 00000000             NOP             1
    1686 00000d60 01801F28!            MVKL    .S1     _dsp_used_reg+62,A3 ; |323| 
    1687 00000d64 01800068!            MVKH    .S1     _dsp_used_reg+62,A3 ; |323| 
    1688 00000d68 018C0204             LDHU    .D1T1   *A3,A3            ; |323| 
    1689 00000d6c 029002E6             LDW     .D2T2   *B4,B5            ; |323| 
    1690 00000d70 00006000             NOP             4
    1691 00000d74 028CB07A             ADD     .L2X    A3,B5,B5          ; |323| 
    1692 00000d78 029002F6             STW     .D2T2   B5,*B4            ; |323| 
    1693                    ;** --------------------------------------------------------------------------*
    1694                    L24:    
    1695                            .dwpsn  "proc_result_v2.c",325,2
    1696 00000d7c 01803828!            MVKL    .S1     _dsp_used_reg+112,A3 ; |325| 
    1697 00000d80 01800068!            MVKH    .S1     _dsp_used_reg+112,A3 ; |325| 
    1698 00000d84 018C0244             LDH     .D1T1   *A3,A3            ; |325| 
    1699 00000d88 00006000             NOP             4
    1700 00000d8c 000C08D8             CMPLT   .L1     A3,0,A0           ; |325| 
    1701 00000d90 D00BA120     [!A0]   BNOP    .S1     L25,5             ; |325| 
    1702                               ; BRANCHCC OCCURS {L25}           ; |325| 
    1703                    ;** --------------------------------------------------------------------------*
    1704                            .dwpsn  "proc_result_v2.c",326,3
    1705 00000d94 01800028!            MVKL    .S1     _tsk_used_reg,A3  ; |326| 
TMS320C6x COFF Assembler PC v5.1.0 Thu Mar 31 17:05:45 2011

Tools Copyright (c) 1996-2005 Texas Instruments Incorporated
C:\Users\ADMINI~1\AppData\Local\Temp\TI8242                          PAGE   32

    1706 00000d98 01800068!            MVKH    .S1     _tsk_used_reg,A3  ; |326| 
    1707                    
    1708 00000d9c 00136121             BNOP    .S1     L26,3             ; |326| 
    1709 00000da0 018C0264  ||         LDW     .D1T1   *A3,A3            ; |326| 
    1710                    
    1711 00000da4 027CA358             MVK     .L1     -1,A4             ; |326| 
    1712 00000da8 020E4274             STW     .D1T1   A4,*+A3(72)       ; |326| 
    1713                               ; BRANCH OCCURS {L26}             ; |326| 
    1714                    ;** --------------------------------------------------------------------------*
    1715                    L25:    
    1716                            .dwpsn  "proc_result_v2.c",328,3
    1717                    
    1718 00000dac 01800029!            MVKL    .S1     _tsk_used_reg,A3  ; |328| 
    1719 00000db0 0200382A! ||         MVKL    .S2     _dsp_used_reg+112,B4 ; |328| 
    1720                    
    1721 00000db4 01800069!            MVKH    .S1     _tsk_used_reg,A3  ; |328| 
    1722 00000db8 0200006A! ||         MVKH    .S2     _dsp_used_reg+112,B4 ; |328| 
    1723                    
    1724 00000dbc 018C0265             LDW     .D1T1   *A3,A3            ; |328| 
    1725 00000dc0 021002C6  ||         LDH     .D2T2   *B4,B4            ; |328| 
    1726                    
    1727 00000dc4 00006000             NOP             4
    1728 00000dc8 020E4276             STW     .D1T2   B4,*+A3(72)       ; |328| 
    1729                    ;** --------------------------------------------------------------------------*
    1730                    L26:    
    1731                            .dwpsn  "proc_result_v2.c",330,2
    1732 00000dcc 01803928!            MVKL    .S1     _dsp_used_reg+114,A3 ; |330| 
    1733 00000dd4 01800068!            MVKH    .S1     _dsp_used_reg+114,A3 ; |330| 
    1734 00000dd8 018C0244             LDH     .D1T1   *A3,A3            ; |330| 
    1735 00000ddc 00006000             NOP             4
    1736 00000de0 000C08D8             CMPLT   .L1     A3,0,A0           ; |330| 
    1737 00000de4 D008A120     [!A0]   BNOP    .S1     L27,5             ; |330| 
    1738                               ; BRANCHCC OCCURS {L27}           ; |330| 
    1739                    ;** --------------------------------------------------------------------------*
    1740                            .dwpsn  "proc_result_v2.c",331,3
    1741 00000de8 01800028!            MVKL    .S1     _tsk_used_reg,A3  ; |331| 
    1742 00000dec 01800068!            MVKH    .S1     _tsk_used_reg,A3  ; |331| 
    1743                    
    1744 00000df0 00106121             BNOP    .S1     L28,3             ; |331| 
    1745 00000df4 018C0264  ||         LDW     .D1T1   *A3,A3            ; |331| 
    1746                    
    1747 00000df8 027CA358             MVK     .L1     -1,A4             ; |331| 
    1748 00000dfc 020E6274             STW     .D1T1   A4,*+A3(76)       ; |331| 
    1749                               ; BRANCH OCCURS {L28}             ; |331| 
    1750                    ;** --------------------------------------------------------------------------*
    1751                    L27:    
    1752                            .dwpsn  "proc_result_v2.c",333,3
    1753                    
    1754 00000e00 01800029!            MVKL    .S1     _tsk_used_reg,A3  ; |333| 
    1755 00000e04 0200392A! ||         MVKL    .S2     _dsp_used_reg+114,B4 ; |333| 
    1756                    
    1757 00000e08 01800069!            MVKH    .S1     _tsk_used_reg,A3  ; |333| 
    1758 00000e0c 0200006A! ||         MVKH    .S2     _dsp_used_reg+114,B4 ; |333| 
    1759                    
    1760 00000e10 018C0265             LDW     .D1T1   *A3,A3            ; |333| 
TMS320C6x COFF Assembler PC v5.1.0 Thu Mar 31 17:05:45 2011

Tools Copyright (c) 1996-2005 Texas Instruments Incorporated
C:\Users\ADMINI~1\AppData\Local\Temp\TI8242                          PAGE   33

    1761 00000e14 021002C6  ||         LDH     .D2T2   *B4,B4            ; |333| 
    1762                    
    1763 00000e18 00006000             NOP             4
    1764 00000e1c 020E6276             STW     .D1T2   B4,*+A3(76)       ; |333| 
    1765                    ;** --------------------------------------------------------------------------*
    1766                    L28:    
    1767                            .dwpsn  "proc_result_v2.c",335,2
    1768 00000e20 0200012A!            MVKL    .S2     _dsp_used_reg+2,B4 ; |335| 
    1769                    
    1770 00000e24 0200006B!            MVKH    .S2     _dsp_used_reg+2,B4 ; |335| 
    1771 00000e28 01802028  ||         MVK     .S1     64,A3             ; |335| 
    1772                    
    1773 00000e2c 019002D4             STH     .D2T1   A3,*B4            ; |335| 
    1774 00000e30 00002000             NOP             2
    1775                            .dwpsn  "proc_result_v2.c",337,2
    1776 00000e34 0280002A!            MVKL    .S2     _CACHE_flush,B5   ; |337| 
    1777 00000e38 0280006A!            MVKH    .S2     _CACHE_flush,B5   ; |337| 
    1778 00000e3c 00140362             CALL    .S2     B5                ; |337| 
    1779 00000e40 01842162             ADDKPC  .S2     RL30,B3,1         ; |337| 
    1780 00000e44 0200A35A             ZERO    .L2     B4                ; |337| 
    1781 00000e48 0300A358             ZERO    .L1     A6                ; |337| 
    1782 00000e4c 020000A8             MVK     .S1     0x1,A4            ; |337| 
    1783                    RL30:      ; CALL OCCURS {_CACHE_flush}      ; |337| 
    1784                            .dwpsn  "proc_result_v2.c",339,2
    1785 00000e50 01800028!            MVKL    .S1     _tsk_used_reg,A3  ; |339| 
    1786 00000e54 01800068!            MVKH    .S1     _tsk_used_reg,A3  ; |339| 
    1787 00000e58 018C0264             LDW     .D1T1   *A3,A3            ; |339| 
    1788 00000e5c 00004000             NOP             3
    1789 00000e60 0204A358             MVK     .L1     1,A4              ; |339| 
    1790 00000e64 020DA274             STW     .D1T1   A4,*+A3(52)       ; |339| 
    1791 00000e68 00002000             NOP             2
    1792                            .dwpsn  "proc_result_v2.c",341,2
    1793                            .dwpsn  "proc_result_v2.c",342,1
    1794 00000e6c 01BD12E6             LDW     .D2T2   *++SP(32),B3      ; |342| 
    1795 00000e70 00006000             NOP             4
    1796                            .dwcfa  0xc0, 19
    1797                            .dwcfa  0x0e, 0
    1798 00000e74 008CA362             RETNOP  .S2     B3,5              ; |342| 
    1799                               ; BRANCH OCCURS {B3}              ; |342| 
    1800                            .dwattr DW$81, DW_AT_end_file("proc_result_v2.c")
    1801                            .dwattr DW$81, DW_AT_end_line(0x156)
    1802                            .dwattr DW$81, DW_AT_end_column(0x01)
    1803                            .dwendentry
    1804                            .dwendtag DW$81
    1805                    
    1806 00000e78                   .sect   ".text"
    1807                            .global _set_iden_result
    1808                    
    1809                    DW$89   .dwtag  DW_TAG_subprogram, DW_AT_name("set_iden_result"), DW_AT_symbol_name("_set_iden_result"
    1810                            .dwattr DW$89, DW_AT_low_pc(_set_iden_result)
    1811                            .dwattr DW$89, DW_AT_high_pc(0x00)
    1812                            .dwattr DW$89, DW_AT_begin_file("proc_result_v2.c")
    1813                            .dwattr DW$89, DW_AT_begin_line(0x15d)
    1814                            .dwattr DW$89, DW_AT_begin_column(0x06)
    1815                            .dwpsn  "proc_result_v2.c",350,1
TMS320C6x COFF Assembler PC v5.1.0 Thu Mar 31 17:05:45 2011

Tools Copyright (c) 1996-2005 Texas Instruments Incorporated
C:\Users\ADMINI~1\AppData\Local\Temp\TI8242                          PAGE   34

    1816                    
    1817                            .dwfde DW$CIE
    1818                    
    1819                    ;******************************************************************************
    1820                    ;* FUNCTION NAME: _set_iden_result                                            *
    1821                    ;*                                                                            *
    1822                    ;*   Regs Modified     : A0,A1,A2,A3,A4,A5,A6,A7,A8,A9,B0,B1,B2,B3,B4,B5,B6,  *
    1823                    ;*                           B7,B8,B9,SP,A16,A17,A18,A19,A20,A21,A22,A23,A24, *
    1824                    ;*                           A25,A26,A27,A28,A29,A30,A31,B16,B17,B18,B19,B20, *
    1825                    ;*                           B21,B22,B23,B24,B25,B26,B27,B28,B29,B30,B31      *
    1826                    ;*   Regs Used         : A0,A1,A2,A3,A4,A5,A6,A7,A8,A9,B0,B1,B2,B3,B4,B5,B6,  *
    1827                    ;*                           B7,B8,B9,SP,A16,A17,A18,A19,A20,A21,A22,A23,A24, *
    1828                    ;*                           A25,A26,A27,A28,A29,A30,A31,B16,B17,B18,B19,B20, *
    1829                    ;*                           B21,B22,B23,B24,B25,B26,B27,B28,B29,B30,B31      *
    1830                    ;*   Local Frame Size  : 0 Args + 40 Auto + 4 Save = 44 byte                  *
    1831                    ;******************************************************************************
    1832                    _set_iden_result:
    1833                    ;** --------------------------------------------------------------------------*
    1834                            .dwcfa  0x0e, 0
    1835                            .dwcfa  0x09, 126, 19
    1836 00000e78 01BD94F6             STW     .D2T2   B3,*SP--(48)      ; |350| 
    1837 00000e7c 00002000             NOP             2
    1838                            .dwcfa  0x0e, 48
    1839                            .dwcfa  0x80, 19, 0
    1840                    DW$90   .dwtag  DW_TAG_formal_parameter, DW_AT_name("base_addr"), DW_AT_symbol_name("_base_addr")
    1841                            .dwattr DW$90, DW_AT_type(*DW$T$106)
    1842                            .dwattr DW$90, DW_AT_location[DW_OP_reg4]
    1843                    DW$91   .dwtag  DW_TAG_formal_parameter, DW_AT_name("img_addr"), DW_AT_symbol_name("_img_addr")
    1844                            .dwattr DW$91, DW_AT_type(*DW$T$103)
    1845                            .dwattr DW$91, DW_AT_location[DW_OP_reg20]
    1846                    DW$92   .dwtag  DW_TAG_formal_parameter, DW_AT_name("rotate_fea_addr"), DW_AT_symbol_name("_rotate_fea
    1847                            .dwattr DW$92, DW_AT_type(*DW$T$103)
    1848                            .dwattr DW$92, DW_AT_location[DW_OP_reg6]
    1849                    DW$93   .dwtag  DW_TAG_formal_parameter, DW_AT_name("eye"), DW_AT_symbol_name("_eye")
    1850                            .dwattr DW$93, DW_AT_type(*DW$T$10)
    1851                            .dwattr DW$93, DW_AT_location[DW_OP_reg22]
    1852                    DW$94   .dwtag  DW_TAG_variable, DW_AT_name("base_addr"), DW_AT_symbol_name("_base_addr")
    1853                            .dwattr DW$94, DW_AT_type(*DW$T$106)
    1854                            .dwattr DW$94, DW_AT_location[DW_OP_breg31 4]
    1855                    DW$95   .dwtag  DW_TAG_variable, DW_AT_name("img_addr"), DW_AT_symbol_name("_img_addr")
    1856                            .dwattr DW$95, DW_AT_type(*DW$T$103)
    1857                            .dwattr DW$95, DW_AT_location[DW_OP_breg31 8]
    1858                    DW$96   .dwtag  DW_TAG_variable, DW_AT_name("rotate_fea_addr"), DW_AT_symbol_name("_rotate_fea_addr")
    1859                            .dwattr DW$96, DW_AT_type(*DW$T$103)
    1860                            .dwattr DW$96, DW_AT_location[DW_OP_breg31 12]
    1861                    DW$97   .dwtag  DW_TAG_variable, DW_AT_name("eye"), DW_AT_symbol_name("_eye")
    1862                            .dwattr DW$97, DW_AT_type(*DW$T$10)
    1863                            .dwattr DW$97, DW_AT_location[DW_OP_breg31 16]
    1864                    DW$98   .dwtag  DW_TAG_variable, DW_AT_name("addr"), DW_AT_symbol_name("_addr")
    1865                            .dwattr DW$98, DW_AT_type(*DW$T$103)
    1866                            .dwattr DW$98, DW_AT_location[DW_OP_breg31 20]
    1867                    DW$99   .dwtag  DW_TAG_variable, DW_AT_name("off"), DW_AT_symbol_name("_off")
    1868                            .dwattr DW$99, DW_AT_type(*DW$T$103)
    1869                            .dwattr DW$99, DW_AT_location[DW_OP_breg31 24]
    1870                    DW$100  .dwtag  DW_TAG_variable, DW_AT_name("src_data"), DW_AT_symbol_name("_src_data")
TMS320C6x COFF Assembler PC v5.1.0 Thu Mar 31 17:05:45 2011

Tools Copyright (c) 1996-2005 Texas Instruments Incorporated
C:\Users\ADMINI~1\AppData\Local\Temp\TI8242                          PAGE   35

    1871                            .dwattr DW$100, DW_AT_type(*DW$T$19)
    1872                            .dwattr DW$100, DW_AT_location[DW_OP_breg31 28]
    1873                    DW$101  .dwtag  DW_TAG_variable, DW_AT_name("dest_data"), DW_AT_symbol_name("_dest_data")
    1874                            .dwattr DW$101, DW_AT_type(*DW$T$19)
    1875                            .dwattr DW$101, DW_AT_location[DW_OP_breg31 32]
    1876                    DW$102  .dwtag  DW_TAG_variable, DW_AT_name("iden_result"), DW_AT_symbol_name("_iden_result")
    1877                            .dwattr DW$102, DW_AT_type(*DW$T$137)
    1878                            .dwattr DW$102, DW_AT_location[DW_OP_breg31 36]
    1879                    DW$103  .dwtag  DW_TAG_variable, DW_AT_name("result_info"), DW_AT_symbol_name("_result_info")
    1880                            .dwattr DW$103, DW_AT_type(*DW$T$139)
    1881                            .dwattr DW$103, DW_AT_location[DW_OP_breg31 40]
    1882 00000e80 033C82F6             STW     .D2T2   B6,*+SP(16)       ; |350| 
    1883 00000e84 033C62F4             STW     .D2T1   A6,*+SP(12)       ; |350| 
    1884 00000e88 023C42F6             STW     .D2T2   B4,*+SP(8)        ; |350| 
    1885 00000e8c 023C22F4             STW     .D2T1   A4,*+SP(4)        ; |350| 
    1886 00000e90 00002000             NOP             2
    1887                            .dwpsn  "proc_result_v2.c",353,18
    1888 00000e94 0200A35A             ZERO    .L2     B4                ; |353| 
    1889 00000e98 023CE2F6             STW     .D2T2   B4,*+SP(28)       ; |353| 
    1890 00000e9c 00002000             NOP             2
    1891                            .dwpsn  "proc_result_v2.c",354,18
    1892 00000ea0 0180A358             ZERO    .L1     A3                ; |354| 
    1893 00000ea4 01BD02F4             STW     .D2T1   A3,*+SP(32)       ; |354| 
    1894 00000ea8 00002000             NOP             2
    1895                            .dwpsn  "proc_result_v2.c",355,20
    1896 00000eac 01BD22F4             STW     .D2T1   A3,*+SP(36)       ; |355| 
    1897 00000eb0 00002000             NOP             2
    1898                            .dwpsn  "proc_result_v2.c",356,22
    1899 00000eb4 023D42F6             STW     .D2T2   B4,*+SP(40)       ; |356| 
    1900 00000eb8 00002000             NOP             2
    1901                            .dwpsn  "proc_result_v2.c",358,2
    1902 00000ebc 02101FDA             MV      .L2X    A4,B4
    1903 00000ec0 021002E6             LDW     .D2T2   *B4,B4            ; |358| 
    1904 00000ec4 00006000             NOP             4
    1905 00000ec8 023CA2F6             STW     .D2T2   B4,*+SP(20)       ; |358| 
    1906 00000ecc 00002000             NOP             2
    1907                            .dwpsn  "proc_result_v2.c",359,2
    1908 00000ed0 0200A35A             ZERO    .L2     B4                ; |359| 
    1909 00000ed4 023CC2F6             STW     .D2T2   B4,*+SP(24)       ; |359| 
    1910 00000ed8 00002000             NOP             2
    1911                            .dwpsn  "proc_result_v2.c",361,3
    1912 00000edc 01802028!            MVKL    .S1     _dsp_used_reg+64,A3 ; |361| 
    1913 00000ee0 01800068!            MVKH    .S1     _dsp_used_reg+64,A3 ; |361| 
    1914 00000ee4 018C0204             LDHU    .D1T1   *A3,A3            ; |361| 
    1915 00000ee8 00006000             NOP             4
    1916 00000eec 000C2A58             CMPEQ   .L1     A3,1,A0           ; |361| 
    1917 00000ef0 D0A5A120     [!A0]   BNOP    .S1     L30,5             ; |361| 
    1918                               ; BRANCHCC OCCURS {L30}           ; |361| 
    1919                    ;** --------------------------------------------------------------------------*
    1920                            .dwpsn  "proc_result_v2.c",363,4
    1921 00000ef4 0FFE2410!            CALL    .S1     _addr_align       ; |363| 
    1922 00000ef8 02BE8942             ADD     .D2     SP,20,B5          ; |363| 
    1923 00000efc 01894162             ADDKPC  .S2     RL31,B3,2         ; |363| 
    1924 00000f00 02141FD8             MV      .L1X    B5,A4             ; |363| 
    1925                    RL31:      ; CALL OCCURS {_addr_align}       ; |363| 
TMS320C6x COFF Assembler PC v5.1.0 Thu Mar 31 17:05:45 2011

Tools Copyright (c) 1996-2005 Texas Instruments Incorporated
C:\Users\ADMINI~1\AppData\Local\Temp\TI8242                          PAGE   36

    1926                            .dwpsn  "proc_result_v2.c",365,4
    1927 00000f04 023CA2E6             LDW     .D2T2   *+SP(20),B4       ; |365| 
    1928 00000f08 00006000             NOP             4
    1929 00000f0c 023D42F6             STW     .D2T2   B4,*+SP(40)       ; |365| 
    1930 00000f10 00002000             NOP             2
    1931                            .dwpsn  "proc_result_v2.c",366,4
    1932 00000f14 023C82E6             LDW     .D2T2   *+SP(16),B4       ; |366| 
    1933 00000f18 01BD42E4             LDW     .D2T1   *+SP(40),A3       ; |366| 
    1934 00000f1c 00006000             NOP             4
    1935 00000f20 020C0276             STW     .D1T2   B4,*A3            ; |366| 
    1936 00000f24 00002000             NOP             2
    1937                            .dwpsn  "proc_result_v2.c",368,4
    1938                    
    1939 00000f28 0FFE1C11!            CALL    .S1     _memset           ; |368| 
    1940 00000f2c 023D42E6  ||         LDW     .D2T2   *+SP(40),B4       ; |368| 
    1941                    
    1942 00000f30 01884162             ADDKPC  .S2     RL32,B3,2         ; |368| 
    1943 00000f34 03002A28             MVK     .S1     0x54,A6           ; |368| 
    1944                    
    1945 00000f38 0200A35B             ZERO    .L2     B4                ; |368| 
    1946 00000f3c 02109058  ||         ADD     .L1X    4,B4,A4           ; |368| 
    1947                    
    1948                    RL32:      ; CALL OCCURS {_memset}           ; |368| 
    1949                            .dwpsn  "proc_result_v2.c",371,4
    1950 00000f40 0200002A!            MVKL    .S2     _ENROLL_FEATURE_STRUCT_OFFSET,B4 ; |371| 
    1951 00000f44 0200006A!            MVKH    .S2     _ENROLL_FEATURE_STRUCT_OFFSET,B4 ; |371| 
    1952 00000f48 021002E6             LDW     .D2T2   *B4,B4            ; |371| 
    1953 00000f4c 00006000             NOP             4
    1954 00000f50 023CC2F6             STW     .D2T2   B4,*+SP(24)       ; |371| 
    1955 00000f54 00002000             NOP             2
    1956                            .dwpsn  "proc_result_v2.c",372,4
    1957 00000f58 0FFE1810!            CALL    .S1     _addr_align       ; |372| 
    1958 00000f5c 02BE8942             ADD     .D2     SP,20,B5          ; |372| 
    1959 00000f60 01824162             ADDKPC  .S2     RL33,B3,2         ; |372| 
    1960 00000f64 02141FD8             MV      .L1X    B5,A4             ; |372| 
    1961                    RL33:      ; CALL OCCURS {_addr_align}       ; |372| 
    1962                            .dwpsn  "proc_result_v2.c",373,4
    1963 00000f68 023CA2E6             LDW     .D2T2   *+SP(20),B4       ; |373| 
    1964 00000f6c 00006000             NOP             4
    1965 00000f70 023D22F6             STW     .D2T2   B4,*+SP(36)       ; |373| 
    1966 00000f74 00002000             NOP             2
    1967                            .dwpsn  "proc_result_v2.c",375,4
    1968                    
    1969 00000f78 01901FD9             MV      .L1X    B4,A3
    1970 00000f7c 02000028  ||         ZERO    .S1     A4                ; |375| 
    1971                    
    1972 00000f80 020C0274             STW     .D1T1   A4,*A3            ; |375| 
    1973 00000f84 00002000             NOP             2
    1974                            .dwpsn  "proc_result_v2.c",376,4
    1975 00000f88 01BD22E4             LDW     .D2T1   *+SP(36),A3       ; |376| 
    1976 00000f8c 00006000             NOP             4
    1977 00000f90 020C2274             STW     .D1T1   A4,*+A3(4)        ; |376| 
    1978 00000f94 00002000             NOP             2
    1979                            .dwpsn  "proc_result_v2.c",377,4
    1980 00000f98 0190A358             MVK     .L1     4,A3              ; |377| 
TMS320C6x COFF Assembler PC v5.1.0 Thu Mar 31 17:05:45 2011

Tools Copyright (c) 1996-2005 Texas Instruments Incorporated
C:\Users\ADMINI~1\AppData\Local\Temp\TI8242                          PAGE   37

    1981 00000f9c 01BCC2F4             STW     .D2T1   A3,*+SP(24)       ; |377| 
    1982 00000fa0 00002000             NOP             2
    1983                            .dwpsn  "proc_result_v2.c",380,4
    1984 00000fa4 0FFE0C10!            CALL    .S1     _addr_align       ; |380| 
    1985 00000fa8 02BE8942             ADD     .D2     SP,20,B5          ; |380| 
    1986 00000fac 01862162             ADDKPC  .S2     RL34,B3,1         ; |380| 
    1987 00000fb0 020C1FDA             MV      .L2X    A3,B4             ; |380| 
    1988 00000fb4 02141FD8             MV      .L1X    B5,A4             ; |380| 
    1989                    RL34:      ; CALL OCCURS {_addr_align}       ; |380| 
    1990                            .dwpsn  "proc_result_v2.c",381,4
    1991 00000fb8 023CA2E6             LDW     .D2T2   *+SP(20),B4       ; |381| 
    1992 00000fbc 00006000             NOP             4
    1993 00000fc0 023D22F6             STW     .D2T2   B4,*+SP(36)       ; |381| 
    1994 00000fc4 00002000             NOP             2
    1995                            .dwpsn  "proc_result_v2.c",386,5
    1996 00000fc8 0210A35A             MVK     .L2     4,B4              ; |386| 
    1997 00000fcc 023CC2F6             STW     .D2T2   B4,*+SP(24)       ; |386| 
    1998 00000fd0 00002000             NOP             2
    1999                            .dwpsn  "proc_result_v2.c",387,5
    2000 00000fd4 01BD22E4             LDW     .D2T1   *+SP(36),A3       ; |387| 
    2001 00000fd8 00002000             NOP             2
    2002 00000fdc 025A1C2A             MVKL    .S2     0x4b438,B4        ; |387| 
    2003 00000fe0 0200026A             MVKH    .S2     0x4b438,B4        ; |387| 
    2004 00000fe4 020C0276             STW     .D1T2   B4,*A3            ; |387| 
    2005 00000fe8 00002000             NOP             2
    2006                            .dwpsn  "proc_result_v2.c",390,5
    2007 00000fec 0FFE0410!            CALL    .S1     _addr_align       ; |390| 
    2008 00000ff0 023CC2E6             LDW     .D2T2   *+SP(24),B4       ; |390| 
    2009 00000ff4 02BE8942             ADD     .D2     SP,20,B5          ; |390| 
    2010 00000ff8 01882162             ADDKPC  .S2     RL35,B3,1         ; |390| 
    2011 00000ffc 02141FD8             MV      .L1X    B5,A4             ; |390| 
    2012                    RL35:      ; CALL OCCURS {_addr_align}       ; |390| 
    2013                            .dwpsn  "proc_result_v2.c",391,5
    2014 00001000 0FFE0010!            CALL    .S1     _FillBmpHeader    ; |391| 
    2015 00001004 023CA2E4             LDW     .D2T1   *+SP(20),A4       ; |391| 
    2016 00001008 0201402A             MVK     .S2     0x280,B4          ; |391| 
    2017 0000100c 01852162             ADDKPC  .S2     RL36,B3,1         ; |391| 
    2018 00001010 0300F028             MVK     .S1     0x1e0,A6          ; |391| 
    2019                    RL36:      ; CALL OCCURS {_FillBmpHeader}    ; |391| 
    2020                            .dwpsn  "proc_result_v2.c",393,5
    2021 00001014 02021C2A             MVK     .S2     1080,B4           ; |393| 
    2022 00001018 023CC2F6             STW     .D2T2   B4,*+SP(24)       ; |393| 
    2023 0000101c 00002000             NOP             2
    2024                            .dwpsn  "proc_result_v2.c",395,5
    2025 00001020 023C42E6             LDW     .D2T2   *+SP(8),B4        ; |395| 
    2026 00001024 00006000             NOP             4
    2027 00001028 023CE2F6             STW     .D2T2   B4,*+SP(28)       ; |395| 
    2028 0000102c 00002000             NOP             2
    2029                            .dwpsn  "proc_result_v2.c",397,5
    2030 00001030 0FFDFC10!            CALL    .S1     _addr_align       ; |397| 
    2031 00001034 023CC2E6             LDW     .D2T2   *+SP(24),B4       ; |397| 
    2032 00001038 02BE8942             ADD     .D2     SP,20,B5          ; |397| 
    2033 0000103c 01892162             ADDKPC  .S2     RL37,B3,1         ; |397| 
    2034 00001040 02141FD8             MV      .L1X    B5,A4             ; |397| 
    2035                    RL37:      ; CALL OCCURS {_addr_align}       ; |397| 
TMS320C6x COFF Assembler PC v5.1.0 Thu Mar 31 17:05:45 2011

Tools Copyright (c) 1996-2005 Texas Instruments Incorporated
C:\Users\ADMINI~1\AppData\Local\Temp\TI8242                          PAGE   38

    2036                            .dwpsn  "proc_result_v2.c",398,5
    2037 00001044 023CA2E6             LDW     .D2T2   *+SP(20),B4       ; |398| 
    2038 00001048 00006000             NOP             4
    2039 0000104c 023D02F6             STW     .D2T2   B4,*+SP(32)       ; |398| 
    2040 00001050 00002000             NOP             2
    2041                            .dwpsn  "proc_result_v2.c",400,5
    2042                    
    2043 00001054 0FFDF811!            CALL    .S1     _memcpy           ; |400| 
    2044 00001058 023CE2E6  ||         LDW     .D2T2   *+SP(28),B4       ; |400| 
    2045                    
    2046 0000105c 023D02E4             LDW     .D2T1   *+SP(32),A4       ; |400| 
    2047 00001060 03580028             MVKL    .S1     0x4b000,A6        ; |400| 
    2048 00001064 01832162             ADDKPC  .S2     RL38,B3,1         ; |400| 
    2049 00001068 03000268             MVKH    .S1     0x4b000,A6        ; |400| 
    2050                    RL38:      ; CALL OCCURS {_memcpy}           ; |400| 
    2051                            .dwpsn  "proc_result_v2.c",402,5
    2052 0000106c 01D80028             MVKL    .S1     0x4b000,A3        ; |402| 
    2053 00001070 01800268             MVKH    .S1     0x4b000,A3        ; |402| 
    2054 00001074 01BCC2F4             STW     .D2T1   A3,*+SP(24)       ; |402| 
    2055 00001078 00002000             NOP             2
    2056                            .dwpsn  "proc_result_v2.c",407,4
    2057 0000107c 0FFDF410!            CALL    .S1     _addr_align       ; |407| 
    2058 00001080 02BE8942             ADD     .D2     SP,20,B5          ; |407| 
    2059 00001084 01842162             ADDKPC  .S2     RL39,B3,1         ; |407| 
    2060 00001088 02141FD8             MV      .L1X    B5,A4             ; |407| 
    2061 0000108c 020C1FDA             MV      .L2X    A3,B4             ; |407| 
    2062                    RL39:      ; CALL OCCURS {_addr_align}       ; |407| 
    2063                            .dwpsn  "proc_result_v2.c",408,4
    2064 00001090 023CA2E6             LDW     .D2T2   *+SP(20),B4       ; |408| 
    2065 00001094 00006000             NOP             4
    2066 00001098 023D22F6             STW     .D2T2   B4,*+SP(36)       ; |408| 
    2067 0000109c 00002000             NOP             2
    2068                            .dwpsn  "proc_result_v2.c",410,4
    2069 000010a0 01802128!            MVKL    .S1     _dsp_used_reg+66,A3 ; |410| 
    2070 000010a4 01800068!            MVKH    .S1     _dsp_used_reg+66,A3 ; |410| 
    2071 000010a8 018C0204             LDHU    .D1T1   *A3,A3            ; |410| 
    2072 000010ac 00006000             NOP             4
    2073 000010b0 000C2F58             AND     .L1     1,A3,A0           ; |410| 
    2074 000010b4 D028A120     [!A0]   BNOP    .S1     L29,5             ; |410| 
    2075                               ; BRANCHCC OCCURS {L29}           ; |410| 
    2076                    ;** --------------------------------------------------------------------------*
    2077                            .dwpsn  "proc_result_v2.c",412,5
    2078 000010b8 0210A35A             MVK     .L2     4,B4              ; |412| 
    2079 000010bc 023CC2F6             STW     .D2T2   B4,*+SP(24)       ; |412| 
    2080 000010c0 00002000             NOP             2
    2081                            .dwpsn  "proc_result_v2.c",413,5
    2082 000010c4 01BD22E4             LDW     .D2T1   *+SP(36),A3       ; |413| 
    2083 000010c8 00004000             NOP             3
    2084 000010cc 0202002A             MVK     .S2     1024,B4           ; |413| 
    2085 000010d0 020C0276             STW     .D1T2   B4,*A3            ; |413| 
    2086 000010d4 00002000             NOP             2
    2087                            .dwpsn  "proc_result_v2.c",414,5
    2088 000010d8 023C62E6             LDW     .D2T2   *+SP(12),B4       ; |414| 
    2089 000010dc 00006000             NOP             4
    2090 000010e0 023CE2F6             STW     .D2T2   B4,*+SP(28)       ; |414| 
TMS320C6x COFF Assembler PC v5.1.0 Thu Mar 31 17:05:45 2011

Tools Copyright (c) 1996-2005 Texas Instruments Incorporated
C:\Users\ADMINI~1\AppData\Local\Temp\TI8242                          PAGE   39

    2091 000010e4 00002000             NOP             2
    2092                            .dwpsn  "proc_result_v2.c",415,5
    2093 000010e8 0FFDE410!            CALL    .S1     _addr_align       ; |415| 
    2094 000010ec 023CC2E6             LDW     .D2T2   *+SP(24),B4       ; |415| 
    2095 000010f0 02BE8942             ADD     .D2     SP,20,B5          ; |415| 
    2096 000010f4 01872162             ADDKPC  .S2     RL40,B3,1         ; |415| 
    2097 000010f8 02141FD8             MV      .L1X    B5,A4             ; |415| 
    2098                    RL40:      ; CALL OCCURS {_addr_align}       ; |415| 
    2099                            .dwpsn  "proc_result_v2.c",416,5
    2100 000010fc 023CA2E6             LDW     .D2T2   *+SP(20),B4       ; |416| 
    2101 00001100 00006000             NOP             4
    2102 00001104 023D02F6             STW     .D2T2   B4,*+SP(32)       ; |416| 
    2103 00001108 00002000             NOP             2
    2104                            .dwpsn  "proc_result_v2.c",417,5
    2105                    
    2106 0000110c 0FFDE011!            CALL    .S1     _memcpy           ; |417| 
    2107 00001110 023CE2E6  ||         LDW     .D2T2   *+SP(28),B4       ; |417| 
    2108                    
    2109 00001114 023D02E4             LDW     .D2T1   *+SP(32),A4       ; |417| 
    2110 00001118 01884162             ADDKPC  .S2     RL41,B3,2         ; |417| 
    2111 0000111c 03020028             MVK     .S1     0x400,A6          ; |417| 
    2112                    RL41:      ; CALL OCCURS {_memcpy}           ; |417| 
    2113                            .dwpsn  "proc_result_v2.c",418,5
    2114 00001120 023D22E6             LDW     .D2T2   *+SP(36),B4       ; |418| 
    2115 00001128 00006000             NOP             4
    2116 0000112c 021002E6             LDW     .D2T2   *B4,B4            ; |418| 
    2117 00001130 00006000             NOP             4
    2118 00001134 023CC2F6             STW     .D2T2   B4,*+SP(24)       ; |418| 
    2119 00001138 00002000             NOP             2
    2120                            .dwpsn  "proc_result_v2.c",419,4
    2121 0000113c 0089A120             BNOP    .S1     L31,5             ; |419| 
    2122                               ; BRANCH OCCURS {L31}             ; |419| 
    2123                    ;** --------------------------------------------------------------------------*
    2124                    L29:    
    2125                            .dwpsn  "proc_result_v2.c",422,5
    2126                    
    2127 00001140 0200A359             ZERO    .L1     A4                ; |422| 
    2128 00001144 019016A0  ||         MV      .S1X    B4,A3
    2129                    
    2130 00001148 020C0274             STW     .D1T1   A4,*A3            ; |422| 
    2131 0000114c 00002000             NOP             2
    2132                            .dwpsn  "proc_result_v2.c",423,5
    2133 00001150 023D22E6             LDW     .D2T2   *+SP(36),B4       ; |423| 
    2134 00001154 00004000             NOP             3
    2135 00001158 0280A35A             ZERO    .L2     B5                ; |423| 
    2136 0000115c 029022F6             STW     .D2T2   B5,*+B4(4)        ; |423| 
    2137 00001160 00002000             NOP             2
    2138                            .dwpsn  "proc_result_v2.c",424,5
    2139 00001164 0210A35A             MVK     .L2     4,B4              ; |424| 
    2140 00001168 023CC2F6             STW     .D2T2   B4,*+SP(24)       ; |424| 
    2141 0000116c 00002000             NOP             2
    2142                            .dwpsn  "proc_result_v2.c",426,3
    2143 00001170 0079A120             BNOP    .S1     L31,5             ; |426| 
    2144                               ; BRANCH OCCURS {L31}             ; |426| 
    2145                    ;** --------------------------------------------------------------------------*
TMS320C6x COFF Assembler PC v5.1.0 Thu Mar 31 17:05:45 2011

Tools Copyright (c) 1996-2005 Texas Instruments Incorporated
C:\Users\ADMINI~1\AppData\Local\Temp\TI8242                          PAGE   40

    2146                    L30:    
    2147                            .dwpsn  "proc_result_v2.c",431,4
    2148 00001174 0FFDD410!            CALL    .S1     _addr_align       ; |431| 
    2149 00001178 02BE8942             ADD     .D2     SP,20,B5          ; |431| 
    2150 0000117c 01894162             ADDKPC  .S2     RL42,B3,2         ; |431| 
    2151 00001180 02141FD8             MV      .L1X    B5,A4             ; |431| 
    2152                    RL42:      ; CALL OCCURS {_addr_align}       ; |431| 
    2153                            .dwpsn  "proc_result_v2.c",433,4
    2154 00001184 023CA2E6             LDW     .D2T2   *+SP(20),B4       ; |433| 
    2155 00001188 00006000             NOP             4
    2156 0000118c 023D42F6             STW     .D2T2   B4,*+SP(40)       ; |433| 
    2157 00001190 00002000             NOP             2
    2158                            .dwpsn  "proc_result_v2.c",434,4
    2159 00001194 023C82E6             LDW     .D2T2   *+SP(16),B4       ; |434| 
    2160 00001198 01BD42E4             LDW     .D2T1   *+SP(40),A3       ; |434| 
    2161 0000119c 00006000             NOP             4
    2162 000011a0 020C0276             STW     .D1T2   B4,*A3            ; |434| 
    2163 000011a4 00002000             NOP             2
    2164                            .dwpsn  "proc_result_v2.c",436,4
    2165                    
    2166 000011a8 0FFDCC11!            CALL    .S1     _memset           ; |436| 
    2167 000011ac 023D42E6  ||         LDW     .D2T2   *+SP(40),B4       ; |436| 
    2168                    
    2169 000011b0 01884162             ADDKPC  .S2     RL43,B3,2         ; |436| 
    2170 000011b4 03002A28             MVK     .S1     0x54,A6           ; |436| 
    2171                    
    2172 000011b8 0200A35B             ZERO    .L2     B4                ; |436| 
    2173 000011bc 02109058  ||         ADD     .L1X    4,B4,A4           ; |436| 
    2174                    
    2175                    RL43:      ; CALL OCCURS {_memset}           ; |436| 
    2176                            .dwpsn  "proc_result_v2.c",439,4
    2177 000011c0 01800028!            MVKL    .S1     _ENROLL_FEATURE_STRUCT_OFFSET,A3 ; |439| 
    2178 000011c4 01800068!            MVKH    .S1     _ENROLL_FEATURE_STRUCT_OFFSET,A3 ; |439| 
    2179 000011c8 018C0264             LDW     .D1T1   *A3,A3            ; |439| 
    2180 000011cc 00006000             NOP             4
    2181 000011d0 01BCC2F4             STW     .D2T1   A3,*+SP(24)       ; |439| 
    2182 000011d4 00002000             NOP             2
    2183                            .dwpsn  "proc_result_v2.c",440,4
    2184 000011d8 0FFDC810!            CALL    .S1     _addr_align       ; |440| 
    2185 000011dc 02BE8942             ADD     .D2     SP,20,B5          ; |440| 
    2186 000011e0 01832162             ADDKPC  .S2     RL44,B3,1         ; |440| 
    2187 000011e4 02141FD8             MV      .L1X    B5,A4             ; |440| 
    2188 000011e8 020C1FDA             MV      .L2X    A3,B4             ; |440| 
    2189                    RL44:      ; CALL OCCURS {_addr_align}       ; |440| 
    2190                            .dwpsn  "proc_result_v2.c",441,4
    2191 000011ec 023CA2E6             LDW     .D2T2   *+SP(20),B4       ; |441| 
    2192 000011f0 00006000             NOP             4
    2193 000011f4 023D22F6             STW     .D2T2   B4,*+SP(36)       ; |441| 
    2194 000011f8 00002000             NOP             2
    2195                            .dwpsn  "proc_result_v2.c",443,4
    2196                    
    2197 000011fc 01901FD9             MV      .L1X    B4,A3
    2198 00001200 02000028  ||         ZERO    .S1     A4                ; |443| 
    2199                    
    2200 00001204 020C0274             STW     .D1T1   A4,*A3            ; |443| 
TMS320C6x COFF Assembler PC v5.1.0 Thu Mar 31 17:05:45 2011

Tools Copyright (c) 1996-2005 Texas Instruments Incorporated
C:\Users\ADMINI~1\AppData\Local\Temp\TI8242                          PAGE   41

    2201 00001208 00002000             NOP             2
    2202                            .dwpsn  "proc_result_v2.c",444,4
    2203 0000120c 01BD22E4             LDW     .D2T1   *+SP(36),A3       ; |444| 
    2204 00001210 00006000             NOP             4
    2205 00001214 020C2274             STW     .D1T1   A4,*+A3(4)        ; |444| 
    2206 00001218 00002000             NOP             2
    2207                            .dwpsn  "proc_result_v2.c",445,4
    2208 0000121c 0210A35A             MVK     .L2     4,B4              ; |445| 
    2209 00001220 023CC2F6             STW     .D2T2   B4,*+SP(24)       ; |445| 
    2210 00001224 00002000             NOP             2
    2211                            .dwpsn  "proc_result_v2.c",448,4
    2212 00001228 0FFDBC10!            CALL    .S1     _addr_align       ; |448| 
    2213 0000122c 02BE8942             ADD     .D2     SP,20,B5          ; |448| 
    2214 00001230 01864162             ADDKPC  .S2     RL45,B3,2         ; |448| 
    2215 00001234 02141FD8             MV      .L1X    B5,A4             ; |448| 
    2216                    RL45:      ; CALL OCCURS {_addr_align}       ; |448| 
    2217                            .dwpsn  "proc_result_v2.c",449,4
    2218 00001238 023CA2E6             LDW     .D2T2   *+SP(20),B4       ; |449| 
    2219 0000123c 00006000             NOP             4
    2220 00001240 023D22F6             STW     .D2T2   B4,*+SP(36)       ; |449| 
    2221 00001244 00002000             NOP             2
    2222                            .dwpsn  "proc_result_v2.c",451,4
    2223 00001248 0190A358             MVK     .L1     4,A3              ; |451| 
    2224 0000124c 01BCC2F4             STW     .D2T1   A3,*+SP(24)       ; |451| 
    2225 00001250 00002000             NOP             2
    2226                            .dwpsn  "proc_result_v2.c",452,4
    2227                    
    2228 00001254 025A1C2B             MVKL    .S2     0x4b438,B4        ; |452| 
    2229 00001258 01901FD8  ||         MV      .L1X    B4,A3
    2230                    
    2231 0000125c 0200026A             MVKH    .S2     0x4b438,B4        ; |452| 
    2232 00001260 020C0276             STW     .D1T2   B4,*A3            ; |452| 
    2233 00001264 00002000             NOP             2
    2234                            .dwpsn  "proc_result_v2.c",454,4
    2235 00001268 0FFDB410!            CALL    .S1     _addr_align       ; |454| 
    2236 0000126c 023CC2E6             LDW     .D2T2   *+SP(24),B4       ; |454| 
    2237 00001270 02BE8942             ADD     .D2     SP,20,B5          ; |454| 
    2238 00001274 01872162             ADDKPC  .S2     RL46,B3,1         ; |454| 
    2239 00001278 02141FD8             MV      .L1X    B5,A4             ; |454| 
    2240                    RL46:      ; CALL OCCURS {_addr_align}       ; |454| 
    2241                            .dwpsn  "proc_result_v2.c",455,4
    2242 0000127c 0FFDB410!            CALL    .S1     _FillBmpHeader    ; |455| 
    2243 00001280 023CA2E4             LDW     .D2T1   *+SP(20),A4       ; |455| 
    2244 00001284 0201402A             MVK     .S2     0x280,B4          ; |455| 
    2245 00001288 01842162             ADDKPC  .S2     RL47,B3,1         ; |455| 
    2246 0000128c 0300F028             MVK     .S1     0x1e0,A6          ; |455| 
    2247                    RL47:      ; CALL OCCURS {_FillBmpHeader}    ; |455| 
    2248                            .dwpsn  "proc_result_v2.c",457,4
    2249 00001290 02021C2A             MVK     .S2     1080,B4           ; |457| 
    2250 00001294 023CC2F6             STW     .D2T2   B4,*+SP(24)       ; |457| 
    2251 00001298 00002000             NOP             2
    2252                            .dwpsn  "proc_result_v2.c",459,4
    2253 0000129c 023C42E6             LDW     .D2T2   *+SP(8),B4        ; |459| 
    2254 000012a0 00006000             NOP             4
    2255 000012a4 023CE2F6             STW     .D2T2   B4,*+SP(28)       ; |459| 
TMS320C6x COFF Assembler PC v5.1.0 Thu Mar 31 17:05:45 2011

Tools Copyright (c) 1996-2005 Texas Instruments Incorporated
C:\Users\ADMINI~1\AppData\Local\Temp\TI8242                          PAGE   42

    2256 000012a8 00002000             NOP             2
    2257                            .dwpsn  "proc_result_v2.c",461,4
    2258 000012ac 0FFDAC10!            CALL    .S1     _addr_align       ; |461| 
    2259 000012b0 023CC2E6             LDW     .D2T2   *+SP(24),B4       ; |461| 
    2260 000012b4 02BE8942             ADD     .D2     SP,20,B5          ; |461| 
    2261 000012b8 01882162             ADDKPC  .S2     RL48,B3,1         ; |461| 
    2262 000012bc 02141FD8             MV      .L1X    B5,A4             ; |461| 
    2263                    RL48:      ; CALL OCCURS {_addr_align}       ; |461| 
    2264                            .dwpsn  "proc_result_v2.c",462,4
    2265 000012c0 023CA2E6             LDW     .D2T2   *+SP(20),B4       ; |462| 
    2266 000012c4 00006000             NOP             4
    2267 000012c8 023D02F6             STW     .D2T2   B4,*+SP(32)       ; |462| 
    2268 000012cc 00002000             NOP             2
    2269                            .dwpsn  "proc_result_v2.c",464,4
    2270                    
    2271 000012d0 0FFDA811!            CALL    .S1     _memcpy           ; |464| 
    2272 000012d4 023CE2E6  ||         LDW     .D2T2   *+SP(28),B4       ; |464| 
    2273                    
    2274 000012d8 023D02E4             LDW     .D2T1   *+SP(32),A4       ; |464| 
    2275 000012dc 03580028             MVKL    .S1     0x4b000,A6        ; |464| 
    2276 000012e0 01822162             ADDKPC  .S2     RL49,B3,1         ; |464| 
    2277 000012e4 03000268             MVKH    .S1     0x4b000,A6        ; |464| 
    2278                    RL49:      ; CALL OCCURS {_memcpy}           ; |464| 
    2279                            .dwpsn  "proc_result_v2.c",466,4
    2280 000012e8 01D80028             MVKL    .S1     0x4b000,A3        ; |466| 
    2281 000012ec 01800268             MVKH    .S1     0x4b000,A3        ; |466| 
    2282 000012f0 01BCC2F4             STW     .D2T1   A3,*+SP(24)       ; |466| 
    2283 000012f4 00002000             NOP             2
    2284                            .dwpsn  "proc_result_v2.c",468,4
    2285 000012f8 0FFDA410!            CALL    .S1     _addr_align       ; |468| 
    2286 000012fc 02BE8942             ADD     .D2     SP,20,B5          ; |468| 
    2287 00001300 01832162             ADDKPC  .S2     RL50,B3,1         ; |468| 
    2288 00001304 02141FD8             MV      .L1X    B5,A4             ; |468| 
    2289 00001308 020C1FDA             MV      .L2X    A3,B4             ; |468| 
    2290                    RL50:      ; CALL OCCURS {_addr_align}       ; |468| 
    2291                            .dwpsn  "proc_result_v2.c",469,4
    2292 0000130c 023CA2E6             LDW     .D2T2   *+SP(20),B4       ; |469| 
    2293 00001310 00006000             NOP             4
    2294 00001314 023D22F6             STW     .D2T2   B4,*+SP(36)       ; |469| 
    2295 00001318 00002000             NOP             2
    2296                            .dwpsn  "proc_result_v2.c",471,5
    2297 0000131c 0180A358             ZERO    .L1     A3                ; |471| 
    2298 00001320 019002F4             STW     .D2T1   A3,*B4            ; |471| 
    2299 00001324 00002000             NOP             2
    2300                            .dwpsn  "proc_result_v2.c",472,5
    2301 00001328 02BD22E6             LDW     .D2T2   *+SP(36),B5       ; |472| 
    2302 0000132c 00004000             NOP             3
    2303 00001330 0200A35A             ZERO    .L2     B4                ; |472| 
    2304 00001334 021422F6             STW     .D2T2   B4,*+B5(4)        ; |472| 
    2305 00001338 00002000             NOP             2
    2306                            .dwpsn  "proc_result_v2.c",473,5
    2307 0000133c 0210A35A             MVK     .L2     4,B4              ; |473| 
    2308 00001340 023CC2F6             STW     .D2T2   B4,*+SP(24)       ; |473| 
    2309                    ;** --------------------------------------------------------------------------*
    2310                    L31:    
TMS320C6x COFF Assembler PC v5.1.0 Thu Mar 31 17:05:45 2011

Tools Copyright (c) 1996-2005 Texas Instruments Incorporated
C:\Users\ADMINI~1\AppData\Local\Temp\TI8242                          PAGE   43

    2311                            .dwpsn  "proc_result_v2.c",477,2
    2312 00001344 0FFD9810!            CALL    .S1     _addr_align       ; |477| 
    2313 00001348 02BE8942             ADD     .D2     SP,20,B5          ; |477| 
    2314 0000134c 01854162             ADDKPC  .S2     RL51,B3,2         ; |477| 
    2315 00001350 02141FD8             MV      .L1X    B5,A4             ; |477| 
    2316                    RL51:      ; CALL OCCURS {_addr_align}       ; |477| 
    2317                            .dwpsn  "proc_result_v2.c",478,2
    2318 00001354 02BCA2E6             LDW     .D2T2   *+SP(20),B5       ; |478| 
    2319 00001358 023C22E6             LDW     .D2T2   *+SP(4),B4        ; |478| 
    2320 0000135c 00006000             NOP             4
    2321 00001360 029002F6             STW     .D2T2   B5,*B4            ; |478| 
    2322 00001364 00002000             NOP             2
    2323                            .dwpsn  "proc_result_v2.c",480,1
    2324 00001368 01BD92E6             LDW     .D2T2   *++SP(48),B3      ; |480| 
    2325 0000136c 00006000             NOP             4
    2326                            .dwcfa  0xc0, 19
    2327                            .dwcfa  0x0e, 0
    2328 00001370 008CA362             RETNOP  .S2     B3,5              ; |480| 
    2329                               ; BRANCH OCCURS {B3}              ; |480| 
    2330                            .dwattr DW$89, DW_AT_end_file("proc_result_v2.c")
    2331                            .dwattr DW$89, DW_AT_end_line(0x1e0)
    2332                            .dwattr DW$89, DW_AT_end_column(0x01)
    2333                            .dwendentry
    2334                            .dwendtag DW$89
    2335                    
    2336 00001374                   .sect   ".text"
    2337                            .global _SetIdenResult
    2338                    
    2339                    DW$104  .dwtag  DW_TAG_subprogram, DW_AT_name("SetIdenResult"), DW_AT_symbol_name("_SetIdenResult")
    2340                            .dwattr DW$104, DW_AT_low_pc(_SetIdenResult)
    2341                            .dwattr DW$104, DW_AT_high_pc(0x00)
    2342                            .dwattr DW$104, DW_AT_begin_file("proc_result_v2.c")
    2343                            .dwattr DW$104, DW_AT_begin_line(0x1e6)
    2344                            .dwattr DW$104, DW_AT_begin_column(0x06)
    2345                            .dwpsn  "proc_result_v2.c",487,1
    2346                    
    2347                            .dwfde DW$CIE
    2348                    
    2349                    ;******************************************************************************
    2350                    ;* FUNCTION NAME: _SetIdenResult                                              *
    2351                    ;*                                                                            *
    2352                    ;*   Regs Modified     : A0,A1,A2,A3,A4,A5,A6,A7,A8,A9,B0,B1,B2,B3,B4,B5,B6,  *
    2353                    ;*                           B7,B8,B9,SP,A16,A17,A18,A19,A20,A21,A22,A23,A24, *
    2354                    ;*                           A25,A26,A27,A28,A29,A30,A31,B16,B17,B18,B19,B20, *
    2355                    ;*                           B21,B22,B23,B24,B25,B26,B27,B28,B29,B30,B31      *
    2356                    ;*   Regs Used         : A0,A1,A2,A3,A4,A5,A6,A7,A8,A9,B0,B1,B2,B3,B4,B5,B6,  *
    2357                    ;*                           B7,B8,B9,SP,A16,A17,A18,A19,A20,A21,A22,A23,A24, *
    2358                    ;*                           A25,A26,A27,A28,A29,A30,A31,B16,B17,B18,B19,B20, *
    2359                    ;*                           B21,B22,B23,B24,B25,B26,B27,B28,B29,B30,B31      *
    2360                    ;*   Local Frame Size  : 0 Args + 36 Auto + 4 Save = 40 byte                  *
    2361                    ;******************************************************************************
    2362                    _SetIdenResult:
    2363                    ;** --------------------------------------------------------------------------*
    2364                            .dwcfa  0x0e, 0
    2365                            .dwcfa  0x09, 126, 19
TMS320C6x COFF Assembler PC v5.1.0 Thu Mar 31 17:05:45 2011

Tools Copyright (c) 1996-2005 Texas Instruments Incorporated
C:\Users\ADMINI~1\AppData\Local\Temp\TI8242                          PAGE   44

    2366 00001374 01BD54F6             STW     .D2T2   B3,*SP--(40)      ; |487| 
    2367 00001378 00002000             NOP             2
    2368                            .dwcfa  0x0e, 40
    2369                            .dwcfa  0x80, 19, 0
    2370                    DW$105  .dwtag  DW_TAG_formal_parameter, DW_AT_name("feature_tag"), DW_AT_symbol_name("_feature_tag")
    2371                            .dwattr DW$105, DW_AT_type(*DW$T$11)
    2372                            .dwattr DW$105, DW_AT_location[DW_OP_reg4]
    2373                    DW$106  .dwtag  DW_TAG_variable, DW_AT_name("feature_tag"), DW_AT_symbol_name("_feature_tag")
    2374                            .dwattr DW$106, DW_AT_type(*DW$T$11)
    2375                            .dwattr DW$106, DW_AT_location[DW_OP_breg31 4]
    2376                    DW$107  .dwtag  DW_TAG_variable, DW_AT_name("send_iden_result"), DW_AT_symbol_name("_send_iden_result"
    2377                            .dwattr DW$107, DW_AT_type(*DW$T$141)
    2378                            .dwattr DW$107, DW_AT_location[DW_OP_breg31 8]
    2379                    DW$108  .dwtag  DW_TAG_variable, DW_AT_name("addr_result"), DW_AT_symbol_name("_addr_result")
    2380                            .dwattr DW$108, DW_AT_type(*DW$T$103)
    2381                            .dwattr DW$108, DW_AT_location[DW_OP_breg31 12]
    2382                    DW$109  .dwtag  DW_TAG_variable, DW_AT_name("addr_data"), DW_AT_symbol_name("_addr_data")
    2383                            .dwattr DW$109, DW_AT_type(*DW$T$103)
    2384                            .dwattr DW$109, DW_AT_location[DW_OP_breg31 16]
    2385                    DW$110  .dwtag  DW_TAG_variable, DW_AT_name("addr_end"), DW_AT_symbol_name("_addr_end")
    2386                            .dwattr DW$110, DW_AT_type(*DW$T$103)
    2387                            .dwattr DW$110, DW_AT_location[DW_OP_breg31 20]
    2388                    DW$111  .dwtag  DW_TAG_variable, DW_AT_name("off"), DW_AT_symbol_name("_off")
    2389                            .dwattr DW$111, DW_AT_type(*DW$T$103)
    2390                            .dwattr DW$111, DW_AT_location[DW_OP_breg31 24]
    2391                    DW$112  .dwtag  DW_TAG_variable, DW_AT_name("result_count"), DW_AT_symbol_name("_result_count")
    2392                            .dwattr DW$112, DW_AT_type(*DW$T$103)
    2393                            .dwattr DW$112, DW_AT_location[DW_OP_breg31 28]
    2394                    DW$113  .dwtag  DW_TAG_variable, DW_AT_name("left"), DW_AT_symbol_name("_left")
    2395                            .dwattr DW$113, DW_AT_type(*DW$T$10)
    2396                            .dwattr DW$113, DW_AT_location[DW_OP_breg31 32]
    2397                    DW$114  .dwtag  DW_TAG_variable, DW_AT_name("right"), DW_AT_symbol_name("_right")
    2398                            .dwattr DW$114, DW_AT_type(*DW$T$10)
    2399                            .dwattr DW$114, DW_AT_location[DW_OP_breg31 36]
    2400 0000137c 023C22F4             STW     .D2T1   A4,*+SP(4)        ; |487| 
    2401 00001380 00002000             NOP             2
    2402                            .dwpsn  "proc_result_v2.c",488,24
    2403 00001384 0200A35A             ZERO    .L2     B4                ; |488| 
    2404 00001388 023C42F6             STW     .D2T2   B4,*+SP(8)        ; |488| 
    2405 0000138c 00002000             NOP             2
    2406                            .dwpsn  "proc_result_v2.c",492,12
    2407 00001390 0180A358             ZERO    .L1     A3                ; |492| 
    2408 00001394 01BCE2F4             STW     .D2T1   A3,*+SP(28)       ; |492| 
    2409 00001398 00002000             NOP             2
    2410                            .dwpsn  "proc_result_v2.c",496,2
    2411 0000139c 01800028!            MVKL    .S1     _tsk_used_reg,A3  ; |496| 
    2412 000013a0 01800068!            MVKH    .S1     _tsk_used_reg,A3  ; |496| 
    2413 000013a4 018C0264             LDW     .D1T1   *A3,A3            ; |496| 
    2414 000013a8 00004000             NOP             3
    2415 000013ac 0208A358             MVK     .L1     2,A4              ; |496| 
    2416 000013b0 020E0274             STW     .D1T1   A4,*+A3(64)       ; |496| 
    2417 000013b4 00002000             NOP             2
    2418                            .dwpsn  "proc_result_v2.c",497,2
    2419                    
    2420 000013b8 01800029!            MVKL    .S1     _tsk_used_reg,A3  ; |497| 
TMS320C6x COFF Assembler PC v5.1.0 Thu Mar 31 17:05:45 2011

Tools Copyright (c) 1996-2005 Texas Instruments Incorporated
C:\Users\ADMINI~1\AppData\Local\Temp\TI8242                          PAGE   45

    2421 000013bc 02001E2A! ||         MVKL    .S2     _dsp_used_reg+60,B4 ; |497| 
    2422                    
    2423 000013c0 01800069!            MVKH    .S1     _tsk_used_reg,A3  ; |497| 
    2424 000013c4 0200006A! ||         MVKH    .S2     _dsp_used_reg+60,B4 ; |497| 
    2425                    
    2426 000013c8 018C0265             LDW     .D1T1   *A3,A3            ; |497| 
    2427 000013cc 02100286  ||         LDHU    .D2T2   *B4,B4            ; |497| 
    2428                    
    2429 000013d0 00006000             NOP             4
    2430 000013d4 020F8256             STH     .D1T2   B4,*+A3(56)       ; |497| 
    2431 000013d8 00002000             NOP             2
    2432                            .dwpsn  "proc_result_v2.c",498,2
    2433 000013dc 01800028!            MVKL    .S1     _tsk_used_reg,A3  ; |498| 
    2434                    
    2435 000013e0 01800069!            MVKH    .S1     _tsk_used_reg,A3  ; |498| 
    2436 000013e4 02001F2A! ||         MVKL    .S2     _dsp_used_reg+62,B4 ; |498| 
    2437                    
    2438 000013e8 018C0265             LDW     .D1T1   *A3,A3            ; |498| 
    2439 000013ec 0200006A! ||         MVKH    .S2     _dsp_used_reg+62,B4 ; |498| 
    2440                    
    2441 000013f0 02100284             LDHU    .D2T1   *B4,A4            ; |498| 
    2442 000013f4 00006000             NOP             4
    2443 000013f8 020FA254             STH     .D1T1   A4,*+A3(58)       ; |498| 
    2444 000013fc 00002000             NOP             2
    2445                            .dwpsn  "proc_result_v2.c",499,2
    2446 00001400 01800028!            MVKL    .S1     _tsk_used_reg,A3  ; |499| 
    2447                    
    2448 00001404 01800069!            MVKH    .S1     _tsk_used_reg,A3  ; |499| 
    2449 00001408 0200202A! ||         MVKL    .S2     _dsp_used_reg+64,B4 ; |499| 
    2450                    
    2451 0000140c 018C0265             LDW     .D1T1   *A3,A3            ; |499| 
    2452 00001410 0200006A! ||         MVKH    .S2     _dsp_used_reg+64,B4 ; |499| 
    2453                    
    2454 00001414 02100284             LDHU    .D2T1   *B4,A4            ; |499| 
    2455 00001418 00006000             NOP             4
    2456 0000141c 020FC254             STH     .D1T1   A4,*+A3(60)       ; |499| 
    2457 00001420 00002000             NOP             2
    2458                            .dwpsn  "proc_result_v2.c",500,2
    2459                    
    2460 00001424 01800029!            MVKL    .S1     _tsk_used_reg,A3  ; |500| 
    2461 00001428 0200212A! ||         MVKL    .S2     _dsp_used_reg+66,B4 ; |500| 
    2462                    
    2463 0000142c 01800069!            MVKH    .S1     _tsk_used_reg,A3  ; |500| 
    2464 00001430 0200006A! ||         MVKH    .S2     _dsp_used_reg+66,B4 ; |500| 
    2465                    
    2466 00001434 02100287             LDHU    .D2T2   *B4,B4            ; |500| 
    2467 00001438 018C0264  ||         LDW     .D1T1   *A3,A3            ; |500| 
    2468                    
    2469 0000143c 00006000             NOP             4
    2470 00001440 020FE256             STH     .D1T2   B4,*+A3(62)       ; |500| 
    2471 00001444 00002000             NOP             2
    2472                            .dwpsn  "proc_result_v2.c",503,2
    2473 00001448 0200002A!            MVKL    .S2     _tsk_used_reg,B4  ; |503| 
    2474                    
    2475 0000144c 02BC22E7             LDW     .D2T2   *+SP(4),B5        ; |503| 
TMS320C6x COFF Assembler PC v5.1.0 Thu Mar 31 17:05:45 2011

Tools Copyright (c) 1996-2005 Texas Instruments Incorporated
C:\Users\ADMINI~1\AppData\Local\Temp\TI8242                          PAGE   46

    2476 00001450 0200006A! ||         MVKH    .S2     _tsk_used_reg,B4  ; |503| 
    2477                    
    2478 00001454 019002E4             LDW     .D2T1   *B4,A3            ; |503| 
    2479 00001458 00006000             NOP             4
    2480 0000145c 028E2276             STW     .D1T2   B5,*+A3(68)       ; |503| 
    2481 00001460 00002000             NOP             2
    2482                            .dwpsn  "proc_result_v2.c",505,2
    2483 00001464 0200A35A             ZERO    .L2     B4                ; |505| 
    2484 00001468 023CC2F6             STW     .D2T2   B4,*+SP(24)       ; |505| 
    2485 0000146c 00002000             NOP             2
    2486                            .dwpsn  "proc_result_v2.c",506,2
    2487 00001470 01800028!            MVKL    .S1     _ENROLL_RESULT_ADDR,A3 ; |506| 
    2488 00001474 01800068!            MVKH    .S1     _ENROLL_RESULT_ADDR,A3 ; |506| 
    2489 00001478 018C0264             LDW     .D1T1   *A3,A3            ; |506| 
    2490 0000147c 00006000             NOP             4
    2491 00001480 01BC82F4             STW     .D2T1   A3,*+SP(16)       ; |506| 
    2492 00001484 00002000             NOP             2
    2493                            .dwpsn  "proc_result_v2.c",507,2
    2494 00001488 020D905A             ADD     .L2X    12,A3,B4          ; |507| 
    2495 0000148c 023C82F6             STW     .D2T2   B4,*+SP(16)       ; |507| 
    2496 00001490 00002000             NOP             2
    2497                            .dwpsn  "proc_result_v2.c",508,2
    2498 00001494 0FFD7010!            CALL    .S1     _addr_align       ; |508| 
    2499 00001498 023CC2E6             LDW     .D2T2   *+SP(24),B4       ; |508| 
    2500 0000149c 02BE0942             ADD     .D2     SP,16,B5          ; |508| 
    2501 000014a0 01822162             ADDKPC  .S2     RL52,B3,1         ; |508| 
    2502 000014a4 02141FD8             MV      .L1X    B5,A4             ; |508| 
    2503                    RL52:      ; CALL OCCURS {_addr_align}       ; |508| 
    2504                            .dwpsn  "proc_result_v2.c",510,2
    2505 000014a8 023C82E6             LDW     .D2T2   *+SP(16),B4       ; |510| 
    2506 000014ac 00006000             NOP             4
    2507 000014b0 023CA2F6             STW     .D2T2   B4,*+SP(20)       ; |510| 
    2508 000014b4 00002000             NOP             2
    2509                            .dwpsn  "proc_result_v2.c",512,2
    2510 000014b8 0200382A!            MVKL    .S2     _dsp_used_reg+112,B4 ; |512| 
    2511 000014bc 0200006A!            MVKH    .S2     _dsp_used_reg+112,B4 ; |512| 
    2512 000014c0 021002C6             LDH     .D2T2   *B4,B4            ; |512| 
    2513 000014c4 00006000             NOP             4
    2514 000014c8 023D02F6             STW     .D2T2   B4,*+SP(32)       ; |512| 
    2515 000014cc 00002000             NOP             2
    2516                            .dwpsn  "proc_result_v2.c",513,2
    2517 000014d0 01803928!            MVKL    .S1     _dsp_used_reg+114,A3 ; |513| 
    2518 000014d4 01800068!            MVKH    .S1     _dsp_used_reg+114,A3 ; |513| 
    2519 000014d8 018C0244             LDH     .D1T1   *A3,A3            ; |513| 
    2520 000014dc 00006000             NOP             4
    2521 000014e0 01BD22F4             STW     .D2T1   A3,*+SP(36)       ; |513| 
    2522 000014e4 00002000             NOP             2
    2523                            .dwpsn  "proc_result_v2.c",517,2
    2524 000014e8 001008DA             CMPLT   .L2     B4,0,B0           ; |517| 
    2525 000014ec 30078120     [!B0]   BNOP    .S1     L32,4             ; |517| 
    2526                    
    2527 000014f0 02002DDB             XOR     .L2     1,B0,B4           ; |517| 
    2528 000014f4 029006A2  ||         MV      .S2     B4,B5             ; |517| 
    2529                    
    2530                               ; BRANCHCC OCCURS {L32}           ; |517| 
TMS320C6x COFF Assembler PC v5.1.0 Thu Mar 31 17:05:45 2011

Tools Copyright (c) 1996-2005 Texas Instruments Incorporated
C:\Users\ADMINI~1\AppData\Local\Temp\TI8242                          PAGE   47

    2531                    ;** --------------------------------------------------------------------------*
    2532 000014f8 0217EA5A             CMPEQ   .L2     B5,-1,B4          ; |517| 
    2533                    ;** --------------------------------------------------------------------------*
    2534 000014fc           L32:    
    2535 000014fc 00101FD8             MV      .L1X    B4,A0             ; |517| 
    2536 00001500 D014A120     [!A0]   BNOP    .S1     L33,5             ; |517| 
    2537                               ; BRANCHCC OCCURS {L33}           ; |517| 
    2538                    ;** --------------------------------------------------------------------------*
    2539                            .dwpsn  "proc_result_v2.c",519,3
    2540 00001504 023CE2E6             LDW     .D2T2   *+SP(28),B4       ; |519| 
    2541 00001508 00006000             NOP             4
    2542 0000150c 0210205A             ADD     .L2     1,B4,B4           ; |519| 
    2543 00001510 023CE2F6             STW     .D2T2   B4,*+SP(28)       ; |519| 
    2544 00001514 00002000             NOP             2
    2545                            .dwpsn  "proc_result_v2.c",520,3
    2546                    
    2547 00001518 0200002B!            MVKL    .S2     _ENROLL_IMAGE_DATA_OFFSET,B4 ; |520| 
    2548 0000151c 01800028! ||         MVKL    .S1     _ENROLL_LEFT_STRUCT_ADDR1,A3 ; |520| 
    2549                    
    2550 00001520 0200006B!            MVKH    .S2     _ENROLL_IMAGE_DATA_OFFSET,B4 ; |520| 
    2551 00001524 01800068! ||         MVKH    .S1     _ENROLL_LEFT_STRUCT_ADDR1,A3 ; |520| 
    2552                    
    2553 00001528 0FFF2B11             CALL    .S1     _set_iden_result  ; |520| 
    2554 0000152c 029002E7  ||         LDW     .D2T2   *B4,B5            ; |520| 
    2555 00001530 018C0264  ||         LDW     .D1T1   *A3,A3            ; |520| 
    2556                    
    2557 00001534 0FBE8942             ADD     .D2     SP,20,B31         ; |520| 
    2558 00001538 03681028             MVKL    .S1     0x8202d020,A6     ; |520| 
    2559 0000153c 018C0162             ADDKPC  .S2     RL53,B3,0         ; |520| 
    2560 00001540 027C1FD8             MV      .L1X    B31,A4            ; |520| 
    2561                    
    2562 00001544 020CB07B             ADD     .L2X    B5,A3,B4          ; |520| 
    2563 00001548 03410169  ||         MVKH    .S1     0x8202d020,A6     ; |520| 
    2564 0000154c 03002042  ||         MVK     .D2     0x1,B6            ; |520| 
    2565                    
    2566                    RL53:      ; CALL OCCURS {_set_iden_result}  ; |520| 
    2567                    ;** --------------------------------------------------------------------------*
    2568                    L33:    
    2569                            .dwpsn  "proc_result_v2.c",524,2
    2570 00001550 01800028!            MVKL    .S1     _tsk_used_reg,A3  ; |524| 
    2571 00001554 01800068!            MVKH    .S1     _tsk_used_reg,A3  ; |524| 
    2572                    
    2573 00001558 018C0265             LDW     .D1T1   *A3,A3            ; |524| 
    2574 0000155c 023D02E6  ||         LDW     .D2T2   *+SP(32),B4       ; |524| 
    2575                    
    2576 00001560 00006000             NOP             4
    2577 00001564 020E4276             STW     .D1T2   B4,*+A3(72)       ; |524| 
    2578 00001568 00002000             NOP             2
    2579                            .dwpsn  "proc_result_v2.c",528,2
    2580 0000156c 023D22E6             LDW     .D2T2   *+SP(36),B4       ; |528| 
    2581 00001570 00006000             NOP             4
    2582 00001574 001008DA             CMPLT   .L2     B4,0,B0           ; |528| 
    2583 00001578 300A8120     [!B0]   BNOP    .S1     L34,4             ; |528| 
    2584                    
    2585 0000157c 02002DDB             XOR     .L2     1,B0,B4           ; |528| 
TMS320C6x COFF Assembler PC v5.1.0 Thu Mar 31 17:05:45 2011

Tools Copyright (c) 1996-2005 Texas Instruments Incorporated
C:\Users\ADMINI~1\AppData\Local\Temp\TI8242                          PAGE   48

    2586 00001580 029006A2  ||         MV      .S2     B4,B5             ; |528| 
    2587                    
    2588                               ; BRANCHCC OCCURS {L34}           ; |528| 
    2589                    ;** --------------------------------------------------------------------------*
    2590 00001584 0217EA5A             CMPEQ   .L2     B5,-1,B4          ; |528| 
    2591                    ;** --------------------------------------------------------------------------*
    2592 00001588           L34:    
    2593 00001588 00101FD8             MV      .L1X    B4,A0             ; |528| 
    2594 0000158c D017A120     [!A0]   BNOP    .S1     L35,5             ; |528| 
    2595                               ; BRANCHCC OCCURS {L35}           ; |528| 
    2596                    ;** --------------------------------------------------------------------------*
    2597                            .dwpsn  "proc_result_v2.c",530,3
    2598 00001590 023CE2E6             LDW     .D2T2   *+SP(28),B4       ; |530| 
    2599 00001594 00006000             NOP             4
    2600 00001598 0210205A             ADD     .L2     1,B4,B4           ; |530| 
    2601 0000159c 023CE2F6             STW     .D2T2   B4,*+SP(28)       ; |530| 
    2602 000015a0 00002000             NOP             2
    2603                            .dwpsn  "proc_result_v2.c",531,3
    2604                    
    2605 000015a4 0200002B!            MVKL    .S2     _ENROLL_IMAGE_DATA_OFFSET,B4 ; |531| 
    2606 000015a8 01800028! ||         MVKL    .S1     _ENROLL_RIGHT_STRUCT_ADDR1,A3 ; |531| 
    2607                    
    2608 000015ac 0200006B!            MVKH    .S2     _ENROLL_IMAGE_DATA_OFFSET,B4 ; |531| 
    2609 000015b0 01800068! ||         MVKH    .S1     _ENROLL_RIGHT_STRUCT_ADDR1,A3 ; |531| 
    2610                    
    2611 000015b4 0FFF1B11             CALL    .S1     _set_iden_result  ; |531| 
    2612 000015b8 029002E7  ||         LDW     .D2T2   *B4,B5            ; |531| 
    2613 000015bc 018C0264  ||         LDW     .D1T1   *A3,A3            ; |531| 
    2614                    
    2615 000015c0 0FBE8942             ADD     .D2     SP,20,B31         ; |531| 
    2616 000015c4 03701028             MVKL    .S1     0x8202e020,A6     ; |531| 
    2617 000015c8 01870162             ADDKPC  .S2     RL54,B3,0         ; |531| 
    2618 000015cc 027C1FD8             MV      .L1X    B31,A4            ; |531| 
    2619                    
    2620 000015d0 020CB07B             ADD     .L2X    B5,A3,B4          ; |531| 
    2621 000015d4 03410169  ||         MVKH    .S1     0x8202e020,A6     ; |531| 
    2622 000015d8 03004042  ||         MVK     .D2     0x2,B6            ; |531| 
    2623                    
    2624                    RL54:      ; CALL OCCURS {_set_iden_result}  ; |531| 
    2625                    ;** --------------------------------------------------------------------------*
    2626                    L35:    
    2627                            .dwpsn  "proc_result_v2.c",535,2
    2628 000015dc 0200002A!            MVKL    .S2     _tsk_used_reg,B4  ; |535| 
    2629                    
    2630 000015e0 02BD22E7             LDW     .D2T2   *+SP(36),B5       ; |535| 
    2631 000015e4 0200006A! ||         MVKH    .S2     _tsk_used_reg,B4  ; |535| 
    2632                    
    2633 000015e8 019002E4             LDW     .D2T1   *B4,A3            ; |535| 
    2634 000015ec 00006000             NOP             4
    2635 000015f0 028E6276             STW     .D1T2   B5,*+A3(76)       ; |535| 
    2636 000015f4 00002000             NOP             2
    2637                            .dwpsn  "proc_result_v2.c",538,2
    2638 000015f8 01800028!            MVKL    .S1     _ENROLL_RESULT_ADDR,A3 ; |538| 
    2639 000015fc 01800068!            MVKH    .S1     _ENROLL_RESULT_ADDR,A3 ; |538| 
    2640 00001600 018C0264             LDW     .D1T1   *A3,A3            ; |538| 
TMS320C6x COFF Assembler PC v5.1.0 Thu Mar 31 17:05:45 2011

Tools Copyright (c) 1996-2005 Texas Instruments Incorporated
C:\Users\ADMINI~1\AppData\Local\Temp\TI8242                          PAGE   49

    2641 00001604 00006000             NOP             4
    2642 00001608 01BC62F4             STW     .D2T1   A3,*+SP(12)       ; |538| 
    2643 0000160c 00002000             NOP             2
    2644                            .dwpsn  "proc_result_v2.c",539,2
    2645 00001610 0FFD4010!            CALL    .S1     _addr_align       ; |539| 
    2646 00001614 01884162             ADDKPC  .S2     RL55,B3,2         ; |539| 
    2647 00001618 0200A35A             ZERO    .L2     B4                ; |539| 
    2648 0000161c 023D9058             ADD     .L1X    12,SP,A4          ; |539| 
    2649                    RL55:      ; CALL OCCURS {_addr_align}       ; |539| 
    2650                            .dwpsn  "proc_result_v2.c",540,2
    2651 00001620 023C62E6             LDW     .D2T2   *+SP(12),B4       ; |540| 
    2652 00001624 00006000             NOP             4
    2653 00001628 023C42F6             STW     .D2T2   B4,*+SP(8)        ; |540| 
    2654 0000162c 00002000             NOP             2
    2655                            .dwpsn  "proc_result_v2.c",543,2
    2656 00001630 003CE2E6             LDW     .D2T2   *+SP(28),B0       ; |543| 
    2657 00001634 00006000             NOP             4
    2658 00001638 3027A120     [!B0]   BNOP    .S1     L36,5             ; |543| 
    2659                               ; BRANCHCC OCCURS {L36}           ; |543| 
    2660                    ;** --------------------------------------------------------------------------*
    2661                            .dwpsn  "proc_result_v2.c",545,3
    2662 0000163c 01800028!            MVKL    .S1     _tsk_used_reg,A3  ; |545| 
    2663 00001640 01800068!            MVKH    .S1     _tsk_used_reg,A3  ; |545| 
    2664 00001644 018C0264             LDW     .D1T1   *A3,A3            ; |545| 
    2665 00001648 00006000             NOP             4
    2666 0000164c 020E8276             STW     .D1T2   B4,*+A3(80)       ; |545| 
    2667 00001650 00002000             NOP             2
    2668                            .dwpsn  "proc_result_v2.c",546,3
    2669 00001654 023CE2E6             LDW     .D2T2   *+SP(28),B4       ; |546| 
    2670 00001658 01BC42E4             LDW     .D2T1   *+SP(8),A3        ; |546| 
    2671 0000165c 00006000             NOP             4
    2672 00001660 020C0276             STW     .D1T2   B4,*A3            ; |546| 
    2673 00001664 00002000             NOP             2
    2674                            .dwpsn  "proc_result_v2.c",547,3
    2675 00001668 02BCA2E6             LDW     .D2T2   *+SP(20),B5       ; |547| 
    2676 0000166c 023C82E6             LDW     .D2T2   *+SP(16),B4       ; |547| 
    2677 00001670 01BC42E4             LDW     .D2T1   *+SP(8),A3        ; |547| 
    2678 00001674 00004000             NOP             3
    2679 00001678 0210A0FA             SUB     .L2     B5,B4,B4          ; |547| 
    2680 0000167c 020C2276             STW     .D1T2   B4,*+A3(4)        ; |547| 
    2681 00001680 00002000             NOP             2
    2682                            .dwpsn  "proc_result_v2.c",548,3
    2683 00001684 023C42E6             LDW     .D2T2   *+SP(8),B4        ; |548| 
    2684 00001688 00002000             NOP             2
    2685 0000168c 023C82E4             LDW     .D2T1   *+SP(16),A4       ; |548| 
    2686 00001690 0FFD3010!            CALL    .S1     _get_checksum     ; |548| 
    2687 00001694 021022E6             LDW     .D2T2   *+B4(4),B4        ; |548| 
    2688 00001698 01876162             ADDKPC  .S2     RL56,B3,3         ; |548| 
    2689 0000169c           RL56:      ; CALL OCCURS {_get_checksum}     ; |548| 
    2690 0000169c 023C42E6             LDW     .D2T2   *+SP(8),B4        ; |548| 
    2691 000016a0 00006000             NOP             4
    2692 000016a4 021082D4             STH     .D2T1   A4,*+B4(8)        ; |548| 
    2693 000016a8 00002000             NOP             2
    2694                            .dwpsn  "proc_result_v2.c",549,3
    2695 000016ac 023C42E4             LDW     .D2T1   *+SP(8),A4        ; |549| 
TMS320C6x COFF Assembler PC v5.1.0 Thu Mar 31 17:05:45 2011

Tools Copyright (c) 1996-2005 Texas Instruments Incorporated
C:\Users\ADMINI~1\AppData\Local\Temp\TI8242                          PAGE   50

    2696 000016b0 00004000             NOP             3
    2697 000016b4 0188A358             MVK     .L1     2,A3              ; |549| 
    2698 000016b8 0190A254             STH     .D1T1   A3,*+A4(10)       ; |549| 
    2699                    ;** --------------------------------------------------------------------------*
    2700                    L36:    
    2701                            .dwpsn  "proc_result_v2.c",552,2
    2702 000016bc 0200012A!            MVKL    .S2     _dsp_used_reg+2,B4 ; |552| 
    2703                    
    2704 000016c0 0200006B!            MVKH    .S2     _dsp_used_reg+2,B4 ; |552| 
    2705 000016c4 01802028  ||         MVK     .S1     64,A3             ; |552| 
    2706                    
    2707 000016c8 019002D4             STH     .D2T1   A3,*B4            ; |552| 
    2708 000016cc 00002000             NOP             2
    2709                            .dwpsn  "proc_result_v2.c",557,2
    2710 000016d0 0280002A!            MVKL    .S2     _CACHE_flush,B5   ; |557| 
    2711 000016d4 0280006A!            MVKH    .S2     _CACHE_flush,B5   ; |557| 
    2712 000016d8 00140362             CALL    .S2     B5                ; |557| 
    2713 000016dc 018B2162             ADDKPC  .S2     RL57,B3,1         ; |557| 
    2714 000016e0 0200A35A             ZERO    .L2     B4                ; |557| 
    2715 000016e4 0300A358             ZERO    .L1     A6                ; |557| 
    2716 000016e8 020000A8             MVK     .S1     0x1,A4            ; |557| 
    2717                    RL57:      ; CALL OCCURS {_CACHE_flush}      ; |557| 
    2718                            .dwpsn  "proc_result_v2.c",559,2
    2719 000016ec 01800028!            MVKL    .S1     _tsk_used_reg,A3  ; |559| 
    2720 000016f0 01800068!            MVKH    .S1     _tsk_used_reg,A3  ; |559| 
    2721 000016f4 018C0264             LDW     .D1T1   *A3,A3            ; |559| 
    2722 000016f8 00004000             NOP             3
    2723 000016fc 0208A358             MVK     .L1     2,A4              ; |559| 
    2724 00001700 020DA274             STW     .D1T1   A4,*+A3(52)       ; |559| 
    2725 00001704 00002000             NOP             2
    2726                            .dwpsn  "proc_result_v2.c",561,1
    2727 00001708 01BD52E6             LDW     .D2T2   *++SP(40),B3      ; |561| 
    2728 0000170c 00006000             NOP             4
    2729                            .dwcfa  0xc0, 19
    2730                            .dwcfa  0x0e, 0
    2731 00001710 008CA362             RETNOP  .S2     B3,5              ; |561| 
    2732                               ; BRANCH OCCURS {B3}              ; |561| 
    2733                            .dwattr DW$104, DW_AT_end_file("proc_result_v2.c")
    2734                            .dwattr DW$104, DW_AT_end_line(0x231)
    2735                            .dwattr DW$104, DW_AT_end_column(0x01)
    2736                            .dwendentry
    2737                            .dwendtag DW$104
    2738                    
    2739                    ;******************************************************************************
    2740                    ;* UNDEFINED EXTERNAL REFERENCES                                              *
    2741                    ;******************************************************************************
    2742                            .global _CACHE_flush
    2743                            .global _FillBmpHeader
    2744                            .global _get_checksum
    2745                            .global _addr_align
    2746                            .global _IdenAfterEnroll
    2747                            .global _memset
    2748                            .global _tsk_used_reg
    2749                            .global _dsp_used_reg
    2750                            .global _ENROLL_RESULT_ADDR
TMS320C6x COFF Assembler PC v5.1.0 Thu Mar 31 17:05:45 2011

Tools Copyright (c) 1996-2005 Texas Instruments Incorporated
C:\Users\ADMINI~1\AppData\Local\Temp\TI8242                          PAGE   51

    2751                            .global _ENROLL_LEFT_STRUCT_ADDR1
    2752                            .global _ENROLL_RIGHT_STRUCT_ADDR1
    2753                            .global _ENROLL_RESULT_MAX_LEN
    2754                            .global _ENROLL_FEATURE_STRUCT_OFFSET
    2755                            .global _ENROLL_IMAGE_DATA_OFFSET
    2756                            .global _left_imginfo
    2757                            .global _right_imginfo
    2758                            .global __fixfi
    2759                            .global _memcpy
    2760                    
    2761                    ;******************************************************************************
    2762                    ;* TYPE INFORMATION                                                           *
    2763                    ;******************************************************************************
    2764                    DW$T$3  .dwtag  DW_TAG_pointer_type
    2765                            .dwattr DW$T$3, DW_AT_address_class(0x20)
    2766                    
    2767                    DW$T$100        .dwtag  DW_TAG_subroutine_type, DW_AT_type(*DW$T$3)
    2768                            .dwattr DW$T$100, DW_AT_language(DW_LANG_C)
    2769                    DW$115  .dwtag  DW_TAG_formal_parameter, DW_AT_type(*DW$T$3)
    2770                    DW$116  .dwtag  DW_TAG_formal_parameter, DW_AT_type(*DW$T$99)
    2771                    DW$117  .dwtag  DW_TAG_formal_parameter, DW_AT_type(*DW$T$11)
    2772                            .dwendtag DW$T$100
    2773                    
    2774                    DW$T$99 .dwtag  DW_TAG_pointer_type, DW_AT_type(*DW$T$98)
    2775                            .dwattr DW$T$99, DW_AT_address_class(0x20)
    2776                    
    2777                    DW$T$104        .dwtag  DW_TAG_subroutine_type
    2778                            .dwattr DW$T$104, DW_AT_language(DW_LANG_C)
    2779                    DW$118  .dwtag  DW_TAG_formal_parameter, DW_AT_type(*DW$T$102)
    2780                    DW$119  .dwtag  DW_TAG_formal_parameter, DW_AT_type(*DW$T$3)
    2781                    DW$120  .dwtag  DW_TAG_formal_parameter, DW_AT_type(*DW$T$103)
    2782                            .dwendtag DW$T$104
    2783                    
    2784                    
    2785                    DW$T$109        .dwtag  DW_TAG_subroutine_type
    2786                            .dwattr DW$T$109, DW_AT_language(DW_LANG_C)
    2787                    DW$121  .dwtag  DW_TAG_formal_parameter, DW_AT_type(*DW$T$106)
    2788                    DW$122  .dwtag  DW_TAG_formal_parameter, DW_AT_type(*DW$T$103)
    2789                    DW$123  .dwtag  DW_TAG_formal_parameter, DW_AT_type(*DW$T$103)
    2790                    DW$124  .dwtag  DW_TAG_formal_parameter, DW_AT_type(*DW$T$103)
    2791                    DW$125  .dwtag  DW_TAG_formal_parameter, DW_AT_type(*DW$T$108)
    2792                    DW$126  .dwtag  DW_TAG_formal_parameter, DW_AT_type(*DW$T$10)
    2793                            .dwendtag DW$T$109
    2794                    
    2795                    
    2796                    DW$T$111        .dwtag  DW_TAG_subroutine_type
    2797                            .dwattr DW$T$111, DW_AT_language(DW_LANG_C)
    2798                    DW$127  .dwtag  DW_TAG_formal_parameter, DW_AT_type(*DW$T$106)
    2799                    DW$128  .dwtag  DW_TAG_formal_parameter, DW_AT_type(*DW$T$106)
    2800                            .dwendtag DW$T$111
    2801                    
    2802                    
    2803                    DW$T$115        .dwtag  DW_TAG_subroutine_type
    2804                            .dwattr DW$T$115, DW_AT_language(DW_LANG_C)
    2805                    DW$129  .dwtag  DW_TAG_formal_parameter, DW_AT_type(*DW$T$114)
TMS320C6x COFF Assembler PC v5.1.0 Thu Mar 31 17:05:45 2011

Tools Copyright (c) 1996-2005 Texas Instruments Incorporated
C:\Users\ADMINI~1\AppData\Local\Temp\TI8242                          PAGE   52

    2806                            .dwendtag DW$T$115
    2807                    
    2808                    
    2809                    DW$T$116        .dwtag  DW_TAG_subroutine_type
    2810                            .dwattr DW$T$116, DW_AT_language(DW_LANG_C)
    2811                    DW$130  .dwtag  DW_TAG_formal_parameter, DW_AT_type(*DW$T$106)
    2812                    DW$131  .dwtag  DW_TAG_formal_parameter, DW_AT_type(*DW$T$103)
    2813                    DW$132  .dwtag  DW_TAG_formal_parameter, DW_AT_type(*DW$T$103)
    2814                    DW$133  .dwtag  DW_TAG_formal_parameter, DW_AT_type(*DW$T$10)
    2815                            .dwendtag DW$T$116
    2816                    
    2817                    
    2818                    DW$T$118        .dwtag  DW_TAG_subroutine_type
    2819                            .dwattr DW$T$118, DW_AT_language(DW_LANG_C)
    2820                    DW$134  .dwtag  DW_TAG_formal_parameter, DW_AT_type(*DW$T$11)
    2821                            .dwendtag DW$T$118
    2822                    
    2823                    DW$T$19 .dwtag  DW_TAG_pointer_type, DW_AT_type(*DW$T$6)
    2824                            .dwattr DW$T$19, DW_AT_address_class(0x20)
    2825                    DW$T$32 .dwtag  DW_TAG_typedef, DW_AT_name("Bool"), DW_AT_type(*DW$T$31)
    2826                            .dwattr DW$T$32, DW_AT_language(DW_LANG_C)
    2827                    DW$T$121        .dwtag  DW_TAG_typedef, DW_AT_name("Uint16"), DW_AT_type(*DW$T$9)
    2828                            .dwattr DW$T$121, DW_AT_language(DW_LANG_C)
    2829                    DW$T$122        .dwtag  DW_TAG_pointer_type, DW_AT_type(*DW$T$121)
    2830                            .dwattr DW$T$122, DW_AT_address_class(0x20)
    2831                    
    2832                    DW$T$123        .dwtag  DW_TAG_subroutine_type, DW_AT_type(*DW$T$121)
    2833                            .dwattr DW$T$123, DW_AT_language(DW_LANG_C)
    2834                    DW$135  .dwtag  DW_TAG_formal_parameter, DW_AT_type(*DW$T$122)
    2835                    DW$136  .dwtag  DW_TAG_formal_parameter, DW_AT_type(*DW$T$10)
    2836                            .dwendtag DW$T$123
    2837                    
    2838                    DW$T$10 .dwtag  DW_TAG_base_type, DW_AT_name("int")
    2839                            .dwattr DW$T$10, DW_AT_encoding(DW_ATE_signed)
    2840                            .dwattr DW$T$10, DW_AT_byte_size(0x04)
    2841                    
    2842                    DW$T$125        .dwtag  DW_TAG_subroutine_type, DW_AT_type(*DW$T$10)
    2843                            .dwattr DW$T$125, DW_AT_language(DW_LANG_C)
    2844                    DW$137  .dwtag  DW_TAG_formal_parameter, DW_AT_type(*DW$T$103)
    2845                    DW$138  .dwtag  DW_TAG_formal_parameter, DW_AT_type(*DW$T$10)
    2846                    DW$139  .dwtag  DW_TAG_formal_parameter, DW_AT_type(*DW$T$10)
    2847                            .dwendtag DW$T$125
    2848                    
    2849                    
    2850                    DW$T$127        .dwtag  DW_TAG_subroutine_type, DW_AT_type(*DW$T$10)
    2851                            .dwattr DW$T$127, DW_AT_language(DW_LANG_C)
    2852                    DW$T$129        .dwtag  DW_TAG_typedef, DW_AT_name("Int"), DW_AT_type(*DW$T$10)
    2853                            .dwattr DW$T$129, DW_AT_language(DW_LANG_C)
    2854                    DW$T$11 .dwtag  DW_TAG_base_type, DW_AT_name("unsigned int")
    2855                            .dwattr DW$T$11, DW_AT_encoding(DW_ATE_unsigned)
    2856                            .dwattr DW$T$11, DW_AT_byte_size(0x04)
    2857                    DW$T$103        .dwtag  DW_TAG_typedef, DW_AT_name("Uint32"), DW_AT_type(*DW$T$11)
    2858                            .dwattr DW$T$103, DW_AT_language(DW_LANG_C)
    2859                    DW$T$106        .dwtag  DW_TAG_pointer_type, DW_AT_type(*DW$T$103)
    2860                            .dwattr DW$T$106, DW_AT_address_class(0x20)
TMS320C6x COFF Assembler PC v5.1.0 Thu Mar 31 17:05:45 2011

Tools Copyright (c) 1996-2005 Texas Instruments Incorporated
C:\Users\ADMINI~1\AppData\Local\Temp\TI8242                          PAGE   53

    2861                    DW$T$130        .dwtag  DW_TAG_typedef, DW_AT_name("LgUns"), DW_AT_type(*DW$T$11)
    2862                            .dwattr DW$T$130, DW_AT_language(DW_LANG_C)
    2863                    DW$T$108        .dwtag  DW_TAG_typedef, DW_AT_name("pIrisImageInfo"), DW_AT_type(*DW$T$107)
    2864                            .dwattr DW$T$108, DW_AT_language(DW_LANG_C)
    2865                    
    2866                    DW$T$132        .dwtag  DW_TAG_array_type, DW_AT_type(*DW$T$131)
    2867                            .dwattr DW$T$132, DW_AT_language(DW_LANG_C)
    2868                            .dwattr DW$T$132, DW_AT_byte_size(0x1e0)
    2869                    DW$140  .dwtag  DW_TAG_subrange_type
    2870                            .dwattr DW$140, DW_AT_upper_bound(0x03)
    2871                            .dwendtag DW$T$132
    2872                    
    2873                    DW$T$114        .dwtag  DW_TAG_pointer_type, DW_AT_type(*DW$T$113)
    2874                            .dwattr DW$T$114, DW_AT_address_class(0x20)
    2875                    DW$T$135        .dwtag  DW_TAG_pointer_type, DW_AT_type(*DW$T$134)
    2876                            .dwattr DW$T$135, DW_AT_address_class(0x20)
    2877                    DW$T$136        .dwtag  DW_TAG_typedef, DW_AT_name("dsp_reg_t"), DW_AT_type(*DW$T$85)
    2878                            .dwattr DW$T$136, DW_AT_language(DW_LANG_C)
    2879                    DW$T$137        .dwtag  DW_TAG_pointer_type, DW_AT_type(*DW$T$91)
    2880                            .dwattr DW$T$137, DW_AT_address_class(0x20)
    2881                    DW$T$139        .dwtag  DW_TAG_pointer_type, DW_AT_type(*DW$T$95)
    2882                            .dwattr DW$T$139, DW_AT_address_class(0x20)
    2883                    DW$T$141        .dwtag  DW_TAG_pointer_type, DW_AT_type(*DW$T$140)
    2884                            .dwattr DW$T$141, DW_AT_address_class(0x20)
    2885                    DW$T$102        .dwtag  DW_TAG_typedef, DW_AT_name("CACHE_Region"), DW_AT_type(*DW$T$101)
    2886                            .dwattr DW$T$102, DW_AT_language(DW_LANG_C)
    2887                    DW$T$98 .dwtag  DW_TAG_const_type
    2888                    DW$T$6  .dwtag  DW_TAG_base_type, DW_AT_name("unsigned char")
    2889                            .dwattr DW$T$6, DW_AT_encoding(DW_ATE_unsigned_char)
    2890                            .dwattr DW$T$6, DW_AT_byte_size(0x01)
    2891                    DW$T$9  .dwtag  DW_TAG_base_type, DW_AT_name("unsigned short")
    2892                            .dwattr DW$T$9, DW_AT_encoding(DW_ATE_unsigned)
    2893                            .dwattr DW$T$9, DW_AT_byte_size(0x02)
    2894                    DW$T$31 .dwtag  DW_TAG_typedef, DW_AT_name("MdUns"), DW_AT_type(*DW$T$9)
    2895                            .dwattr DW$T$31, DW_AT_language(DW_LANG_C)
    2896                    DW$T$107        .dwtag  DW_TAG_pointer_type, DW_AT_type(*DW$T$20)
    2897                            .dwattr DW$T$107, DW_AT_address_class(0x20)
    2898                    DW$T$131        .dwtag  DW_TAG_typedef, DW_AT_name("IrisImageInfo"), DW_AT_type(*DW$T$20)
    2899                            .dwattr DW$T$131, DW_AT_language(DW_LANG_C)
    2900                    DW$T$113        .dwtag  DW_TAG_typedef, DW_AT_name("dsp_procimg_t"), DW_AT_type(*DW$T$33)
    2901                            .dwattr DW$T$113, DW_AT_language(DW_LANG_C)
    2902                    DW$T$134        .dwtag  DW_TAG_typedef, DW_AT_name("dsp_tsk_totalreg_t"), DW_AT_type(*DW$T$71)
    2903                            .dwattr DW$T$134, DW_AT_language(DW_LANG_C)
    2904                    
    2905                    DW$T$85 .dwtag  DW_TAG_structure_type
    2906                            .dwattr DW$T$85, DW_AT_name("dsp_reg_t")
    2907                            .dwattr DW$T$85, DW_AT_byte_size(0xb4)
    2908                    DW$141  .dwtag  DW_TAG_member, DW_AT_type(*DW$T$79)
    2909                            .dwattr DW$141, DW_AT_name("status_reg"), DW_AT_symbol_name("_status_reg")
    2910                            .dwattr DW$141, DW_AT_data_member_location[DW_OP_plus_uconst 0x0]
    2911                            .dwattr DW$141, DW_AT_accessibility(DW_ACCESS_public)
    2912                    DW$142  .dwtag  DW_TAG_member, DW_AT_type(*DW$T$80)
    2913                            .dwattr DW$142, DW_AT_name("distance_reg"), DW_AT_symbol_name("_distance_reg")
    2914                            .dwattr DW$142, DW_AT_data_member_location[DW_OP_plus_uconst 0x18]
    2915                            .dwattr DW$142, DW_AT_accessibility(DW_ACCESS_public)
TMS320C6x COFF Assembler PC v5.1.0 Thu Mar 31 17:05:45 2011

Tools Copyright (c) 1996-2005 Texas Instruments Incorporated
C:\Users\ADMINI~1\AppData\Local\Temp\TI8242                          PAGE   54

    2916                    DW$143  .dwtag  DW_TAG_member, DW_AT_type(*DW$T$81)
    2917                            .dwattr DW$143, DW_AT_name("policy_reg"), DW_AT_symbol_name("_policy_reg")
    2918                            .dwattr DW$143, DW_AT_data_member_location[DW_OP_plus_uconst 0x3c]
    2919                            .dwattr DW$143, DW_AT_accessibility(DW_ACCESS_public)
    2920                    DW$144  .dwtag  DW_TAG_member, DW_AT_type(*DW$T$82)
    2921                            .dwattr DW$144, DW_AT_name("sound_reg"), DW_AT_symbol_name("_sound_reg")
    2922                            .dwattr DW$144, DW_AT_data_member_location[DW_OP_plus_uconst 0x64]
    2923                            .dwattr DW$144, DW_AT_accessibility(DW_ACCESS_public)
    2924                    DW$145  .dwtag  DW_TAG_member, DW_AT_type(*DW$T$83)
    2925                            .dwattr DW$145, DW_AT_name("result_reg"), DW_AT_symbol_name("_result_reg")
    2926                            .dwattr DW$145, DW_AT_data_member_location[DW_OP_plus_uconst 0x6c]
    2927                            .dwattr DW$145, DW_AT_accessibility(DW_ACCESS_public)
    2928                    DW$146  .dwtag  DW_TAG_member, DW_AT_type(*DW$T$84)
    2929                            .dwattr DW$146, DW_AT_name("quality_value"), DW_AT_symbol_name("_quality_value")
    2930                            .dwattr DW$146, DW_AT_data_member_location[DW_OP_plus_uconst 0x78]
    2931                            .dwattr DW$146, DW_AT_accessibility(DW_ACCESS_public)
    2932                    DW$147  .dwtag  DW_TAG_member, DW_AT_type(*DW$T$10)
    2933                            .dwattr DW$147, DW_AT_name("quality_count"), DW_AT_symbol_name("_quality_count")
    2934                            .dwattr DW$147, DW_AT_data_member_location[DW_OP_plus_uconst 0xa0]
    2935                            .dwattr DW$147, DW_AT_accessibility(DW_ACCESS_public)
    2936                    DW$148  .dwtag  DW_TAG_member, DW_AT_type(*DW$T$11)
    2937                            .dwattr DW$148, DW_AT_name("alg_control_count"), DW_AT_symbol_name("_alg_control_count")
    2938                            .dwattr DW$148, DW_AT_data_member_location[DW_OP_plus_uconst 0xa4]
    2939                            .dwattr DW$148, DW_AT_accessibility(DW_ACCESS_public)
    2940                    DW$149  .dwtag  DW_TAG_member, DW_AT_type(*DW$T$10)
    2941                            .dwattr DW$149, DW_AT_name("last_img_quality"), DW_AT_symbol_name("_last_img_quality")
    2942                            .dwattr DW$149, DW_AT_data_member_location[DW_OP_plus_uconst 0xa8]
    2943                            .dwattr DW$149, DW_AT_accessibility(DW_ACCESS_public)
    2944                    DW$150  .dwtag  DW_TAG_member, DW_AT_type(*DW$T$10)
    2945                            .dwattr DW$150, DW_AT_name("last_icon_id"), DW_AT_symbol_name("_last_icon_id")
    2946                            .dwattr DW$150, DW_AT_data_member_location[DW_OP_plus_uconst 0xac]
    2947                            .dwattr DW$150, DW_AT_accessibility(DW_ACCESS_public)
    2948                    DW$151  .dwtag  DW_TAG_member, DW_AT_type(*DW$T$10)
    2949                            .dwattr DW$151, DW_AT_name("match_input_count"), DW_AT_symbol_name("_match_input_count")
    2950                            .dwattr DW$151, DW_AT_data_member_location[DW_OP_plus_uconst 0xb0]
    2951                            .dwattr DW$151, DW_AT_accessibility(DW_ACCESS_public)
    2952                            .dwendtag DW$T$85
    2953                    
    2954                    DW$T$91 .dwtag  DW_TAG_typedef, DW_AT_name("dsp_byte_data_t"), DW_AT_type(*DW$T$86)
    2955                            .dwattr DW$T$91, DW_AT_language(DW_LANG_C)
    2956                    DW$T$95 .dwtag  DW_TAG_typedef, DW_AT_name("dsp_eye_feature_t"), DW_AT_type(*DW$T$92)
    2957                            .dwattr DW$T$95, DW_AT_language(DW_LANG_C)
    2958                    DW$T$140        .dwtag  DW_TAG_typedef, DW_AT_name("dsp_enroll_result_t"), DW_AT_type(*DW$T$97)
    2959                            .dwattr DW$T$140, DW_AT_language(DW_LANG_C)
    2960                    
    2961                    DW$T$101        .dwtag  DW_TAG_enumeration_type
    2962                            .dwattr DW$T$101, DW_AT_byte_size(0x04)
    2963                    DW$152  .dwtag  DW_TAG_enumerator, DW_AT_name("CACHE_L2"), DW_AT_const_value(0x00)
    2964                    DW$153  .dwtag  DW_TAG_enumerator, DW_AT_name("CACHE_L2ALL"), DW_AT_const_value(0x01)
    2965                    DW$154  .dwtag  DW_TAG_enumerator, DW_AT_name("CACHE_L1P"), DW_AT_const_value(0x02)
    2966                    DW$155  .dwtag  DW_TAG_enumerator, DW_AT_name("CACHE_L1PALL"), DW_AT_const_value(0x03)
    2967                    DW$156  .dwtag  DW_TAG_enumerator, DW_AT_name("CACHE_L1D"), DW_AT_const_value(0x04)
    2968                    DW$157  .dwtag  DW_TAG_enumerator, DW_AT_name("CACHE_L1DALL"), DW_AT_const_value(0x05)
    2969                            .dwendtag DW$T$101
    2970                    
TMS320C6x COFF Assembler PC v5.1.0 Thu Mar 31 17:05:45 2011

Tools Copyright (c) 1996-2005 Texas Instruments Incorporated
C:\Users\ADMINI~1\AppData\Local\Temp\TI8242                          PAGE   55

    2971                    
    2972                    DW$T$84 .dwtag  DW_TAG_array_type, DW_AT_type(*DW$T$10)
    2973                            .dwattr DW$T$84, DW_AT_language(DW_LANG_C)
    2974                            .dwattr DW$T$84, DW_AT_byte_size(0x28)
    2975                    DW$158  .dwtag  DW_TAG_subrange_type
    2976                            .dwattr DW$158, DW_AT_upper_bound(0x09)
    2977                            .dwendtag DW$T$84
    2978                    
    2979                    
    2980                    DW$T$20 .dwtag  DW_TAG_structure_type
    2981                            .dwattr DW$T$20, DW_AT_name("IrisImageInfoStruct")
    2982                            .dwattr DW$T$20, DW_AT_byte_size(0x78)
    2983                    DW$159  .dwtag  DW_TAG_member, DW_AT_type(*DW$T$10)
    2984                            .dwattr DW$159, DW_AT_name("imageH"), DW_AT_symbol_name("_imageH")
    2985                            .dwattr DW$159, DW_AT_data_member_location[DW_OP_plus_uconst 0x0]
    2986                            .dwattr DW$159, DW_AT_accessibility(DW_ACCESS_public)
    2987                    DW$160  .dwtag  DW_TAG_member, DW_AT_type(*DW$T$10)
    2988                            .dwattr DW$160, DW_AT_name("imageW"), DW_AT_symbol_name("_imageW")
    2989                            .dwattr DW$160, DW_AT_data_member_location[DW_OP_plus_uconst 0x4]
    2990                            .dwattr DW$160, DW_AT_accessibility(DW_ACCESS_public)
    2991                    DW$161  .dwtag  DW_TAG_member, DW_AT_type(*DW$T$19)
    2992                            .dwattr DW$161, DW_AT_name("imageData"), DW_AT_symbol_name("_imageData")
    2993                            .dwattr DW$161, DW_AT_data_member_location[DW_OP_plus_uconst 0x8]
    2994                            .dwattr DW$161, DW_AT_accessibility(DW_ACCESS_public)
    2995                    DW$162  .dwtag  DW_TAG_member, DW_AT_type(*DW$T$10)
    2996                            .dwattr DW$162, DW_AT_name("locMethod"), DW_AT_symbol_name("_locMethod")
    2997                            .dwattr DW$162, DW_AT_data_member_location[DW_OP_plus_uconst 0xc]
    2998                            .dwattr DW$162, DW_AT_accessibility(DW_ACCESS_public)
    2999                    DW$163  .dwtag  DW_TAG_member, DW_AT_type(*DW$T$10)
    3000                            .dwattr DW$163, DW_AT_name("ifSpoofDetect"), DW_AT_symbol_name("_ifSpoofDetect")
    3001                            .dwattr DW$163, DW_AT_data_member_location[DW_OP_plus_uconst 0x10]
    3002                            .dwattr DW$163, DW_AT_accessibility(DW_ACCESS_public)
    3003                    DW$164  .dwtag  DW_TAG_member, DW_AT_type(*DW$T$10)
    3004                            .dwattr DW$164, DW_AT_name("processStatus"), DW_AT_symbol_name("_processStatus")
    3005                            .dwattr DW$164, DW_AT_data_member_location[DW_OP_plus_uconst 0x14]
    3006                            .dwattr DW$164, DW_AT_accessibility(DW_ACCESS_public)
    3007                    DW$165  .dwtag  DW_TAG_member, DW_AT_type(*DW$T$19)
    3008                            .dwattr DW$165, DW_AT_name("locImage"), DW_AT_symbol_name("_locImage")
    3009                            .dwattr DW$165, DW_AT_data_member_location[DW_OP_plus_uconst 0x18]
    3010                            .dwattr DW$165, DW_AT_accessibility(DW_ACCESS_public)
    3011                    DW$166  .dwtag  DW_TAG_member, DW_AT_type(*DW$T$16)
    3012                            .dwattr DW$166, DW_AT_name("pupilRow"), DW_AT_symbol_name("_pupilRow")
    3013                            .dwattr DW$166, DW_AT_data_member_location[DW_OP_plus_uconst 0x1c]
    3014                            .dwattr DW$166, DW_AT_accessibility(DW_ACCESS_public)
    3015                    DW$167  .dwtag  DW_TAG_member, DW_AT_type(*DW$T$16)
    3016                            .dwattr DW$167, DW_AT_name("pupilCol"), DW_AT_symbol_name("_pupilCol")
    3017                            .dwattr DW$167, DW_AT_data_member_location[DW_OP_plus_uconst 0x20]
    3018                            .dwattr DW$167, DW_AT_accessibility(DW_ACCESS_public)
    3019                    DW$168  .dwtag  DW_TAG_member, DW_AT_type(*DW$T$16)
    3020                            .dwattr DW$168, DW_AT_name("pupilRadius"), DW_AT_symbol_name("_pupilRadius")
    3021                            .dwattr DW$168, DW_AT_data_member_location[DW_OP_plus_uconst 0x24]
    3022                            .dwattr DW$168, DW_AT_accessibility(DW_ACCESS_public)
    3023                    DW$169  .dwtag  DW_TAG_member, DW_AT_type(*DW$T$16)
    3024                            .dwattr DW$169, DW_AT_name("irisRow"), DW_AT_symbol_name("_irisRow")
    3025                            .dwattr DW$169, DW_AT_data_member_location[DW_OP_plus_uconst 0x28]
TMS320C6x COFF Assembler PC v5.1.0 Thu Mar 31 17:05:45 2011

Tools Copyright (c) 1996-2005 Texas Instruments Incorporated
C:\Users\ADMINI~1\AppData\Local\Temp\TI8242                          PAGE   56

    3026                            .dwattr DW$169, DW_AT_accessibility(DW_ACCESS_public)
    3027                    DW$170  .dwtag  DW_TAG_member, DW_AT_type(*DW$T$16)
    3028                            .dwattr DW$170, DW_AT_name("irisCol"), DW_AT_symbol_name("_irisCol")
    3029                            .dwattr DW$170, DW_AT_data_member_location[DW_OP_plus_uconst 0x2c]
    3030                            .dwattr DW$170, DW_AT_accessibility(DW_ACCESS_public)
    3031                    DW$171  .dwtag  DW_TAG_member, DW_AT_type(*DW$T$16)
    3032                            .dwattr DW$171, DW_AT_name("irisRadius"), DW_AT_symbol_name("_irisRadius")
    3033                            .dwattr DW$171, DW_AT_data_member_location[DW_OP_plus_uconst 0x30]
    3034                            .dwattr DW$171, DW_AT_accessibility(DW_ACCESS_public)
    3035                    DW$172  .dwtag  DW_TAG_member, DW_AT_type(*DW$T$10)
    3036                            .dwattr DW$172, DW_AT_name("pupilPos"), DW_AT_symbol_name("_pupilPos")
    3037                            .dwattr DW$172, DW_AT_data_member_location[DW_OP_plus_uconst 0x34]
    3038                            .dwattr DW$172, DW_AT_accessibility(DW_ACCESS_public)
    3039                    DW$173  .dwtag  DW_TAG_member, DW_AT_type(*DW$T$10)
    3040                            .dwattr DW$173, DW_AT_name("pupilVisiblePercent"), DW_AT_symbol_name("_pupilVisiblePercent")
    3041                            .dwattr DW$173, DW_AT_data_member_location[DW_OP_plus_uconst 0x38]
    3042                            .dwattr DW$173, DW_AT_accessibility(DW_ACCESS_public)
    3043                    DW$174  .dwtag  DW_TAG_member, DW_AT_type(*DW$T$10)
    3044                            .dwattr DW$174, DW_AT_name("irisPos"), DW_AT_symbol_name("_irisPos")
    3045                            .dwattr DW$174, DW_AT_data_member_location[DW_OP_plus_uconst 0x3c]
    3046                            .dwattr DW$174, DW_AT_accessibility(DW_ACCESS_public)
    3047                    DW$175  .dwtag  DW_TAG_member, DW_AT_type(*DW$T$10)
    3048                            .dwattr DW$175, DW_AT_name("irisVisiblePercent"), DW_AT_symbol_name("_irisVisiblePercent")
    3049                            .dwattr DW$175, DW_AT_data_member_location[DW_OP_plus_uconst 0x40]
    3050                            .dwattr DW$175, DW_AT_accessibility(DW_ACCESS_public)
    3051                    DW$176  .dwtag  DW_TAG_member, DW_AT_type(*DW$T$10)
    3052                            .dwattr DW$176, DW_AT_name("overallVisiblePercent"), DW_AT_symbol_name("_overallVisiblePercent
    3053                            .dwattr DW$176, DW_AT_data_member_location[DW_OP_plus_uconst 0x44]
    3054                            .dwattr DW$176, DW_AT_accessibility(DW_ACCESS_public)
    3055                    DW$177  .dwtag  DW_TAG_member, DW_AT_type(*DW$T$10)
    3056                            .dwattr DW$177, DW_AT_name("focusScore"), DW_AT_symbol_name("_focusScore")
    3057                            .dwattr DW$177, DW_AT_data_member_location[DW_OP_plus_uconst 0x48]
    3058                            .dwattr DW$177, DW_AT_accessibility(DW_ACCESS_public)
    3059                    DW$178  .dwtag  DW_TAG_member, DW_AT_type(*DW$T$10)
    3060                            .dwattr DW$178, DW_AT_name("percentVisible"), DW_AT_symbol_name("_percentVisible")
    3061                            .dwattr DW$178, DW_AT_data_member_location[DW_OP_plus_uconst 0x4c]
    3062                            .dwattr DW$178, DW_AT_accessibility(DW_ACCESS_public)
    3063                    DW$179  .dwtag  DW_TAG_member, DW_AT_type(*DW$T$10)
    3064                            .dwattr DW$179, DW_AT_name("numValidBits"), DW_AT_symbol_name("_numValidBits")
    3065                            .dwattr DW$179, DW_AT_data_member_location[DW_OP_plus_uconst 0x50]
    3066                            .dwattr DW$179, DW_AT_accessibility(DW_ACCESS_public)
    3067                    DW$180  .dwtag  DW_TAG_member, DW_AT_type(*DW$T$10)
    3068                            .dwattr DW$180, DW_AT_name("spoofValue"), DW_AT_symbol_name("_spoofValue")
    3069                            .dwattr DW$180, DW_AT_data_member_location[DW_OP_plus_uconst 0x54]
    3070                            .dwattr DW$180, DW_AT_accessibility(DW_ACCESS_public)
    3071                    DW$181  .dwtag  DW_TAG_member, DW_AT_type(*DW$T$16)
    3072                            .dwattr DW$181, DW_AT_name("SNR"), DW_AT_symbol_name("_SNR")
    3073                            .dwattr DW$181, DW_AT_data_member_location[DW_OP_plus_uconst 0x58]
    3074                            .dwattr DW$181, DW_AT_accessibility(DW_ACCESS_public)
    3075                    DW$182  .dwtag  DW_TAG_member, DW_AT_type(*DW$T$16)
    3076                            .dwattr DW$182, DW_AT_name("Saturation"), DW_AT_symbol_name("_Saturation")
    3077                            .dwattr DW$182, DW_AT_data_member_location[DW_OP_plus_uconst 0x5c]
    3078                            .dwattr DW$182, DW_AT_accessibility(DW_ACCESS_public)
    3079                    DW$183  .dwtag  DW_TAG_member, DW_AT_type(*DW$T$16)
    3080                            .dwattr DW$183, DW_AT_name("interlaceValue"), DW_AT_symbol_name("_interlaceValue")
TMS320C6x COFF Assembler PC v5.1.0 Thu Mar 31 17:05:45 2011

Tools Copyright (c) 1996-2005 Texas Instruments Incorporated
C:\Users\ADMINI~1\AppData\Local\Temp\TI8242                          PAGE   57

    3081                            .dwattr DW$183, DW_AT_data_member_location[DW_OP_plus_uconst 0x60]
    3082                            .dwattr DW$183, DW_AT_accessibility(DW_ACCESS_public)
    3083                    DW$184  .dwtag  DW_TAG_member, DW_AT_type(*DW$T$10)
    3084                            .dwattr DW$184, DW_AT_name("reflectionRatioInROI"), DW_AT_symbol_name("_reflectionRatioInROI")
    3085                            .dwattr DW$184, DW_AT_data_member_location[DW_OP_plus_uconst 0x64]
    3086                            .dwattr DW$184, DW_AT_accessibility(DW_ACCESS_public)
    3087                    DW$185  .dwtag  DW_TAG_member, DW_AT_type(*DW$T$10)
    3088                            .dwattr DW$185, DW_AT_name("reflectionRatioInImage"), DW_AT_symbol_name("_reflectionRatioInIma
    3089                            .dwattr DW$185, DW_AT_data_member_location[DW_OP_plus_uconst 0x68]
    3090                            .dwattr DW$185, DW_AT_accessibility(DW_ACCESS_public)
    3091                    DW$186  .dwtag  DW_TAG_member, DW_AT_type(*DW$T$10)
    3092                            .dwattr DW$186, DW_AT_name("QualityLevel"), DW_AT_symbol_name("_QualityLevel")
    3093                            .dwattr DW$186, DW_AT_data_member_location[DW_OP_plus_uconst 0x6c]
    3094                            .dwattr DW$186, DW_AT_accessibility(DW_ACCESS_public)
    3095                    DW$187  .dwtag  DW_TAG_member, DW_AT_type(*DW$T$19)
    3096                            .dwattr DW$187, DW_AT_name("irisEnrTemplate"), DW_AT_symbol_name("_irisEnrTemplate")
    3097                            .dwattr DW$187, DW_AT_data_member_location[DW_OP_plus_uconst 0x70]
    3098                            .dwattr DW$187, DW_AT_accessibility(DW_ACCESS_public)
    3099                    DW$188  .dwtag  DW_TAG_member, DW_AT_type(*DW$T$19)
    3100                            .dwattr DW$188, DW_AT_name("irisRecTemplate"), DW_AT_symbol_name("_irisRecTemplate")
    3101                            .dwattr DW$188, DW_AT_data_member_location[DW_OP_plus_uconst 0x74]
    3102                            .dwattr DW$188, DW_AT_accessibility(DW_ACCESS_public)
    3103                            .dwendtag DW$T$20
    3104                    
    3105                    
    3106                    DW$T$33 .dwtag  DW_TAG_structure_type
    3107                            .dwattr DW$T$33, DW_AT_name("dsp_procimg_t")
    3108                            .dwattr DW$T$33, DW_AT_byte_size(0x1c)
    3109                    DW$189  .dwtag  DW_TAG_member, DW_AT_type(*DW$T$27)
    3110                            .dwattr DW$189, DW_AT_name("img_msg"), DW_AT_symbol_name("_img_msg")
    3111                            .dwattr DW$189, DW_AT_data_member_location[DW_OP_plus_uconst 0x0]
    3112                            .dwattr DW$189, DW_AT_accessibility(DW_ACCESS_public)
    3113                    DW$190  .dwtag  DW_TAG_member, DW_AT_type(*DW$T$29)
    3114                            .dwattr DW$190, DW_AT_name("result_msg"), DW_AT_symbol_name("_result_msg")
    3115                            .dwattr DW$190, DW_AT_data_member_location[DW_OP_plus_uconst 0x4]
    3116                            .dwattr DW$190, DW_AT_accessibility(DW_ACCESS_public)
    3117                    DW$191  .dwtag  DW_TAG_member, DW_AT_type(*DW$T$30)
    3118                            .dwattr DW$191, DW_AT_name("last_flag"), DW_AT_symbol_name("_last_flag")
    3119                            .dwattr DW$191, DW_AT_data_member_location[DW_OP_plus_uconst 0x8]
    3120                            .dwattr DW$191, DW_AT_accessibility(DW_ACCESS_public)
    3121                    DW$192  .dwtag  DW_TAG_member, DW_AT_type(*DW$T$30)
    3122                            .dwattr DW$192, DW_AT_name("img_grab_count"), DW_AT_symbol_name("_img_grab_count")
    3123                            .dwattr DW$192, DW_AT_data_member_location[DW_OP_plus_uconst 0xc]
    3124                            .dwattr DW$192, DW_AT_accessibility(DW_ACCESS_public)
    3125                    DW$193  .dwtag  DW_TAG_member, DW_AT_type(*DW$T$32)
    3126                            .dwattr DW$193, DW_AT_name("begin_quality"), DW_AT_symbol_name("_begin_quality")
    3127                            .dwattr DW$193, DW_AT_data_member_location[DW_OP_plus_uconst 0x10]
    3128                            .dwattr DW$193, DW_AT_accessibility(DW_ACCESS_public)
    3129                    DW$194  .dwtag  DW_TAG_member, DW_AT_type(*DW$T$10)
    3130                            .dwattr DW$194, DW_AT_name("need_eye"), DW_AT_symbol_name("_need_eye")
    3131                            .dwattr DW$194, DW_AT_data_member_location[DW_OP_plus_uconst 0x14]
    3132                            .dwattr DW$194, DW_AT_accessibility(DW_ACCESS_public)
    3133                    DW$195  .dwtag  DW_TAG_member, DW_AT_type(*DW$T$11)
    3134                            .dwattr DW$195, DW_AT_name("feature_tag"), DW_AT_symbol_name("_feature_tag")
    3135                            .dwattr DW$195, DW_AT_data_member_location[DW_OP_plus_uconst 0x18]
TMS320C6x COFF Assembler PC v5.1.0 Thu Mar 31 17:05:45 2011

Tools Copyright (c) 1996-2005 Texas Instruments Incorporated
C:\Users\ADMINI~1\AppData\Local\Temp\TI8242                          PAGE   58

    3136                            .dwattr DW$195, DW_AT_accessibility(DW_ACCESS_public)
    3137                            .dwendtag DW$T$33
    3138                    
    3139                    
    3140                    DW$T$71 .dwtag  DW_TAG_structure_type
    3141                            .dwattr DW$T$71, DW_AT_name("dsp_tsk_totalreg_t")
    3142                            .dwattr DW$T$71, DW_AT_byte_size(0x138)
    3143                    DW$196  .dwtag  DW_TAG_member, DW_AT_type(*DW$T$58)
    3144                            .dwattr DW$196, DW_AT_name("tsk_control_reg"), DW_AT_symbol_name("_tsk_control_reg")
    3145                            .dwattr DW$196, DW_AT_data_member_location[DW_OP_plus_uconst 0x0]
    3146                            .dwattr DW$196, DW_AT_accessibility(DW_ACCESS_public)
    3147                    DW$197  .dwtag  DW_TAG_member, DW_AT_type(*DW$T$39)
    3148                            .dwattr DW$197, DW_AT_name("tsk_policy_reg"), DW_AT_symbol_name("_tsk_policy_reg")
    3149                            .dwattr DW$197, DW_AT_data_member_location[DW_OP_plus_uconst 0xc]
    3150                            .dwattr DW$197, DW_AT_accessibility(DW_ACCESS_public)
    3151                    DW$198  .dwtag  DW_TAG_member, DW_AT_type(*DW$T$59)
    3152                            .dwattr DW$198, DW_AT_name("tsk_flag_reg"), DW_AT_symbol_name("_tsk_flag_reg")
    3153                            .dwattr DW$198, DW_AT_data_member_location[DW_OP_plus_uconst 0x18]
    3154                            .dwattr DW$198, DW_AT_accessibility(DW_ACCESS_public)
    3155                    DW$199  .dwtag  DW_TAG_member, DW_AT_type(*DW$T$60)
    3156                            .dwattr DW$199, DW_AT_name("alg_result_reg"), DW_AT_symbol_name("_alg_result_reg")
    3157                            .dwattr DW$199, DW_AT_data_member_location[DW_OP_plus_uconst 0x34]
    3158                            .dwattr DW$199, DW_AT_accessibility(DW_ACCESS_public)
    3159                    DW$200  .dwtag  DW_TAG_member, DW_AT_type(*DW$T$61)
    3160                            .dwattr DW$200, DW_AT_name("alg_sound_reg"), DW_AT_symbol_name("_alg_sound_reg")
    3161                            .dwattr DW$200, DW_AT_data_member_location[DW_OP_plus_uconst 0x54]
    3162                            .dwattr DW$200, DW_AT_accessibility(DW_ACCESS_public)
    3163                    DW$201  .dwtag  DW_TAG_member, DW_AT_type(*DW$T$62)
    3164                            .dwattr DW$201, DW_AT_name("alg_devparam_reg"), DW_AT_symbol_name("_alg_devparam_reg")
    3165                            .dwattr DW$201, DW_AT_data_member_location[DW_OP_plus_uconst 0x5c]
    3166                            .dwattr DW$201, DW_AT_accessibility(DW_ACCESS_public)
    3167                    DW$202  .dwtag  DW_TAG_member, DW_AT_type(*DW$T$63)
    3168                            .dwattr DW$202, DW_AT_name("tsk_watchdog_reg"), DW_AT_symbol_name("_tsk_watchdog_reg")
    3169                            .dwattr DW$202, DW_AT_data_member_location[DW_OP_plus_uconst 0xb0]
    3170                            .dwattr DW$202, DW_AT_accessibility(DW_ACCESS_public)
    3171                    DW$203  .dwtag  DW_TAG_member, DW_AT_type(*DW$T$64)
    3172                            .dwattr DW$203, DW_AT_name("img_icon_reg"), DW_AT_symbol_name("_img_icon_reg")
    3173                            .dwattr DW$203, DW_AT_data_member_location[DW_OP_plus_uconst 0xb8]
    3174                            .dwattr DW$203, DW_AT_accessibility(DW_ACCESS_public)
    3175                    DW$204  .dwtag  DW_TAG_member, DW_AT_type(*DW$T$65)
    3176                            .dwattr DW$204, DW_AT_name("dsp_mac_reg"), DW_AT_symbol_name("_dsp_mac_reg")
    3177                            .dwattr DW$204, DW_AT_data_member_location[DW_OP_plus_uconst 0xcc]
    3178                            .dwattr DW$204, DW_AT_accessibility(DW_ACCESS_public)
    3179                    DW$205  .dwtag  DW_TAG_member, DW_AT_type(*DW$T$66)
    3180                            .dwattr DW$205, DW_AT_name("dsp_copyimg_reg"), DW_AT_symbol_name("_dsp_copyimg_reg")
    3181                            .dwattr DW$205, DW_AT_data_member_location[DW_OP_plus_uconst 0xd4]
    3182                            .dwattr DW$205, DW_AT_accessibility(DW_ACCESS_public)
    3183                    DW$206  .dwtag  DW_TAG_member, DW_AT_type(*DW$T$67)
    3184                            .dwattr DW$206, DW_AT_name("dsp_testimg_reg"), DW_AT_symbol_name("_dsp_testimg_reg")
    3185                            .dwattr DW$206, DW_AT_data_member_location[DW_OP_plus_uconst 0xdc]
    3186                            .dwattr DW$206, DW_AT_accessibility(DW_ACCESS_public)
    3187                    DW$207  .dwtag  DW_TAG_member, DW_AT_type(*DW$T$68)
    3188                            .dwattr DW$207, DW_AT_name("dsp_distance_ctrl_reg"), DW_AT_symbol_name("_dsp_distance_ctrl_reg
    3189                            .dwattr DW$207, DW_AT_data_member_location[DW_OP_plus_uconst 0x104]
    3190                            .dwattr DW$207, DW_AT_accessibility(DW_ACCESS_public)
TMS320C6x COFF Assembler PC v5.1.0 Thu Mar 31 17:05:45 2011

Tools Copyright (c) 1996-2005 Texas Instruments Incorporated
C:\Users\ADMINI~1\AppData\Local\Temp\TI8242                          PAGE   59

    3191                    DW$208  .dwtag  DW_TAG_member, DW_AT_type(*DW$T$69)
    3192                            .dwattr DW$208, DW_AT_name("dsp_buildtime_reg"), DW_AT_symbol_name("_dsp_buildtime_reg")
    3193                            .dwattr DW$208, DW_AT_data_member_location[DW_OP_plus_uconst 0x114]
    3194                            .dwattr DW$208, DW_AT_accessibility(DW_ACCESS_public)
    3195                    DW$209  .dwtag  DW_TAG_member, DW_AT_type(*DW$T$70)
    3196                            .dwattr DW$209, DW_AT_name("switch_control_reg"), DW_AT_symbol_name("_switch_control_reg")
    3197                            .dwattr DW$209, DW_AT_data_member_location[DW_OP_plus_uconst 0x134]
    3198                            .dwattr DW$209, DW_AT_accessibility(DW_ACCESS_public)
    3199                            .dwendtag DW$T$71
    3200                    
    3201                    DW$T$79 .dwtag  DW_TAG_typedef, DW_AT_name("dsp_status_t"), DW_AT_type(*DW$T$72)
    3202                            .dwattr DW$T$79, DW_AT_language(DW_LANG_C)
    3203                    DW$T$80 .dwtag  DW_TAG_typedef, DW_AT_name("dsp_distance_t"), DW_AT_type(*DW$T$73)
    3204                            .dwattr DW$T$80, DW_AT_language(DW_LANG_C)
    3205                    DW$T$81 .dwtag  DW_TAG_typedef, DW_AT_name("policy_t"), DW_AT_type(*DW$T$75)
    3206                            .dwattr DW$T$81, DW_AT_language(DW_LANG_C)
    3207                    DW$T$82 .dwtag  DW_TAG_typedef, DW_AT_name("dsp_sound_t"), DW_AT_type(*DW$T$76)
    3208                            .dwattr DW$T$82, DW_AT_language(DW_LANG_C)
    3209                    DW$T$83 .dwtag  DW_TAG_typedef, DW_AT_name("dsp_result_t"), DW_AT_type(*DW$T$78)
    3210                            .dwattr DW$T$83, DW_AT_language(DW_LANG_C)
    3211                    
    3212                    DW$T$86 .dwtag  DW_TAG_structure_type
    3213                            .dwattr DW$T$86, DW_AT_name("dsp_byte_data_t")
    3214                            .dwattr DW$T$86, DW_AT_byte_size(0x08)
    3215                    DW$210  .dwtag  DW_TAG_member, DW_AT_type(*DW$T$11)
    3216                            .dwattr DW$210, DW_AT_name("data_len"), DW_AT_symbol_name("_data_len")
    3217                            .dwattr DW$210, DW_AT_data_member_location[DW_OP_plus_uconst 0x0]
    3218                            .dwattr DW$210, DW_AT_accessibility(DW_ACCESS_public)
    3219                    DW$211  .dwtag  DW_TAG_member, DW_AT_type(*DW$T$19)
    3220                            .dwattr DW$211, DW_AT_name("data_byte"), DW_AT_symbol_name("_data_byte")
    3221                            .dwattr DW$211, DW_AT_data_member_location[DW_OP_plus_uconst 0x4]
    3222                            .dwattr DW$211, DW_AT_accessibility(DW_ACCESS_public)
    3223                            .dwendtag DW$T$86
    3224                    
    3225                    
    3226                    DW$T$92 .dwtag  DW_TAG_structure_type
    3227                            .dwattr DW$T$92, DW_AT_name("dsp_eye_feature_t")
    3228                            .dwattr DW$T$92, DW_AT_byte_size(0x70)
    3229                    DW$212  .dwtag  DW_TAG_member, DW_AT_type(*DW$T$10)
    3230                            .dwattr DW$212, DW_AT_name("eye_flag"), DW_AT_symbol_name("_eye_flag")
    3231                            .dwattr DW$212, DW_AT_data_member_location[DW_OP_plus_uconst 0x0]
    3232                            .dwattr DW$212, DW_AT_accessibility(DW_ACCESS_public)
    3233                    DW$213  .dwtag  DW_TAG_member, DW_AT_type(*DW$T$90)
    3234                            .dwattr DW$213, DW_AT_name("loc"), DW_AT_symbol_name("_loc")
    3235                            .dwattr DW$213, DW_AT_data_member_location[DW_OP_plus_uconst 0x4]
    3236                            .dwattr DW$213, DW_AT_accessibility(DW_ACCESS_public)
    3237                    DW$214  .dwtag  DW_TAG_member, DW_AT_type(*DW$T$91)
    3238                            .dwattr DW$214, DW_AT_name("enroll_feature"), DW_AT_symbol_name("_enroll_feature")
    3239                            .dwattr DW$214, DW_AT_data_member_location[DW_OP_plus_uconst 0x58]
    3240                            .dwattr DW$214, DW_AT_accessibility(DW_ACCESS_public)
    3241                    DW$215  .dwtag  DW_TAG_member, DW_AT_type(*DW$T$91)
    3242                            .dwattr DW$215, DW_AT_name("enroll_img"), DW_AT_symbol_name("_enroll_img")
    3243                            .dwattr DW$215, DW_AT_data_member_location[DW_OP_plus_uconst 0x60]
    3244                            .dwattr DW$215, DW_AT_accessibility(DW_ACCESS_public)
    3245                    DW$216  .dwtag  DW_TAG_member, DW_AT_type(*DW$T$91)
TMS320C6x COFF Assembler PC v5.1.0 Thu Mar 31 17:05:45 2011

Tools Copyright (c) 1996-2005 Texas Instruments Incorporated
C:\Users\ADMINI~1\AppData\Local\Temp\TI8242                          PAGE   60

    3246                            .dwattr DW$216, DW_AT_name("match_feature"), DW_AT_symbol_name("_match_feature")
    3247                            .dwattr DW$216, DW_AT_data_member_location[DW_OP_plus_uconst 0x68]
    3248                            .dwattr DW$216, DW_AT_accessibility(DW_ACCESS_public)
    3249                            .dwendtag DW$T$92
    3250                    
    3251                    
    3252                    DW$T$97 .dwtag  DW_TAG_structure_type
    3253                            .dwattr DW$T$97, DW_AT_name("dsp_enroll_result_t")
    3254                            .dwattr DW$T$97, DW_AT_byte_size(0x7c)
    3255                    DW$217  .dwtag  DW_TAG_member, DW_AT_type(*DW$T$94)
    3256                            .dwattr DW$217, DW_AT_name("header"), DW_AT_symbol_name("_header")
    3257                            .dwattr DW$217, DW_AT_data_member_location[DW_OP_plus_uconst 0x0]
    3258                            .dwattr DW$217, DW_AT_accessibility(DW_ACCESS_public)
    3259                    DW$218  .dwtag  DW_TAG_member, DW_AT_type(*DW$T$96)
    3260                            .dwattr DW$218, DW_AT_name("enroll_result"), DW_AT_symbol_name("_enroll_result")
    3261                            .dwattr DW$218, DW_AT_data_member_location[DW_OP_plus_uconst 0xc]
    3262                            .dwattr DW$218, DW_AT_accessibility(DW_ACCESS_public)
    3263                            .dwendtag DW$T$97
    3264                    
    3265                    DW$T$30 .dwtag  DW_TAG_typedef, DW_AT_name("Uns"), DW_AT_type(*DW$T$11)
    3266                            .dwattr DW$T$30, DW_AT_language(DW_LANG_C)
    3267                    DW$T$16 .dwtag  DW_TAG_base_type, DW_AT_name("float")
    3268                            .dwattr DW$T$16, DW_AT_encoding(DW_ATE_float)
    3269                            .dwattr DW$T$16, DW_AT_byte_size(0x04)
    3270                    DW$T$27 .dwtag  DW_TAG_typedef, DW_AT_name("IMAGE_MSG"), DW_AT_type(*DW$T$26)
    3271                            .dwattr DW$T$27, DW_AT_language(DW_LANG_C)
    3272                    DW$T$29 .dwtag  DW_TAG_typedef, DW_AT_name("RESULT_MSG"), DW_AT_type(*DW$T$28)
    3273                            .dwattr DW$T$29, DW_AT_language(DW_LANG_C)
    3274                    DW$T$58 .dwtag  DW_TAG_typedef, DW_AT_name("dsp_tsk_control_t"), DW_AT_type(*DW$T$34)
    3275                            .dwattr DW$T$58, DW_AT_language(DW_LANG_C)
    3276                    DW$T$39 .dwtag  DW_TAG_typedef, DW_AT_name("dsp_tsk_policy_t"), DW_AT_type(*DW$T$35)
    3277                            .dwattr DW$T$39, DW_AT_language(DW_LANG_C)
    3278                    DW$T$59 .dwtag  DW_TAG_typedef, DW_AT_name("dsp_tsk_flag_t"), DW_AT_type(*DW$T$38)
    3279                            .dwattr DW$T$59, DW_AT_language(DW_LANG_C)
    3280                    DW$T$60 .dwtag  DW_TAG_typedef, DW_AT_name("dsp_algorithm_result_t"), DW_AT_type(*DW$T$40)
    3281                            .dwattr DW$T$60, DW_AT_language(DW_LANG_C)
    3282                    DW$T$61 .dwtag  DW_TAG_typedef, DW_AT_name("dsp_algorithm_sound_t"), DW_AT_type(*DW$T$41)
    3283                            .dwattr DW$T$61, DW_AT_language(DW_LANG_C)
    3284                    DW$T$62 .dwtag  DW_TAG_typedef, DW_AT_name("dsp_algorithm_devparam_t"), DW_AT_type(*DW$T$43)
    3285                            .dwattr DW$T$62, DW_AT_language(DW_LANG_C)
    3286                    DW$T$63 .dwtag  DW_TAG_typedef, DW_AT_name("dsp_tsk_watchdog_t"), DW_AT_type(*DW$T$44)
    3287                            .dwattr DW$T$63, DW_AT_language(DW_LANG_C)
    3288                    DW$T$64 .dwtag  DW_TAG_typedef, DW_AT_name("dsp_icon_t"), DW_AT_type(*DW$T$45)
    3289                            .dwattr DW$T$64, DW_AT_language(DW_LANG_C)
    3290                    DW$T$65 .dwtag  DW_TAG_typedef, DW_AT_name("dsp_mac_t"), DW_AT_type(*DW$T$47)
    3291                            .dwattr DW$T$65, DW_AT_language(DW_LANG_C)
    3292                    DW$T$66 .dwtag  DW_TAG_typedef, DW_AT_name("dsp_copyimg_t"), DW_AT_type(*DW$T$49)
    3293                            .dwattr DW$T$66, DW_AT_language(DW_LANG_C)
    3294                    DW$T$67 .dwtag  DW_TAG_typedef, DW_AT_name("dsp_testimg_t"), DW_AT_type(*DW$T$52)
    3295                            .dwattr DW$T$67, DW_AT_language(DW_LANG_C)
    3296                    DW$T$68 .dwtag  DW_TAG_typedef, DW_AT_name("dsp_distance_ctrl_t"), DW_AT_type(*DW$T$53)
    3297                            .dwattr DW$T$68, DW_AT_language(DW_LANG_C)
    3298                    DW$T$69 .dwtag  DW_TAG_typedef, DW_AT_name("dsp_buildtime_t"), DW_AT_type(*DW$T$56)
    3299                            .dwattr DW$T$69, DW_AT_language(DW_LANG_C)
    3300                    DW$T$70 .dwtag  DW_TAG_typedef, DW_AT_name("switch_control_t"), DW_AT_type(*DW$T$57)
TMS320C6x COFF Assembler PC v5.1.0 Thu Mar 31 17:05:45 2011

Tools Copyright (c) 1996-2005 Texas Instruments Incorporated
C:\Users\ADMINI~1\AppData\Local\Temp\TI8242                          PAGE   61

    3301                            .dwattr DW$T$70, DW_AT_language(DW_LANG_C)
    3302                    
    3303                    DW$T$72 .dwtag  DW_TAG_structure_type
    3304                            .dwattr DW$T$72, DW_AT_name("dsp_status_t")
    3305                            .dwattr DW$T$72, DW_AT_byte_size(0x18)
    3306                    DW$219  .dwtag  DW_TAG_member, DW_AT_type(*DW$T$9)
    3307                            .dwattr DW$219, DW_AT_name("tsk_img_status"), DW_AT_symbol_name("_tsk_img_status")
    3308                            .dwattr DW$219, DW_AT_data_member_location[DW_OP_plus_uconst 0x0]
    3309                            .dwattr DW$219, DW_AT_accessibility(DW_ACCESS_public)
    3310                    DW$220  .dwtag  DW_TAG_member, DW_AT_type(*DW$T$9)
    3311                            .dwattr DW$220, DW_AT_name("tsk_alg_status"), DW_AT_symbol_name("_tsk_alg_status")
    3312                            .dwattr DW$220, DW_AT_data_member_location[DW_OP_plus_uconst 0x2]
    3313                            .dwattr DW$220, DW_AT_accessibility(DW_ACCESS_public)
    3314                    DW$221  .dwtag  DW_TAG_member, DW_AT_type(*DW$T$9)
    3315                            .dwattr DW$221, DW_AT_name("tsk_alg_saved_status"), DW_AT_symbol_name("_tsk_alg_saved_status")
    3316                            .dwattr DW$221, DW_AT_data_member_location[DW_OP_plus_uconst 0x4]
    3317                            .dwattr DW$221, DW_AT_accessibility(DW_ACCESS_public)
    3318                    DW$222  .dwtag  DW_TAG_member, DW_AT_type(*DW$T$9)
    3319                            .dwattr DW$222, DW_AT_name("tsk_alg_inuse"), DW_AT_symbol_name("_tsk_alg_inuse")
    3320                            .dwattr DW$222, DW_AT_data_member_location[DW_OP_plus_uconst 0x6]
    3321                            .dwattr DW$222, DW_AT_accessibility(DW_ACCESS_public)
    3322                    DW$223  .dwtag  DW_TAG_member, DW_AT_type(*DW$T$10)
    3323                            .dwattr DW$223, DW_AT_name("proc_start_time"), DW_AT_symbol_name("_proc_start_time")
    3324                            .dwattr DW$223, DW_AT_data_member_location[DW_OP_plus_uconst 0x8]
    3325                            .dwattr DW$223, DW_AT_accessibility(DW_ACCESS_public)
    3326                    DW$224  .dwtag  DW_TAG_member, DW_AT_type(*DW$T$10)
    3327                            .dwattr DW$224, DW_AT_name("proc_timeout"), DW_AT_symbol_name("_proc_timeout")
    3328                            .dwattr DW$224, DW_AT_data_member_location[DW_OP_plus_uconst 0xc]
    3329                            .dwattr DW$224, DW_AT_accessibility(DW_ACCESS_public)
    3330                    DW$225  .dwtag  DW_TAG_member, DW_AT_type(*DW$T$11)
    3331                            .dwattr DW$225, DW_AT_name("tsk_testimg_tag_left"), DW_AT_symbol_name("_tsk_testimg_tag_left")
    3332                            .dwattr DW$225, DW_AT_data_member_location[DW_OP_plus_uconst 0x10]
    3333                            .dwattr DW$225, DW_AT_accessibility(DW_ACCESS_public)
    3334                    DW$226  .dwtag  DW_TAG_member, DW_AT_type(*DW$T$11)
    3335                            .dwattr DW$226, DW_AT_name("tsk_testimg_tag_right"), DW_AT_symbol_name("_tsk_testimg_tag_right
    3336                            .dwattr DW$226, DW_AT_data_member_location[DW_OP_plus_uconst 0x14]
    3337                            .dwattr DW$226, DW_AT_accessibility(DW_ACCESS_public)
    3338                            .dwendtag DW$T$72
    3339                    
    3340                    
    3341                    DW$T$73 .dwtag  DW_TAG_structure_type
    3342                            .dwattr DW$T$73, DW_AT_name("dsp_distance_t")
    3343                            .dwattr DW$T$73, DW_AT_byte_size(0x24)
    3344                    DW$227  .dwtag  DW_TAG_member, DW_AT_type(*DW$T$11)
    3345                            .dwattr DW$227, DW_AT_name("same_count"), DW_AT_symbol_name("_same_count")
    3346                            .dwattr DW$227, DW_AT_data_member_location[DW_OP_plus_uconst 0x0]
    3347                            .dwattr DW$227, DW_AT_accessibility(DW_ACCESS_public)
    3348                    DW$228  .dwtag  DW_TAG_member, DW_AT_type(*DW$T$11)
    3349                            .dwattr DW$228, DW_AT_name("last_distance"), DW_AT_symbol_name("_last_distance")
    3350                            .dwattr DW$228, DW_AT_data_member_location[DW_OP_plus_uconst 0x4]
    3351                            .dwattr DW$228, DW_AT_accessibility(DW_ACCESS_public)
    3352                    DW$229  .dwtag  DW_TAG_member, DW_AT_type(*DW$T$11)
    3353                            .dwattr DW$229, DW_AT_name("if_has_people"), DW_AT_symbol_name("_if_has_people")
    3354                            .dwattr DW$229, DW_AT_data_member_location[DW_OP_plus_uconst 0x8]
    3355                            .dwattr DW$229, DW_AT_accessibility(DW_ACCESS_public)
TMS320C6x COFF Assembler PC v5.1.0 Thu Mar 31 17:05:45 2011

Tools Copyright (c) 1996-2005 Texas Instruments Incorporated
C:\Users\ADMINI~1\AppData\Local\Temp\TI8242                          PAGE   62

    3356                    DW$230  .dwtag  DW_TAG_member, DW_AT_type(*DW$T$11)
    3357                            .dwattr DW$230, DW_AT_name("last_if_has"), DW_AT_symbol_name("_last_if_has")
    3358                            .dwattr DW$230, DW_AT_data_member_location[DW_OP_plus_uconst 0xc]
    3359                            .dwattr DW$230, DW_AT_accessibility(DW_ACCESS_public)
    3360                    DW$231  .dwtag  DW_TAG_member, DW_AT_type(*DW$T$11)
    3361                            .dwattr DW$231, DW_AT_name("no_count"), DW_AT_symbol_name("_no_count")
    3362                            .dwattr DW$231, DW_AT_data_member_location[DW_OP_plus_uconst 0x10]
    3363                            .dwattr DW$231, DW_AT_accessibility(DW_ACCESS_public)
    3364                    DW$232  .dwtag  DW_TAG_member, DW_AT_type(*DW$T$11)
    3365                            .dwattr DW$232, DW_AT_name("has_count"), DW_AT_symbol_name("_has_count")
    3366                            .dwattr DW$232, DW_AT_data_member_location[DW_OP_plus_uconst 0x14]
    3367                            .dwattr DW$232, DW_AT_accessibility(DW_ACCESS_public)
    3368                    DW$233  .dwtag  DW_TAG_member, DW_AT_type(*DW$T$11)
    3369                            .dwattr DW$233, DW_AT_name("disp_count"), DW_AT_symbol_name("_disp_count")
    3370                            .dwattr DW$233, DW_AT_data_member_location[DW_OP_plus_uconst 0x18]
    3371                            .dwattr DW$233, DW_AT_accessibility(DW_ACCESS_public)
    3372                    DW$234  .dwtag  DW_TAG_member, DW_AT_type(*DW$T$11)
    3373                            .dwattr DW$234, DW_AT_name("if_disp_image"), DW_AT_symbol_name("_if_disp_image")
    3374                            .dwattr DW$234, DW_AT_data_member_location[DW_OP_plus_uconst 0x1c]
    3375                            .dwattr DW$234, DW_AT_accessibility(DW_ACCESS_public)
    3376                    DW$235  .dwtag  DW_TAG_member, DW_AT_type(*DW$T$11)
    3377                            .dwattr DW$235, DW_AT_name("wait_frame"), DW_AT_symbol_name("_wait_frame")
    3378                            .dwattr DW$235, DW_AT_data_member_location[DW_OP_plus_uconst 0x20]
    3379                            .dwattr DW$235, DW_AT_accessibility(DW_ACCESS_public)
    3380                            .dwendtag DW$T$73
    3381                    
    3382                    
    3383                    DW$T$75 .dwtag  DW_TAG_structure_type
    3384                            .dwattr DW$T$75, DW_AT_name("policy_t")
    3385                            .dwattr DW$T$75, DW_AT_byte_size(0x28)
    3386                    DW$236  .dwtag  DW_TAG_member, DW_AT_type(*DW$T$9)
    3387                            .dwattr DW$236, DW_AT_name("policy_control"), DW_AT_symbol_name("_policy_control")
    3388                            .dwattr DW$236, DW_AT_data_member_location[DW_OP_plus_uconst 0x0]
    3389                            .dwattr DW$236, DW_AT_accessibility(DW_ACCESS_public)
    3390                    DW$237  .dwtag  DW_TAG_member, DW_AT_type(*DW$T$9)
    3391                            .dwattr DW$237, DW_AT_name("iden_count"), DW_AT_symbol_name("_iden_count")
    3392                            .dwattr DW$237, DW_AT_data_member_location[DW_OP_plus_uconst 0x2]
    3393                            .dwattr DW$237, DW_AT_accessibility(DW_ACCESS_public)
    3394                    DW$238  .dwtag  DW_TAG_member, DW_AT_type(*DW$T$9)
    3395                            .dwattr DW$238, DW_AT_name("iden_mode"), DW_AT_symbol_name("_iden_mode")
    3396                            .dwattr DW$238, DW_AT_data_member_location[DW_OP_plus_uconst 0x4]
    3397                            .dwattr DW$238, DW_AT_accessibility(DW_ACCESS_public)
    3398                    DW$239  .dwtag  DW_TAG_member, DW_AT_type(*DW$T$9)
    3399                            .dwattr DW$239, DW_AT_name("data_type"), DW_AT_symbol_name("_data_type")
    3400                            .dwattr DW$239, DW_AT_data_member_location[DW_OP_plus_uconst 0x6]
    3401                            .dwattr DW$239, DW_AT_accessibility(DW_ACCESS_public)
    3402                    DW$240  .dwtag  DW_TAG_member, DW_AT_type(*DW$T$74)
    3403                            .dwattr DW$240, DW_AT_name("enroll_score_l"), DW_AT_symbol_name("_enroll_score_l")
    3404                            .dwattr DW$240, DW_AT_data_member_location[DW_OP_plus_uconst 0x8]
    3405                            .dwattr DW$240, DW_AT_accessibility(DW_ACCESS_public)
    3406                    DW$241  .dwtag  DW_TAG_member, DW_AT_type(*DW$T$74)
    3407                            .dwattr DW$241, DW_AT_name("enroll_score_r"), DW_AT_symbol_name("_enroll_score_r")
    3408                            .dwattr DW$241, DW_AT_data_member_location[DW_OP_plus_uconst 0x18]
    3409                            .dwattr DW$241, DW_AT_accessibility(DW_ACCESS_public)
    3410                            .dwendtag DW$T$75
TMS320C6x COFF Assembler PC v5.1.0 Thu Mar 31 17:05:45 2011

Tools Copyright (c) 1996-2005 Texas Instruments Incorporated
C:\Users\ADMINI~1\AppData\Local\Temp\TI8242                          PAGE   63

    3411                    
    3412                    
    3413                    DW$T$76 .dwtag  DW_TAG_structure_type
    3414                            .dwattr DW$T$76, DW_AT_name("dsp_sound_t")
    3415                            .dwattr DW$T$76, DW_AT_byte_size(0x08)
    3416                    DW$242  .dwtag  DW_TAG_member, DW_AT_type(*DW$T$11)
    3417                            .dwattr DW$242, DW_AT_name("last_sound_time"), DW_AT_symbol_name("_last_sound_time")
    3418                            .dwattr DW$242, DW_AT_data_member_location[DW_OP_plus_uconst 0x0]
    3419                            .dwattr DW$242, DW_AT_accessibility(DW_ACCESS_public)
    3420                    DW$243  .dwtag  DW_TAG_member, DW_AT_type(*DW$T$11)
    3421                            .dwattr DW$243, DW_AT_name("last_sound_value"), DW_AT_symbol_name("_last_sound_value")
    3422                            .dwattr DW$243, DW_AT_data_member_location[DW_OP_plus_uconst 0x4]
    3423                            .dwattr DW$243, DW_AT_accessibility(DW_ACCESS_public)
    3424                            .dwendtag DW$T$76
    3425                    
    3426                    
    3427                    DW$T$78 .dwtag  DW_TAG_structure_type
    3428                            .dwattr DW$T$78, DW_AT_name("dsp_result_t")
    3429                            .dwattr DW$T$78, DW_AT_byte_size(0x0c)
    3430                    DW$244  .dwtag  DW_TAG_member, DW_AT_type(*DW$T$77)
    3431                            .dwattr DW$244, DW_AT_name("count"), DW_AT_symbol_name("_count")
    3432                            .dwattr DW$244, DW_AT_data_member_location[DW_OP_plus_uconst 0x0]
    3433                            .dwattr DW$244, DW_AT_accessibility(DW_ACCESS_public)
    3434                    DW$245  .dwtag  DW_TAG_member, DW_AT_type(*DW$T$77)
    3435                            .dwattr DW$245, DW_AT_name("result"), DW_AT_symbol_name("_result")
    3436                            .dwattr DW$245, DW_AT_data_member_location[DW_OP_plus_uconst 0x4]
    3437                            .dwattr DW$245, DW_AT_accessibility(DW_ACCESS_public)
    3438                    DW$246  .dwtag  DW_TAG_member, DW_AT_type(*DW$T$77)
    3439                            .dwattr DW$246, DW_AT_name("grab_iden_result"), DW_AT_symbol_name("_grab_iden_result")
    3440                            .dwattr DW$246, DW_AT_data_member_location[DW_OP_plus_uconst 0x8]
    3441                            .dwattr DW$246, DW_AT_accessibility(DW_ACCESS_public)
    3442                            .dwendtag DW$T$78
    3443                    
    3444                    DW$T$90 .dwtag  DW_TAG_typedef, DW_AT_name("iris_loc_t"), DW_AT_type(*DW$T$89)
    3445                            .dwattr DW$T$90, DW_AT_language(DW_LANG_C)
    3446                    
    3447                    DW$T$96 .dwtag  DW_TAG_array_type, DW_AT_type(*DW$T$95)
    3448                            .dwattr DW$T$96, DW_AT_language(DW_LANG_C)
    3449                            .dwattr DW$T$96, DW_AT_byte_size(0x70)
    3450                    DW$247  .dwtag  DW_TAG_subrange_type
    3451                            .dwattr DW$247, DW_AT_upper_bound(0x00)
    3452                            .dwendtag DW$T$96
    3453                    
    3454                    DW$T$94 .dwtag  DW_TAG_typedef, DW_AT_name("dsp_result_data_header_t"), DW_AT_type(*DW$T$93)
    3455                            .dwattr DW$T$94, DW_AT_language(DW_LANG_C)
    3456                    
    3457                    DW$T$77 .dwtag  DW_TAG_array_type, DW_AT_type(*DW$T$8)
    3458                            .dwattr DW$T$77, DW_AT_language(DW_LANG_C)
    3459                            .dwattr DW$T$77, DW_AT_byte_size(0x04)
    3460                    DW$248  .dwtag  DW_TAG_subrange_type
    3461                            .dwattr DW$248, DW_AT_upper_bound(0x01)
    3462                            .dwendtag DW$T$77
    3463                    
    3464                    
    3465                    DW$T$74 .dwtag  DW_TAG_array_type, DW_AT_type(*DW$T$10)
TMS320C6x COFF Assembler PC v5.1.0 Thu Mar 31 17:05:45 2011

Tools Copyright (c) 1996-2005 Texas Instruments Incorporated
C:\Users\ADMINI~1\AppData\Local\Temp\TI8242                          PAGE   64

    3466                            .dwattr DW$T$74, DW_AT_language(DW_LANG_C)
    3467                            .dwattr DW$T$74, DW_AT_byte_size(0x10)
    3468                    DW$249  .dwtag  DW_TAG_subrange_type
    3469                            .dwattr DW$249, DW_AT_upper_bound(0x03)
    3470                            .dwendtag DW$T$74
    3471                    
    3472                    DW$T$26 .dwtag  DW_TAG_pointer_type, DW_AT_type(*DW$T$24)
    3473                            .dwattr DW$T$26, DW_AT_address_class(0x20)
    3474                    DW$T$28 .dwtag  DW_TAG_pointer_type, DW_AT_type(*DW$T$25)
    3475                            .dwattr DW$T$28, DW_AT_address_class(0x20)
    3476                    
    3477                    DW$T$34 .dwtag  DW_TAG_structure_type
    3478                            .dwattr DW$T$34, DW_AT_name("dsp_tsk_control_t")
    3479                            .dwattr DW$T$34, DW_AT_byte_size(0x0c)
    3480                    DW$250  .dwtag  DW_TAG_member, DW_AT_type(*DW$T$9)
    3481                            .dwattr DW$250, DW_AT_name("tsk_img_control"), DW_AT_symbol_name("_tsk_img_control")
    3482                            .dwattr DW$250, DW_AT_data_member_location[DW_OP_plus_uconst 0x0]
    3483                            .dwattr DW$250, DW_AT_accessibility(DW_ACCESS_public)
    3484                    DW$251  .dwtag  DW_TAG_member, DW_AT_type(*DW$T$9)
    3485                            .dwattr DW$251, DW_AT_name("tsk_img_control_count"), DW_AT_symbol_name("_tsk_img_control_count
    3486                            .dwattr DW$251, DW_AT_data_member_location[DW_OP_plus_uconst 0x2]
    3487                            .dwattr DW$251, DW_AT_accessibility(DW_ACCESS_public)
    3488                    DW$252  .dwtag  DW_TAG_member, DW_AT_type(*DW$T$9)
    3489                            .dwattr DW$252, DW_AT_name("tsk_alg_control"), DW_AT_symbol_name("_tsk_alg_control")
    3490                            .dwattr DW$252, DW_AT_data_member_location[DW_OP_plus_uconst 0x4]
    3491                            .dwattr DW$252, DW_AT_accessibility(DW_ACCESS_public)
    3492                    DW$253  .dwtag  DW_TAG_member, DW_AT_type(*DW$T$9)
    3493                            .dwattr DW$253, DW_AT_name("tsk_alg_control_count"), DW_AT_symbol_name("_tsk_alg_control_count
    3494                            .dwattr DW$253, DW_AT_data_member_location[DW_OP_plus_uconst 0x6]
    3495                            .dwattr DW$253, DW_AT_accessibility(DW_ACCESS_public)
    3496                    DW$254  .dwtag  DW_TAG_member, DW_AT_type(*DW$T$11)
    3497                            .dwattr DW$254, DW_AT_name("tsk_adc_value"), DW_AT_symbol_name("_tsk_adc_value")
    3498                            .dwattr DW$254, DW_AT_data_member_location[DW_OP_plus_uconst 0x8]
    3499                            .dwattr DW$254, DW_AT_accessibility(DW_ACCESS_public)
    3500                            .dwendtag DW$T$34
    3501                    
    3502                    
    3503                    DW$T$35 .dwtag  DW_TAG_structure_type
    3504                            .dwattr DW$T$35, DW_AT_name("dsp_tsk_policy_t")
    3505                            .dwattr DW$T$35, DW_AT_byte_size(0x0c)
    3506                    DW$255  .dwtag  DW_TAG_member, DW_AT_type(*DW$T$9)
    3507                            .dwattr DW$255, DW_AT_name("policy_control"), DW_AT_symbol_name("_policy_control")
    3508                            .dwattr DW$255, DW_AT_data_member_location[DW_OP_plus_uconst 0x0]
    3509                            .dwattr DW$255, DW_AT_accessibility(DW_ACCESS_public)
    3510                    DW$256  .dwtag  DW_TAG_member, DW_AT_type(*DW$T$9)
    3511                            .dwattr DW$256, DW_AT_name("try_count"), DW_AT_symbol_name("_try_count")
    3512                            .dwattr DW$256, DW_AT_data_member_location[DW_OP_plus_uconst 0x2]
    3513                            .dwattr DW$256, DW_AT_accessibility(DW_ACCESS_public)
    3514                    DW$257  .dwtag  DW_TAG_member, DW_AT_type(*DW$T$9)
    3515                            .dwattr DW$257, DW_AT_name("iden_mode"), DW_AT_symbol_name("_iden_mode")
    3516                            .dwattr DW$257, DW_AT_data_member_location[DW_OP_plus_uconst 0x4]
    3517                            .dwattr DW$257, DW_AT_accessibility(DW_ACCESS_public)
    3518                    DW$258  .dwtag  DW_TAG_member, DW_AT_type(*DW$T$9)
    3519                            .dwattr DW$258, DW_AT_name("data_type"), DW_AT_symbol_name("_data_type")
    3520                            .dwattr DW$258, DW_AT_data_member_location[DW_OP_plus_uconst 0x6]
TMS320C6x COFF Assembler PC v5.1.0 Thu Mar 31 17:05:45 2011

Tools Copyright (c) 1996-2005 Texas Instruments Incorporated
C:\Users\ADMINI~1\AppData\Local\Temp\TI8242                          PAGE   65

    3521                            .dwattr DW$258, DW_AT_accessibility(DW_ACCESS_public)
    3522                    DW$259  .dwtag  DW_TAG_member, DW_AT_type(*DW$T$11)
    3523                            .dwattr DW$259, DW_AT_name("policy_flag"), DW_AT_symbol_name("_policy_flag")
    3524                            .dwattr DW$259, DW_AT_data_member_location[DW_OP_plus_uconst 0x8]
    3525                            .dwattr DW$259, DW_AT_accessibility(DW_ACCESS_public)
    3526                            .dwendtag DW$T$35
    3527                    
    3528                    
    3529                    DW$T$38 .dwtag  DW_TAG_structure_type
    3530                            .dwattr DW$T$38, DW_AT_name("dsp_tsk_flag_t")
    3531                            .dwattr DW$T$38, DW_AT_byte_size(0x1c)
    3532                    DW$260  .dwtag  DW_TAG_member, DW_AT_type(*DW$T$11)
    3533                            .dwattr DW$260, DW_AT_name("tsk_img_resp"), DW_AT_symbol_name("_tsk_img_resp")
    3534                            .dwattr DW$260, DW_AT_data_member_location[DW_OP_plus_uconst 0x0]
    3535                            .dwattr DW$260, DW_AT_accessibility(DW_ACCESS_public)
    3536                    DW$261  .dwtag  DW_TAG_member, DW_AT_type(*DW$T$9)
    3537                            .dwattr DW$261, DW_AT_name("tsk_alg_status"), DW_AT_symbol_name("_tsk_alg_status")
    3538                            .dwattr DW$261, DW_AT_data_member_location[DW_OP_plus_uconst 0x4]
    3539                            .dwattr DW$261, DW_AT_accessibility(DW_ACCESS_public)
    3540                    DW$262  .dwtag  DW_TAG_member, DW_AT_type(*DW$T$9)
    3541                            .dwattr DW$262, DW_AT_name("tsk_alg_status_count"), DW_AT_symbol_name("_tsk_alg_status_count")
    3542                            .dwattr DW$262, DW_AT_data_member_location[DW_OP_plus_uconst 0x6]
    3543                            .dwattr DW$262, DW_AT_accessibility(DW_ACCESS_public)
    3544                    DW$263  .dwtag  DW_TAG_member, DW_AT_type(*DW$T$9)
    3545                            .dwattr DW$263, DW_AT_name("req_tsk_alg_control"), DW_AT_symbol_name("_req_tsk_alg_control")
    3546                            .dwattr DW$263, DW_AT_data_member_location[DW_OP_plus_uconst 0x8]
    3547                            .dwattr DW$263, DW_AT_accessibility(DW_ACCESS_public)
    3548                    DW$264  .dwtag  DW_TAG_member, DW_AT_type(*DW$T$9)
    3549                            .dwattr DW$264, DW_AT_name("req_tsk_alg_control_count"), DW_AT_symbol_name("_req_tsk_alg_contr
    3550                            .dwattr DW$264, DW_AT_data_member_location[DW_OP_plus_uconst 0xa]
    3551                            .dwattr DW$264, DW_AT_accessibility(DW_ACCESS_public)
    3552                    DW$265  .dwtag  DW_TAG_member, DW_AT_type(*DW$T$37)
    3553                            .dwattr DW$265, DW_AT_name("left_data"), DW_AT_symbol_name("_left_data")
    3554                            .dwattr DW$265, DW_AT_data_member_location[DW_OP_plus_uconst 0xc]
    3555                            .dwattr DW$265, DW_AT_accessibility(DW_ACCESS_public)
    3556                    DW$266  .dwtag  DW_TAG_member, DW_AT_type(*DW$T$37)
    3557                            .dwattr DW$266, DW_AT_name("right_data"), DW_AT_symbol_name("_right_data")
    3558                            .dwattr DW$266, DW_AT_data_member_location[DW_OP_plus_uconst 0x14]
    3559                            .dwattr DW$266, DW_AT_accessibility(DW_ACCESS_public)
    3560                            .dwendtag DW$T$38
    3561                    
    3562                    
    3563                    DW$T$40 .dwtag  DW_TAG_structure_type
    3564                            .dwattr DW$T$40, DW_AT_name("dsp_algorithm_result_t")
    3565                            .dwattr DW$T$40, DW_AT_byte_size(0x20)
    3566                    DW$267  .dwtag  DW_TAG_member, DW_AT_type(*DW$T$11)
    3567                            .dwattr DW$267, DW_AT_name("result_type"), DW_AT_symbol_name("_result_type")
    3568                            .dwattr DW$267, DW_AT_data_member_location[DW_OP_plus_uconst 0x0]
    3569                            .dwattr DW$267, DW_AT_accessibility(DW_ACCESS_public)
    3570                    DW$268  .dwtag  DW_TAG_member, DW_AT_type(*DW$T$39)
    3571                            .dwattr DW$268, DW_AT_name("policy"), DW_AT_symbol_name("_policy")
    3572                            .dwattr DW$268, DW_AT_data_member_location[DW_OP_plus_uconst 0x4]
    3573                            .dwattr DW$268, DW_AT_accessibility(DW_ACCESS_public)
    3574                    DW$269  .dwtag  DW_TAG_member, DW_AT_type(*DW$T$11)
    3575                            .dwattr DW$269, DW_AT_name("feature_tag"), DW_AT_symbol_name("_feature_tag")
TMS320C6x COFF Assembler PC v5.1.0 Thu Mar 31 17:05:45 2011

Tools Copyright (c) 1996-2005 Texas Instruments Incorporated
C:\Users\ADMINI~1\AppData\Local\Temp\TI8242                          PAGE   66

    3576                            .dwattr DW$269, DW_AT_data_member_location[DW_OP_plus_uconst 0x10]
    3577                            .dwattr DW$269, DW_AT_accessibility(DW_ACCESS_public)
    3578                    DW$270  .dwtag  DW_TAG_member, DW_AT_type(*DW$T$10)
    3579                            .dwattr DW$270, DW_AT_name("left_result"), DW_AT_symbol_name("_left_result")
    3580                            .dwattr DW$270, DW_AT_data_member_location[DW_OP_plus_uconst 0x14]
    3581                            .dwattr DW$270, DW_AT_accessibility(DW_ACCESS_public)
    3582                    DW$271  .dwtag  DW_TAG_member, DW_AT_type(*DW$T$10)
    3583                            .dwattr DW$271, DW_AT_name("right_result"), DW_AT_symbol_name("_right_result")
    3584                            .dwattr DW$271, DW_AT_data_member_location[DW_OP_plus_uconst 0x18]
    3585                            .dwattr DW$271, DW_AT_accessibility(DW_ACCESS_public)
    3586                    DW$272  .dwtag  DW_TAG_member, DW_AT_type(*DW$T$3)
    3587                            .dwattr DW$272, DW_AT_name("result_data"), DW_AT_symbol_name("_result_data")
    3588                            .dwattr DW$272, DW_AT_data_member_location[DW_OP_plus_uconst 0x1c]
    3589                            .dwattr DW$272, DW_AT_accessibility(DW_ACCESS_public)
    3590                            .dwendtag DW$T$40
    3591                    
    3592                    
    3593                    DW$T$41 .dwtag  DW_TAG_structure_type
    3594                            .dwattr DW$T$41, DW_AT_name("dsp_algorithm_sound_t")
    3595                            .dwattr DW$T$41, DW_AT_byte_size(0x08)
    3596                    DW$273  .dwtag  DW_TAG_member, DW_AT_type(*DW$T$11)
    3597                            .dwattr DW$273, DW_AT_name("sound_value"), DW_AT_symbol_name("_sound_value")
    3598                            .dwattr DW$273, DW_AT_data_member_location[DW_OP_plus_uconst 0x0]
    3599                            .dwattr DW$273, DW_AT_accessibility(DW_ACCESS_public)
    3600                    DW$274  .dwtag  DW_TAG_member, DW_AT_type(*DW$T$11)
    3601                            .dwattr DW$274, DW_AT_name("sound_count"), DW_AT_symbol_name("_sound_count")
    3602                            .dwattr DW$274, DW_AT_data_member_location[DW_OP_plus_uconst 0x4]
    3603                            .dwattr DW$274, DW_AT_accessibility(DW_ACCESS_public)
    3604                            .dwendtag DW$T$41
    3605                    
    3606                    
    3607                    DW$T$43 .dwtag  DW_TAG_structure_type
    3608                            .dwattr DW$T$43, DW_AT_name("dsp_algorithm_devparam_t")
    3609                            .dwattr DW$T$43, DW_AT_byte_size(0x54)
    3610                    DW$275  .dwtag  DW_TAG_member, DW_AT_type(*DW$T$11)
    3611                            .dwattr DW$275, DW_AT_name("param_count"), DW_AT_symbol_name("_param_count")
    3612                            .dwattr DW$275, DW_AT_data_member_location[DW_OP_plus_uconst 0x0]
    3613                            .dwattr DW$275, DW_AT_accessibility(DW_ACCESS_public)
    3614                    DW$276  .dwtag  DW_TAG_member, DW_AT_type(*DW$T$42)
    3615                            .dwattr DW$276, DW_AT_name("device_param"), DW_AT_symbol_name("_device_param")
    3616                            .dwattr DW$276, DW_AT_data_member_location[DW_OP_plus_uconst 0x4]
    3617                            .dwattr DW$276, DW_AT_accessibility(DW_ACCESS_public)
    3618                            .dwendtag DW$T$43
    3619                    
    3620                    
    3621                    DW$T$44 .dwtag  DW_TAG_structure_type
    3622                            .dwattr DW$T$44, DW_AT_name("dsp_tsk_watchdog_t")
    3623                            .dwattr DW$T$44, DW_AT_byte_size(0x08)
    3624                    DW$277  .dwtag  DW_TAG_member, DW_AT_type(*DW$T$11)
    3625                            .dwattr DW$277, DW_AT_name("tsk_img_watchdog"), DW_AT_symbol_name("_tsk_img_watchdog")
    3626                            .dwattr DW$277, DW_AT_data_member_location[DW_OP_plus_uconst 0x0]
    3627                            .dwattr DW$277, DW_AT_accessibility(DW_ACCESS_public)
    3628                    DW$278  .dwtag  DW_TAG_member, DW_AT_type(*DW$T$11)
    3629                            .dwattr DW$278, DW_AT_name("tsk_alg_watchdog"), DW_AT_symbol_name("_tsk_alg_watchdog")
    3630                            .dwattr DW$278, DW_AT_data_member_location[DW_OP_plus_uconst 0x4]
TMS320C6x COFF Assembler PC v5.1.0 Thu Mar 31 17:05:45 2011

Tools Copyright (c) 1996-2005 Texas Instruments Incorporated
C:\Users\ADMINI~1\AppData\Local\Temp\TI8242                          PAGE   67

    3631                            .dwattr DW$278, DW_AT_accessibility(DW_ACCESS_public)
    3632                            .dwendtag DW$T$44
    3633                    
    3634                    
    3635                    DW$T$45 .dwtag  DW_TAG_structure_type
    3636                            .dwattr DW$T$45, DW_AT_name("dsp_icon_t")
    3637                            .dwattr DW$T$45, DW_AT_byte_size(0x14)
    3638                    DW$279  .dwtag  DW_TAG_member, DW_AT_type(*DW$T$11)
    3639                            .dwattr DW$279, DW_AT_name("req_icon_control"), DW_AT_symbol_name("_req_icon_control")
    3640                            .dwattr DW$279, DW_AT_data_member_location[DW_OP_plus_uconst 0x0]
    3641                            .dwattr DW$279, DW_AT_accessibility(DW_ACCESS_public)
    3642                    DW$280  .dwtag  DW_TAG_member, DW_AT_type(*DW$T$11)
    3643                            .dwattr DW$280, DW_AT_name("req_icon_id"), DW_AT_symbol_name("_req_icon_id")
    3644                            .dwattr DW$280, DW_AT_data_member_location[DW_OP_plus_uconst 0x4]
    3645                            .dwattr DW$280, DW_AT_accessibility(DW_ACCESS_public)
    3646                    DW$281  .dwtag  DW_TAG_member, DW_AT_type(*DW$T$11)
    3647                            .dwattr DW$281, DW_AT_name("dsp_icon_state"), DW_AT_symbol_name("_dsp_icon_state")
    3648                            .dwattr DW$281, DW_AT_data_member_location[DW_OP_plus_uconst 0x8]
    3649                            .dwattr DW$281, DW_AT_accessibility(DW_ACCESS_public)
    3650                    DW$282  .dwtag  DW_TAG_member, DW_AT_type(*DW$T$37)
    3651                            .dwattr DW$282, DW_AT_name("icon_data"), DW_AT_symbol_name("_icon_data")
    3652                            .dwattr DW$282, DW_AT_data_member_location[DW_OP_plus_uconst 0xc]
    3653                            .dwattr DW$282, DW_AT_accessibility(DW_ACCESS_public)
    3654                            .dwendtag DW$T$45
    3655                    
    3656                    
    3657                    DW$T$47 .dwtag  DW_TAG_structure_type
    3658                            .dwattr DW$T$47, DW_AT_name("dsp_mac_t")
    3659                            .dwattr DW$T$47, DW_AT_byte_size(0x08)
    3660                    DW$283  .dwtag  DW_TAG_member, DW_AT_type(*DW$T$46)
    3661                            .dwattr DW$283, DW_AT_name("mac_val"), DW_AT_symbol_name("_mac_val")
    3662                            .dwattr DW$283, DW_AT_data_member_location[DW_OP_plus_uconst 0x0]
    3663                            .dwattr DW$283, DW_AT_accessibility(DW_ACCESS_public)
    3664                            .dwendtag DW$T$47
    3665                    
    3666                    
    3667                    DW$T$49 .dwtag  DW_TAG_structure_type
    3668                            .dwattr DW$T$49, DW_AT_name("dsp_copyimg_t")
    3669                            .dwattr DW$T$49, DW_AT_byte_size(0x08)
    3670                    DW$284  .dwtag  DW_TAG_member, DW_AT_type(*DW$T$48)
    3671                            .dwattr DW$284, DW_AT_name("left_param"), DW_AT_symbol_name("_left_param")
    3672                            .dwattr DW$284, DW_AT_data_member_location[DW_OP_plus_uconst 0x0]
    3673                            .dwattr DW$284, DW_AT_accessibility(DW_ACCESS_public)
    3674                    DW$285  .dwtag  DW_TAG_member, DW_AT_type(*DW$T$48)
    3675                            .dwattr DW$285, DW_AT_name("right_param"), DW_AT_symbol_name("_right_param")
    3676                            .dwattr DW$285, DW_AT_data_member_location[DW_OP_plus_uconst 0x4]
    3677                            .dwattr DW$285, DW_AT_accessibility(DW_ACCESS_public)
    3678                            .dwendtag DW$T$49
    3679                    
    3680                    
    3681                    DW$T$52 .dwtag  DW_TAG_structure_type
    3682                            .dwattr DW$T$52, DW_AT_name("dsp_testimg_t")
    3683                            .dwattr DW$T$52, DW_AT_byte_size(0x28)
    3684                    DW$286  .dwtag  DW_TAG_member, DW_AT_type(*DW$T$51)
    3685                            .dwattr DW$286, DW_AT_name("left_eye"), DW_AT_symbol_name("_left_eye")
TMS320C6x COFF Assembler PC v5.1.0 Thu Mar 31 17:05:45 2011

Tools Copyright (c) 1996-2005 Texas Instruments Incorporated
C:\Users\ADMINI~1\AppData\Local\Temp\TI8242                          PAGE   68

    3686                            .dwattr DW$286, DW_AT_data_member_location[DW_OP_plus_uconst 0x0]
    3687                            .dwattr DW$286, DW_AT_accessibility(DW_ACCESS_public)
    3688                    DW$287  .dwtag  DW_TAG_member, DW_AT_type(*DW$T$51)
    3689                            .dwattr DW$287, DW_AT_name("right_eye"), DW_AT_symbol_name("_right_eye")
    3690                            .dwattr DW$287, DW_AT_data_member_location[DW_OP_plus_uconst 0x14]
    3691                            .dwattr DW$287, DW_AT_accessibility(DW_ACCESS_public)
    3692                            .dwendtag DW$T$52
    3693                    
    3694                    
    3695                    DW$T$53 .dwtag  DW_TAG_structure_type
    3696                            .dwattr DW$T$53, DW_AT_name("dsp_distance_ctrl_t")
    3697                            .dwattr DW$T$53, DW_AT_byte_size(0x10)
    3698                    DW$288  .dwtag  DW_TAG_member, DW_AT_type(*DW$T$9)
    3699                            .dwattr DW$288, DW_AT_name("adc_noperson"), DW_AT_symbol_name("_adc_noperson")
    3700                            .dwattr DW$288, DW_AT_data_member_location[DW_OP_plus_uconst 0x0]
    3701                            .dwattr DW$288, DW_AT_accessibility(DW_ACCESS_public)
    3702                    DW$289  .dwtag  DW_TAG_member, DW_AT_type(*DW$T$9)
    3703                            .dwattr DW$289, DW_AT_name("adc_toofar"), DW_AT_symbol_name("_adc_toofar")
    3704                            .dwattr DW$289, DW_AT_data_member_location[DW_OP_plus_uconst 0x2]
    3705                            .dwattr DW$289, DW_AT_accessibility(DW_ACCESS_public)
    3706                    DW$290  .dwtag  DW_TAG_member, DW_AT_type(*DW$T$9)
    3707                            .dwattr DW$290, DW_AT_name("adc_ok"), DW_AT_symbol_name("_adc_ok")
    3708                            .dwattr DW$290, DW_AT_data_member_location[DW_OP_plus_uconst 0x4]
    3709                            .dwattr DW$290, DW_AT_accessibility(DW_ACCESS_public)
    3710                    DW$291  .dwtag  DW_TAG_member, DW_AT_type(*DW$T$9)
    3711                            .dwattr DW$291, DW_AT_name("adc_tooclose"), DW_AT_symbol_name("_adc_tooclose")
    3712                            .dwattr DW$291, DW_AT_data_member_location[DW_OP_plus_uconst 0x6]
    3713                            .dwattr DW$291, DW_AT_accessibility(DW_ACCESS_public)
    3714                    DW$292  .dwtag  DW_TAG_member, DW_AT_type(*DW$T$9)
    3715                            .dwattr DW$292, DW_AT_name("adc_smooth"), DW_AT_symbol_name("_adc_smooth")
    3716                            .dwattr DW$292, DW_AT_data_member_location[DW_OP_plus_uconst 0x8]
    3717                            .dwattr DW$292, DW_AT_accessibility(DW_ACCESS_public)
    3718                    DW$293  .dwtag  DW_TAG_member, DW_AT_type(*DW$T$9)
    3719                            .dwattr DW$293, DW_AT_name("adc_noperson_disp"), DW_AT_symbol_name("_adc_noperson_disp")
    3720                            .dwattr DW$293, DW_AT_data_member_location[DW_OP_plus_uconst 0xa]
    3721                            .dwattr DW$293, DW_AT_accessibility(DW_ACCESS_public)
    3722                    DW$294  .dwtag  DW_TAG_member, DW_AT_type(*DW$T$9)
    3723                            .dwattr DW$294, DW_AT_name("adc_play_sound"), DW_AT_symbol_name("_adc_play_sound")
    3724                            .dwattr DW$294, DW_AT_data_member_location[DW_OP_plus_uconst 0xc]
    3725                            .dwattr DW$294, DW_AT_accessibility(DW_ACCESS_public)
    3726                    DW$295  .dwtag  DW_TAG_member, DW_AT_type(*DW$T$9)
    3727                            .dwattr DW$295, DW_AT_name("adc_nouse"), DW_AT_symbol_name("_adc_nouse")
    3728                            .dwattr DW$295, DW_AT_data_member_location[DW_OP_plus_uconst 0xe]
    3729                            .dwattr DW$295, DW_AT_accessibility(DW_ACCESS_public)
    3730                            .dwendtag DW$T$53
    3731                    
    3732                    
    3733                    DW$T$56 .dwtag  DW_TAG_structure_type
    3734                            .dwattr DW$T$56, DW_AT_name("dsp_buildtime_t")
    3735                            .dwattr DW$T$56, DW_AT_byte_size(0x20)
    3736                    DW$296  .dwtag  DW_TAG_member, DW_AT_type(*DW$T$55)
    3737                            .dwattr DW$296, DW_AT_name("datetime"), DW_AT_symbol_name("_datetime")
    3738                            .dwattr DW$296, DW_AT_data_member_location[DW_OP_plus_uconst 0x0]
    3739                            .dwattr DW$296, DW_AT_accessibility(DW_ACCESS_public)
    3740                            .dwendtag DW$T$56
TMS320C6x COFF Assembler PC v5.1.0 Thu Mar 31 17:05:45 2011

Tools Copyright (c) 1996-2005 Texas Instruments Incorporated
C:\Users\ADMINI~1\AppData\Local\Temp\TI8242                          PAGE   69

    3741                    
    3742                    
    3743                    DW$T$57 .dwtag  DW_TAG_structure_type
    3744                            .dwattr DW$T$57, DW_AT_name("switch_control_t")
    3745                            .dwattr DW$T$57, DW_AT_byte_size(0x04)
    3746                    DW$297  .dwtag  DW_TAG_member, DW_AT_type(*DW$T$11)
    3747                            .dwattr DW$297, DW_AT_name("ctrls"), DW_AT_symbol_name("_ctrls")
    3748                            .dwattr DW$297, DW_AT_data_member_location[DW_OP_plus_uconst 0x0]
    3749                            .dwattr DW$297, DW_AT_accessibility(DW_ACCESS_public)
    3750                            .dwendtag DW$T$57
    3751                    
    3752                    
    3753                    DW$T$89 .dwtag  DW_TAG_structure_type
    3754                            .dwattr DW$T$89, DW_AT_name("iris_loc_t")
    3755                            .dwattr DW$T$89, DW_AT_byte_size(0x54)
    3756                    DW$298  .dwtag  DW_TAG_member, DW_AT_type(*DW$T$88)
    3757                            .dwattr DW$298, DW_AT_name("pos_pupil"), DW_AT_symbol_name("_pos_pupil")
    3758                            .dwattr DW$298, DW_AT_data_member_location[DW_OP_plus_uconst 0x0]
    3759                            .dwattr DW$298, DW_AT_accessibility(DW_ACCESS_public)
    3760                    DW$299  .dwtag  DW_TAG_member, DW_AT_type(*DW$T$88)
    3761                            .dwattr DW$299, DW_AT_name("pos_iris"), DW_AT_symbol_name("_pos_iris")
    3762                            .dwattr DW$299, DW_AT_data_member_location[DW_OP_plus_uconst 0x10]
    3763                            .dwattr DW$299, DW_AT_accessibility(DW_ACCESS_public)
    3764                    DW$300  .dwtag  DW_TAG_member, DW_AT_type(*DW$T$10)
    3765                            .dwattr DW$300, DW_AT_name("overallVisiblePercent"), DW_AT_symbol_name("_overallVisiblePercent
    3766                            .dwattr DW$300, DW_AT_data_member_location[DW_OP_plus_uconst 0x20]
    3767                            .dwattr DW$300, DW_AT_accessibility(DW_ACCESS_public)
    3768                    DW$301  .dwtag  DW_TAG_member, DW_AT_type(*DW$T$10)
    3769                            .dwattr DW$301, DW_AT_name("focusScore"), DW_AT_symbol_name("_focusScore")
    3770                            .dwattr DW$301, DW_AT_data_member_location[DW_OP_plus_uconst 0x24]
    3771                            .dwattr DW$301, DW_AT_accessibility(DW_ACCESS_public)
    3772                    DW$302  .dwtag  DW_TAG_member, DW_AT_type(*DW$T$10)
    3773                            .dwattr DW$302, DW_AT_name("percentVisible"), DW_AT_symbol_name("_percentVisible")
    3774                            .dwattr DW$302, DW_AT_data_member_location[DW_OP_plus_uconst 0x28]
    3775                            .dwattr DW$302, DW_AT_accessibility(DW_ACCESS_public)
    3776                    DW$303  .dwtag  DW_TAG_member, DW_AT_type(*DW$T$10)
    3777                            .dwattr DW$303, DW_AT_name("numValidBits"), DW_AT_symbol_name("_numValidBits")
    3778                            .dwattr DW$303, DW_AT_data_member_location[DW_OP_plus_uconst 0x2c]
    3779                            .dwattr DW$303, DW_AT_accessibility(DW_ACCESS_public)
    3780                    DW$304  .dwtag  DW_TAG_member, DW_AT_type(*DW$T$10)
    3781                            .dwattr DW$304, DW_AT_name("spoofValue"), DW_AT_symbol_name("_spoofValue")
    3782                            .dwattr DW$304, DW_AT_data_member_location[DW_OP_plus_uconst 0x30]
    3783                            .dwattr DW$304, DW_AT_accessibility(DW_ACCESS_public)
    3784                    DW$305  .dwtag  DW_TAG_member, DW_AT_type(*DW$T$10)
    3785                            .dwattr DW$305, DW_AT_name("SNR"), DW_AT_symbol_name("_SNR")
    3786                            .dwattr DW$305, DW_AT_data_member_location[DW_OP_plus_uconst 0x34]
    3787                            .dwattr DW$305, DW_AT_accessibility(DW_ACCESS_public)
    3788                    DW$306  .dwtag  DW_TAG_member, DW_AT_type(*DW$T$10)
    3789                            .dwattr DW$306, DW_AT_name("Saturation"), DW_AT_symbol_name("_Saturation")
    3790                            .dwattr DW$306, DW_AT_data_member_location[DW_OP_plus_uconst 0x38]
    3791                            .dwattr DW$306, DW_AT_accessibility(DW_ACCESS_public)
    3792                    DW$307  .dwtag  DW_TAG_member, DW_AT_type(*DW$T$10)
    3793                            .dwattr DW$307, DW_AT_name("interlaceValue"), DW_AT_symbol_name("_interlaceValue")
    3794                            .dwattr DW$307, DW_AT_data_member_location[DW_OP_plus_uconst 0x3c]
    3795                            .dwattr DW$307, DW_AT_accessibility(DW_ACCESS_public)
TMS320C6x COFF Assembler PC v5.1.0 Thu Mar 31 17:05:45 2011

Tools Copyright (c) 1996-2005 Texas Instruments Incorporated
C:\Users\ADMINI~1\AppData\Local\Temp\TI8242                          PAGE   70

    3796                    DW$308  .dwtag  DW_TAG_member, DW_AT_type(*DW$T$10)
    3797                            .dwattr DW$308, DW_AT_name("reflectionRatioInROI"), DW_AT_symbol_name("_reflectionRatioInROI")
    3798                            .dwattr DW$308, DW_AT_data_member_location[DW_OP_plus_uconst 0x40]
    3799                            .dwattr DW$308, DW_AT_accessibility(DW_ACCESS_public)
    3800                    DW$309  .dwtag  DW_TAG_member, DW_AT_type(*DW$T$10)
    3801                            .dwattr DW$309, DW_AT_name("reflectionRatioInImage"), DW_AT_symbol_name("_reflectionRatioInIma
    3802                            .dwattr DW$309, DW_AT_data_member_location[DW_OP_plus_uconst 0x44]
    3803                            .dwattr DW$309, DW_AT_accessibility(DW_ACCESS_public)
    3804                    DW$310  .dwtag  DW_TAG_member, DW_AT_type(*DW$T$10)
    3805                            .dwattr DW$310, DW_AT_name("qualityLevel"), DW_AT_symbol_name("_qualityLevel")
    3806                            .dwattr DW$310, DW_AT_data_member_location[DW_OP_plus_uconst 0x48]
    3807                            .dwattr DW$310, DW_AT_accessibility(DW_ACCESS_public)
    3808                    DW$311  .dwtag  DW_TAG_member, DW_AT_type(*DW$T$10)
    3809                            .dwattr DW$311, DW_AT_name("locMethod"), DW_AT_symbol_name("_locMethod")
    3810                            .dwattr DW$311, DW_AT_data_member_location[DW_OP_plus_uconst 0x4c]
    3811                            .dwattr DW$311, DW_AT_accessibility(DW_ACCESS_public)
    3812                    DW$312  .dwtag  DW_TAG_member, DW_AT_type(*DW$T$10)
    3813                            .dwattr DW$312, DW_AT_name("ifSpoofDetect"), DW_AT_symbol_name("_ifSpoofDetect")
    3814                            .dwattr DW$312, DW_AT_data_member_location[DW_OP_plus_uconst 0x50]
    3815                            .dwattr DW$312, DW_AT_accessibility(DW_ACCESS_public)
    3816                            .dwendtag DW$T$89
    3817                    
    3818                    
    3819                    DW$T$93 .dwtag  DW_TAG_structure_type
    3820                            .dwattr DW$T$93, DW_AT_name("dsp_result_data_header_t")
    3821                            .dwattr DW$T$93, DW_AT_byte_size(0x0c)
    3822                    DW$313  .dwtag  DW_TAG_member, DW_AT_type(*DW$T$11)
    3823                            .dwattr DW$313, DW_AT_name("result_count"), DW_AT_symbol_name("_result_count")
    3824                            .dwattr DW$313, DW_AT_data_member_location[DW_OP_plus_uconst 0x0]
    3825                            .dwattr DW$313, DW_AT_accessibility(DW_ACCESS_public)
    3826                    DW$314  .dwtag  DW_TAG_member, DW_AT_type(*DW$T$11)
    3827                            .dwattr DW$314, DW_AT_name("result_byte_len"), DW_AT_symbol_name("_result_byte_len")
    3828                            .dwattr DW$314, DW_AT_data_member_location[DW_OP_plus_uconst 0x4]
    3829                            .dwattr DW$314, DW_AT_accessibility(DW_ACCESS_public)
    3830                    DW$315  .dwtag  DW_TAG_member, DW_AT_type(*DW$T$9)
    3831                            .dwattr DW$315, DW_AT_name("result_chksum"), DW_AT_symbol_name("_result_chksum")
    3832                            .dwattr DW$315, DW_AT_data_member_location[DW_OP_plus_uconst 0x8]
    3833                            .dwattr DW$315, DW_AT_accessibility(DW_ACCESS_public)
    3834                    DW$316  .dwtag  DW_TAG_member, DW_AT_type(*DW$T$9)
    3835                            .dwattr DW$316, DW_AT_name("algorithm_version"), DW_AT_symbol_name("_algorithm_version")
    3836                            .dwattr DW$316, DW_AT_data_member_location[DW_OP_plus_uconst 0xa]
    3837                            .dwattr DW$316, DW_AT_accessibility(DW_ACCESS_public)
    3838                            .dwendtag DW$T$93
    3839                    
    3840                    
    3841                    DW$T$46 .dwtag  DW_TAG_array_type, DW_AT_type(*DW$T$6)
    3842                            .dwattr DW$T$46, DW_AT_language(DW_LANG_C)
    3843                            .dwattr DW$T$46, DW_AT_byte_size(0x08)
    3844                    DW$317  .dwtag  DW_TAG_subrange_type
    3845                            .dwattr DW$317, DW_AT_upper_bound(0x07)
    3846                            .dwendtag DW$T$46
    3847                    
    3848                    DW$T$8  .dwtag  DW_TAG_base_type, DW_AT_name("short")
    3849                            .dwattr DW$T$8, DW_AT_encoding(DW_ATE_signed)
    3850                            .dwattr DW$T$8, DW_AT_byte_size(0x02)
TMS320C6x COFF Assembler PC v5.1.0 Thu Mar 31 17:05:45 2011

Tools Copyright (c) 1996-2005 Texas Instruments Incorporated
C:\Users\ADMINI~1\AppData\Local\Temp\TI8242                          PAGE   71

    3851                    
    3852                    DW$T$42 .dwtag  DW_TAG_array_type, DW_AT_type(*DW$T$10)
    3853                            .dwattr DW$T$42, DW_AT_language(DW_LANG_C)
    3854                            .dwattr DW$T$42, DW_AT_byte_size(0x50)
    3855                    DW$318  .dwtag  DW_TAG_subrange_type
    3856                            .dwattr DW$318, DW_AT_upper_bound(0x13)
    3857                            .dwendtag DW$T$42
    3858                    
    3859                    
    3860                    DW$T$24 .dwtag  DW_TAG_structure_type
    3861                            .dwattr DW$T$24, DW_AT_name("dsp_image_msg_t")
    3862                            .dwattr DW$T$24, DW_AT_byte_size(0x34)
    3863                    DW$319  .dwtag  DW_TAG_member, DW_AT_type(*DW$T$23)
    3864                            .dwattr DW$319, DW_AT_name("elem"), DW_AT_symbol_name("_elem")
    3865                            .dwattr DW$319, DW_AT_data_member_location[DW_OP_plus_uconst 0x0]
    3866                            .dwattr DW$319, DW_AT_accessibility(DW_ACCESS_public)
    3867                    DW$320  .dwtag  DW_TAG_member, DW_AT_type(*DW$T$11)
    3868                            .dwattr DW$320, DW_AT_name("img_saved_score_l"), DW_AT_symbol_name("_img_saved_score_l")
    3869                            .dwattr DW$320, DW_AT_data_member_location[DW_OP_plus_uconst 0x8]
    3870                            .dwattr DW$320, DW_AT_accessibility(DW_ACCESS_public)
    3871                    DW$321  .dwtag  DW_TAG_member, DW_AT_type(*DW$T$11)
    3872                            .dwattr DW$321, DW_AT_name("img_saved_score_r"), DW_AT_symbol_name("_img_saved_score_r")
    3873                            .dwattr DW$321, DW_AT_data_member_location[DW_OP_plus_uconst 0xc]
    3874                            .dwattr DW$321, DW_AT_accessibility(DW_ACCESS_public)
    3875                    DW$322  .dwtag  DW_TAG_member, DW_AT_type(*DW$T$19)
    3876                            .dwattr DW$322, DW_AT_name("img_ptr_l"), DW_AT_symbol_name("_img_ptr_l")
    3877                            .dwattr DW$322, DW_AT_data_member_location[DW_OP_plus_uconst 0x10]
    3878                            .dwattr DW$322, DW_AT_accessibility(DW_ACCESS_public)
    3879                    DW$323  .dwtag  DW_TAG_member, DW_AT_type(*DW$T$19)
    3880                            .dwattr DW$323, DW_AT_name("img_ptr_r"), DW_AT_symbol_name("_img_ptr_r")
    3881                            .dwattr DW$323, DW_AT_data_member_location[DW_OP_plus_uconst 0x14]
    3882                            .dwattr DW$323, DW_AT_accessibility(DW_ACCESS_public)
    3883                    DW$324  .dwtag  DW_TAG_member, DW_AT_type(*DW$T$10)
    3884                            .dwattr DW$324, DW_AT_name("eye_flag"), DW_AT_symbol_name("_eye_flag")
    3885                            .dwattr DW$324, DW_AT_data_member_location[DW_OP_plus_uconst 0x18]
    3886                            .dwattr DW$324, DW_AT_accessibility(DW_ACCESS_public)
    3887                    DW$325  .dwtag  DW_TAG_member, DW_AT_type(*DW$T$10)
    3888                            .dwattr DW$325, DW_AT_name("process_flag"), DW_AT_symbol_name("_process_flag")
    3889                            .dwattr DW$325, DW_AT_data_member_location[DW_OP_plus_uconst 0x1c]
    3890                            .dwattr DW$325, DW_AT_accessibility(DW_ACCESS_public)
    3891                    DW$326  .dwtag  DW_TAG_member, DW_AT_type(*DW$T$11)
    3892                            .dwattr DW$326, DW_AT_name("img_saved_count_l"), DW_AT_symbol_name("_img_saved_count_l")
    3893                            .dwattr DW$326, DW_AT_data_member_location[DW_OP_plus_uconst 0x20]
    3894                            .dwattr DW$326, DW_AT_accessibility(DW_ACCESS_public)
    3895                    DW$327  .dwtag  DW_TAG_member, DW_AT_type(*DW$T$11)
    3896                            .dwattr DW$327, DW_AT_name("img_saved_count_r"), DW_AT_symbol_name("_img_saved_count_r")
    3897                            .dwattr DW$327, DW_AT_data_member_location[DW_OP_plus_uconst 0x24]
    3898                            .dwattr DW$327, DW_AT_accessibility(DW_ACCESS_public)
    3899                    DW$328  .dwtag  DW_TAG_member, DW_AT_type(*DW$T$11)
    3900                            .dwattr DW$328, DW_AT_name("feature_tag"), DW_AT_symbol_name("_feature_tag")
    3901                            .dwattr DW$328, DW_AT_data_member_location[DW_OP_plus_uconst 0x28]
    3902                            .dwattr DW$328, DW_AT_accessibility(DW_ACCESS_public)
    3903                    DW$329  .dwtag  DW_TAG_member, DW_AT_type(*DW$T$11)
    3904                            .dwattr DW$329, DW_AT_name("data_type_l"), DW_AT_symbol_name("_data_type_l")
    3905                            .dwattr DW$329, DW_AT_data_member_location[DW_OP_plus_uconst 0x2c]
TMS320C6x COFF Assembler PC v5.1.0 Thu Mar 31 17:05:45 2011

Tools Copyright (c) 1996-2005 Texas Instruments Incorporated
C:\Users\ADMINI~1\AppData\Local\Temp\TI8242                          PAGE   72

    3906                            .dwattr DW$329, DW_AT_accessibility(DW_ACCESS_public)
    3907                    DW$330  .dwtag  DW_TAG_member, DW_AT_type(*DW$T$11)
    3908                            .dwattr DW$330, DW_AT_name("data_type_r"), DW_AT_symbol_name("_data_type_r")
    3909                            .dwattr DW$330, DW_AT_data_member_location[DW_OP_plus_uconst 0x30]
    3910                            .dwattr DW$330, DW_AT_accessibility(DW_ACCESS_public)
    3911                            .dwendtag DW$T$24
    3912                    
    3913                    
    3914                    DW$T$25 .dwtag  DW_TAG_structure_type
    3915                            .dwattr DW$T$25, DW_AT_name("dsp_result_msg_t")
    3916                            .dwattr DW$T$25, DW_AT_byte_size(0x1c)
    3917                    DW$331  .dwtag  DW_TAG_member, DW_AT_type(*DW$T$23)
    3918                            .dwattr DW$331, DW_AT_name("elem"), DW_AT_symbol_name("_elem")
    3919                            .dwattr DW$331, DW_AT_data_member_location[DW_OP_plus_uconst 0x0]
    3920                            .dwattr DW$331, DW_AT_accessibility(DW_ACCESS_public)
    3921                    DW$332  .dwtag  DW_TAG_member, DW_AT_type(*DW$T$10)
    3922                            .dwattr DW$332, DW_AT_name("result_left"), DW_AT_symbol_name("_result_left")
    3923                            .dwattr DW$332, DW_AT_data_member_location[DW_OP_plus_uconst 0x8]
    3924                            .dwattr DW$332, DW_AT_accessibility(DW_ACCESS_public)
    3925                    DW$333  .dwtag  DW_TAG_member, DW_AT_type(*DW$T$10)
    3926                            .dwattr DW$333, DW_AT_name("result_right"), DW_AT_symbol_name("_result_right")
    3927                            .dwattr DW$333, DW_AT_data_member_location[DW_OP_plus_uconst 0xc]
    3928                            .dwattr DW$333, DW_AT_accessibility(DW_ACCESS_public)
    3929                    DW$334  .dwtag  DW_TAG_member, DW_AT_type(*DW$T$10)
    3930                            .dwattr DW$334, DW_AT_name("eye_flag"), DW_AT_symbol_name("_eye_flag")
    3931                            .dwattr DW$334, DW_AT_data_member_location[DW_OP_plus_uconst 0x10]
    3932                            .dwattr DW$334, DW_AT_accessibility(DW_ACCESS_public)
    3933                    DW$335  .dwtag  DW_TAG_member, DW_AT_type(*DW$T$10)
    3934                            .dwattr DW$335, DW_AT_name("process_flag"), DW_AT_symbol_name("_process_flag")
    3935                            .dwattr DW$335, DW_AT_data_member_location[DW_OP_plus_uconst 0x14]
    3936                            .dwattr DW$335, DW_AT_accessibility(DW_ACCESS_public)
    3937                    DW$336  .dwtag  DW_TAG_member, DW_AT_type(*DW$T$11)
    3938                            .dwattr DW$336, DW_AT_name("feature_tag"), DW_AT_symbol_name("_feature_tag")
    3939                            .dwattr DW$336, DW_AT_data_member_location[DW_OP_plus_uconst 0x18]
    3940                            .dwattr DW$336, DW_AT_accessibility(DW_ACCESS_public)
    3941                            .dwendtag DW$T$25
    3942                    
    3943                    DW$T$37 .dwtag  DW_TAG_typedef, DW_AT_name("dsp_tsk_memory_t"), DW_AT_type(*DW$T$36)
    3944                            .dwattr DW$T$37, DW_AT_language(DW_LANG_C)
    3945                    DW$T$48 .dwtag  DW_TAG_pointer_type, DW_AT_type(*DW$T$37)
    3946                            .dwattr DW$T$48, DW_AT_address_class(0x20)
    3947                    DW$T$51 .dwtag  DW_TAG_typedef, DW_AT_name("dsp_img_t"), DW_AT_type(*DW$T$50)
    3948                            .dwattr DW$T$51, DW_AT_language(DW_LANG_C)
    3949                    
    3950                    DW$T$55 .dwtag  DW_TAG_array_type, DW_AT_type(*DW$T$54)
    3951                            .dwattr DW$T$55, DW_AT_language(DW_LANG_C)
    3952                            .dwattr DW$T$55, DW_AT_byte_size(0x20)
    3953                    DW$337  .dwtag  DW_TAG_subrange_type
    3954                            .dwattr DW$337, DW_AT_upper_bound(0x1f)
    3955                            .dwendtag DW$T$55
    3956                    
    3957                    DW$T$88 .dwtag  DW_TAG_typedef, DW_AT_name("circle_ex_t"), DW_AT_type(*DW$T$87)
    3958                            .dwattr DW$T$88, DW_AT_language(DW_LANG_C)
    3959                    DW$T$23 .dwtag  DW_TAG_typedef, DW_AT_name("QUE_Elem"), DW_AT_type(*DW$T$22)
    3960                            .dwattr DW$T$23, DW_AT_language(DW_LANG_C)
TMS320C6x COFF Assembler PC v5.1.0 Thu Mar 31 17:05:45 2011

Tools Copyright (c) 1996-2005 Texas Instruments Incorporated
C:\Users\ADMINI~1\AppData\Local\Temp\TI8242                          PAGE   73

    3961                    
    3962                    DW$T$36 .dwtag  DW_TAG_structure_type
    3963                            .dwattr DW$T$36, DW_AT_name("dsp_tsk_memory_t")
    3964                            .dwattr DW$T$36, DW_AT_byte_size(0x08)
    3965                    DW$338  .dwtag  DW_TAG_member, DW_AT_type(*DW$T$11)
    3966                            .dwattr DW$338, DW_AT_name("dataptr_len"), DW_AT_symbol_name("_dataptr_len")
    3967                            .dwattr DW$338, DW_AT_data_member_location[DW_OP_plus_uconst 0x0]
    3968                            .dwattr DW$338, DW_AT_accessibility(DW_ACCESS_public)
    3969                    DW$339  .dwtag  DW_TAG_member, DW_AT_type(*DW$T$3)
    3970                            .dwattr DW$339, DW_AT_name("data_ptr"), DW_AT_symbol_name("_data_ptr")
    3971                            .dwattr DW$339, DW_AT_data_member_location[DW_OP_plus_uconst 0x4]
    3972                            .dwattr DW$339, DW_AT_accessibility(DW_ACCESS_public)
    3973                            .dwendtag DW$T$36
    3974                    
    3975                    
    3976                    DW$T$50 .dwtag  DW_TAG_structure_type
    3977                            .dwattr DW$T$50, DW_AT_name("dsp_img_t")
    3978                            .dwattr DW$T$50, DW_AT_byte_size(0x14)
    3979                    DW$340  .dwtag  DW_TAG_member, DW_AT_type(*DW$T$11)
    3980                            .dwattr DW$340, DW_AT_name("tag_arm"), DW_AT_symbol_name("_tag_arm")
    3981                            .dwattr DW$340, DW_AT_data_member_location[DW_OP_plus_uconst 0x0]
    3982                            .dwattr DW$340, DW_AT_accessibility(DW_ACCESS_public)
    3983                    DW$341  .dwtag  DW_TAG_member, DW_AT_type(*DW$T$11)
    3984                            .dwattr DW$341, DW_AT_name("tag_dsp"), DW_AT_symbol_name("_tag_dsp")
    3985                            .dwattr DW$341, DW_AT_data_member_location[DW_OP_plus_uconst 0x4]
    3986                            .dwattr DW$341, DW_AT_accessibility(DW_ACCESS_public)
    3987                    DW$342  .dwtag  DW_TAG_member, DW_AT_type(*DW$T$11)
    3988                            .dwattr DW$342, DW_AT_name("type"), DW_AT_symbol_name("_type")
    3989                            .dwattr DW$342, DW_AT_data_member_location[DW_OP_plus_uconst 0x8]
    3990                            .dwattr DW$342, DW_AT_accessibility(DW_ACCESS_public)
    3991                    DW$343  .dwtag  DW_TAG_member, DW_AT_type(*DW$T$37)
    3992                            .dwattr DW$343, DW_AT_name("img_data"), DW_AT_symbol_name("_img_data")
    3993                            .dwattr DW$343, DW_AT_data_member_location[DW_OP_plus_uconst 0xc]
    3994                            .dwattr DW$343, DW_AT_accessibility(DW_ACCESS_public)
    3995                            .dwendtag DW$T$50
    3996                    
    3997                    DW$T$54 .dwtag  DW_TAG_base_type, DW_AT_name("signed char")
    3998                            .dwattr DW$T$54, DW_AT_encoding(DW_ATE_signed_char)
    3999                            .dwattr DW$T$54, DW_AT_byte_size(0x01)
    4000                    
    4001                    DW$T$87 .dwtag  DW_TAG_structure_type
    4002                            .dwattr DW$T$87, DW_AT_name("circle_ex_t")
    4003                            .dwattr DW$T$87, DW_AT_byte_size(0x10)
    4004                    DW$344  .dwtag  DW_TAG_member, DW_AT_type(*DW$T$10)
    4005                            .dwattr DW$344, DW_AT_name("row"), DW_AT_symbol_name("_row")
    4006                            .dwattr DW$344, DW_AT_data_member_location[DW_OP_plus_uconst 0x0]
    4007                            .dwattr DW$344, DW_AT_accessibility(DW_ACCESS_public)
    4008                    DW$345  .dwtag  DW_TAG_member, DW_AT_type(*DW$T$10)
    4009                            .dwattr DW$345, DW_AT_name("col"), DW_AT_symbol_name("_col")
    4010                            .dwattr DW$345, DW_AT_data_member_location[DW_OP_plus_uconst 0x4]
    4011                            .dwattr DW$345, DW_AT_accessibility(DW_ACCESS_public)
    4012                    DW$346  .dwtag  DW_TAG_member, DW_AT_type(*DW$T$10)
    4013                            .dwattr DW$346, DW_AT_name("radius"), DW_AT_symbol_name("_radius")
    4014                            .dwattr DW$346, DW_AT_data_member_location[DW_OP_plus_uconst 0x8]
    4015                            .dwattr DW$346, DW_AT_accessibility(DW_ACCESS_public)
TMS320C6x COFF Assembler PC v5.1.0 Thu Mar 31 17:05:45 2011

Tools Copyright (c) 1996-2005 Texas Instruments Incorporated
C:\Users\ADMINI~1\AppData\Local\Temp\TI8242                          PAGE   74

    4016                    DW$347  .dwtag  DW_TAG_member, DW_AT_type(*DW$T$10)
    4017                            .dwattr DW$347, DW_AT_name("visible_percent"), DW_AT_symbol_name("_visible_percent")
    4018                            .dwattr DW$347, DW_AT_data_member_location[DW_OP_plus_uconst 0xc]
    4019                            .dwattr DW$347, DW_AT_accessibility(DW_ACCESS_public)
    4020                            .dwendtag DW$T$87
    4021                    
    4022                    
    4023                    DW$T$22 .dwtag  DW_TAG_structure_type
    4024                            .dwattr DW$T$22, DW_AT_name("QUE_Elem")
    4025                            .dwattr DW$T$22, DW_AT_byte_size(0x08)
    4026                    DW$348  .dwtag  DW_TAG_member, DW_AT_type(*DW$T$21)
    4027                            .dwattr DW$348, DW_AT_name("next"), DW_AT_symbol_name("_next")
    4028                            .dwattr DW$348, DW_AT_data_member_location[DW_OP_plus_uconst 0x0]
    4029                            .dwattr DW$348, DW_AT_accessibility(DW_ACCESS_public)
    4030                    DW$349  .dwtag  DW_TAG_member, DW_AT_type(*DW$T$21)
    4031                            .dwattr DW$349, DW_AT_name("prev"), DW_AT_symbol_name("_prev")
    4032                            .dwattr DW$349, DW_AT_data_member_location[DW_OP_plus_uconst 0x4]
    4033                            .dwattr DW$349, DW_AT_accessibility(DW_ACCESS_public)
    4034                            .dwendtag DW$T$22
    4035                    
    4036                    DW$T$21 .dwtag  DW_TAG_pointer_type, DW_AT_type(*DW$T$22)
    4037                            .dwattr DW$T$21, DW_AT_address_class(0x20)
    4038                    
    4039                            .dwattr DW$81, DW_AT_external(0x01)
    4040                            .dwattr DW$73, DW_AT_external(0x01)
    4041                            .dwattr DW$104, DW_AT_external(0x01)
    4042                            .dwattr DW$48, DW_AT_external(0x01)
    4043                            .dwattr DW$29, DW_AT_external(0x01)
    4044                            .dwattr DW$89, DW_AT_external(0x01)
    4045                            .dwattr DW$CU, DW_AT_language(DW_LANG_C)
    4046                    
    4047                    ;***************************************************************
    4048                    ;* DWARF CIE ENTRIES                                           *
    4049                    ;***************************************************************
    4050                    
    4051                    DW$CIE  .dwcie 1, 126
    4052                            .dwcfa  0x0c, 31, 0
    4053                            .dwcfa  0x07, 0
    4054                            .dwcfa  0x07, 1
    4055                            .dwcfa  0x07, 2
    4056                            .dwcfa  0x07, 3
    4057                            .dwcfa  0x07, 4
    4058                            .dwcfa  0x07, 5
    4059                            .dwcfa  0x07, 6
    4060                            .dwcfa  0x07, 7
    4061                            .dwcfa  0x07, 8
    4062                            .dwcfa  0x07, 9
    4063                            .dwcfa  0x08, 10
    4064                            .dwcfa  0x08, 11
    4065                            .dwcfa  0x08, 12
    4066                            .dwcfa  0x08, 13
    4067                            .dwcfa  0x08, 14
    4068                            .dwcfa  0x08, 15
    4069                            .dwcfa  0x07, 16
    4070                            .dwcfa  0x07, 17
TMS320C6x COFF Assembler PC v5.1.0 Thu Mar 31 17:05:45 2011

Tools Copyright (c) 1996-2005 Texas Instruments Incorporated
C:\Users\ADMINI~1\AppData\Local\Temp\TI8242                          PAGE   75

    4071                            .dwcfa  0x07, 18
    4072                            .dwcfa  0x07, 19
    4073                            .dwcfa  0x07, 20
    4074                            .dwcfa  0x07, 21
    4075                            .dwcfa  0x07, 22
    4076                            .dwcfa  0x07, 23
    4077                            .dwcfa  0x07, 24
    4078                            .dwcfa  0x07, 25
    4079                            .dwcfa  0x08, 26
    4080                            .dwcfa  0x08, 27
    4081                            .dwcfa  0x08, 28
    4082                            .dwcfa  0x08, 29
    4083                            .dwcfa  0x08, 30
    4084                            .dwcfa  0x08, 31
    4085                            .dwcfa  0x08, 32
    4086                            .dwcfa  0x07, 33
    4087                            .dwcfa  0x07, 34
    4088                            .dwcfa  0x07, 35
    4089                            .dwcfa  0x07, 36
    4090                            .dwcfa  0x07, 37
    4091                            .dwcfa  0x07, 38
    4092                            .dwcfa  0x07, 39
    4093                            .dwcfa  0x07, 40
    4094                            .dwcfa  0x07, 41
    4095                            .dwcfa  0x07, 42
    4096                            .dwcfa  0x07, 43
    4097                            .dwcfa  0x07, 44
    4098                            .dwcfa  0x07, 45
    4099                            .dwcfa  0x07, 46
    4100                            .dwcfa  0x07, 47
    4101                            .dwcfa  0x07, 48
    4102                            .dwcfa  0x07, 49
    4103                            .dwcfa  0x07, 50
    4104                            .dwcfa  0x07, 51
    4105                            .dwcfa  0x07, 52
    4106                            .dwcfa  0x07, 53
    4107                            .dwcfa  0x07, 54
    4108                            .dwcfa  0x07, 55
    4109                            .dwcfa  0x07, 56
    4110                            .dwcfa  0x07, 57
    4111                            .dwcfa  0x07, 58
    4112                            .dwcfa  0x07, 59
    4113                            .dwcfa  0x07, 60
    4114                            .dwcfa  0x07, 61
    4115                            .dwcfa  0x07, 62
    4116                            .dwcfa  0x07, 63
    4117                            .dwcfa  0x07, 64
    4118                            .dwcfa  0x07, 65
    4119                            .dwcfa  0x07, 66
    4120                            .dwcfa  0x07, 67
    4121                            .dwcfa  0x07, 68
    4122                            .dwcfa  0x07, 69
    4123                            .dwcfa  0x07, 70
    4124                            .dwcfa  0x07, 71
    4125                            .dwcfa  0x07, 72
TMS320C6x COFF Assembler PC v5.1.0 Thu Mar 31 17:05:45 2011

Tools Copyright (c) 1996-2005 Texas Instruments Incorporated
C:\Users\ADMINI~1\AppData\Local\Temp\TI8242                          PAGE   76

    4126                            .dwcfa  0x07, 73
    4127                            .dwcfa  0x07, 74
    4128                            .dwcfa  0x07, 75
    4129                            .dwcfa  0x07, 76
    4130                            .dwcfa  0x07, 77
    4131                            .dwcfa  0x07, 78
    4132                            .dwcfa  0x07, 79
    4133                            .dwcfa  0x07, 80
    4134                            .dwcfa  0x07, 81
    4135                            .dwcfa  0x07, 82
    4136                            .dwcfa  0x07, 83
    4137                            .dwcfa  0x07, 84
    4138                            .dwcfa  0x07, 85
    4139                            .dwcfa  0x07, 86
    4140                            .dwcfa  0x07, 87
    4141                            .dwcfa  0x07, 88
    4142                            .dwcfa  0x07, 89
    4143                            .dwcfa  0x07, 90
    4144                            .dwcfa  0x07, 91
    4145                            .dwcfa  0x07, 92
    4146                            .dwcfa  0x07, 93
    4147                            .dwcfa  0x07, 94
    4148                            .dwcfa  0x07, 95
    4149                            .dwcfa  0x07, 96
    4150                            .dwcfa  0x07, 97
    4151                            .dwcfa  0x07, 98
    4152                            .dwcfa  0x07, 99
    4153                            .dwcfa  0x07, 100
    4154                            .dwcfa  0x07, 101
    4155                            .dwcfa  0x07, 102
    4156                            .dwcfa  0x07, 103
    4157                            .dwcfa  0x07, 104
    4158                            .dwcfa  0x07, 105
    4159                            .dwcfa  0x07, 106
    4160                            .dwcfa  0x07, 107
    4161                            .dwcfa  0x07, 108
    4162                            .dwcfa  0x07, 109
    4163                            .dwcfa  0x07, 110
    4164                            .dwcfa  0x07, 111
    4165                            .dwcfa  0x07, 112
    4166                            .dwcfa  0x07, 113
    4167                            .dwcfa  0x07, 114
    4168                            .dwcfa  0x07, 115
    4169                            .dwcfa  0x07, 116
    4170                            .dwcfa  0x07, 117
    4171                            .dwcfa  0x07, 118
    4172                            .dwcfa  0x07, 119
    4173                            .dwcfa  0x07, 120
    4174                            .dwcfa  0x07, 121
    4175                            .dwcfa  0x07, 122
    4176                            .dwcfa  0x07, 123
    4177                            .dwcfa  0x07, 124
    4178                            .dwcfa  0x07, 125
    4179                            .dwcfa  0x07, 126
    4180                    
TMS320C6x COFF Assembler PC v5.1.0 Thu Mar 31 17:05:45 2011

Tools Copyright (c) 1996-2005 Texas Instruments Incorporated
C:\Users\ADMINI~1\AppData\Local\Temp\TI8242                          PAGE   77

    4181                    ;***************************************************************
    4182                    ;* DWARF REGISTER MAP                                          *
    4183                    ;***************************************************************
    4184                    
    4185                    DW$350  .dwtag  DW_TAG_assign_register, DW_AT_name("A0")
    4186                            .dwattr DW$350, DW_AT_location[DW_OP_reg0]
    4187                    DW$351  .dwtag  DW_TAG_assign_register, DW_AT_name("A1")
    4188                            .dwattr DW$351, DW_AT_location[DW_OP_reg1]
    4189                    DW$352  .dwtag  DW_TAG_assign_register, DW_AT_name("A2")
    4190                            .dwattr DW$352, DW_AT_location[DW_OP_reg2]
    4191                    DW$353  .dwtag  DW_TAG_assign_register, DW_AT_name("A3")
    4192                            .dwattr DW$353, DW_AT_location[DW_OP_reg3]
    4193                    DW$354  .dwtag  DW_TAG_assign_register, DW_AT_name("A4")
    4194                            .dwattr DW$354, DW_AT_location[DW_OP_reg4]
    4195                    DW$355  .dwtag  DW_TAG_assign_register, DW_AT_name("A5")
    4196                            .dwattr DW$355, DW_AT_location[DW_OP_reg5]
    4197                    DW$356  .dwtag  DW_TAG_assign_register, DW_AT_name("A6")
    4198                            .dwattr DW$356, DW_AT_location[DW_OP_reg6]
    4199                    DW$357  .dwtag  DW_TAG_assign_register, DW_AT_name("A7")
    4200                            .dwattr DW$357, DW_AT_location[DW_OP_reg7]
    4201                    DW$358  .dwtag  DW_TAG_assign_register, DW_AT_name("A8")
    4202                            .dwattr DW$358, DW_AT_location[DW_OP_reg8]
    4203                    DW$359  .dwtag  DW_TAG_assign_register, DW_AT_name("A9")
    4204                            .dwattr DW$359, DW_AT_location[DW_OP_reg9]
    4205                    DW$360  .dwtag  DW_TAG_assign_register, DW_AT_name("A10")
    4206                            .dwattr DW$360, DW_AT_location[DW_OP_reg10]
    4207                    DW$361  .dwtag  DW_TAG_assign_register, DW_AT_name("A11")
    4208                            .dwattr DW$361, DW_AT_location[DW_OP_reg11]
    4209                    DW$362  .dwtag  DW_TAG_assign_register, DW_AT_name("A12")
    4210                            .dwattr DW$362, DW_AT_location[DW_OP_reg12]
    4211                    DW$363  .dwtag  DW_TAG_assign_register, DW_AT_name("A13")
    4212                            .dwattr DW$363, DW_AT_location[DW_OP_reg13]
    4213                    DW$364  .dwtag  DW_TAG_assign_register, DW_AT_name("A14")
    4214                            .dwattr DW$364, DW_AT_location[DW_OP_reg14]
    4215                    DW$365  .dwtag  DW_TAG_assign_register, DW_AT_name("A15")
    4216                            .dwattr DW$365, DW_AT_location[DW_OP_reg15]
    4217                    DW$366  .dwtag  DW_TAG_assign_register, DW_AT_name("B0")
    4218                            .dwattr DW$366, DW_AT_location[DW_OP_reg16]
    4219                    DW$367  .dwtag  DW_TAG_assign_register, DW_AT_name("B1")
    4220                            .dwattr DW$367, DW_AT_location[DW_OP_reg17]
    4221                    DW$368  .dwtag  DW_TAG_assign_register, DW_AT_name("B2")
    4222                            .dwattr DW$368, DW_AT_location[DW_OP_reg18]
    4223                    DW$369  .dwtag  DW_TAG_assign_register, DW_AT_name("B3")
    4224                            .dwattr DW$369, DW_AT_location[DW_OP_reg19]
    4225                    DW$370  .dwtag  DW_TAG_assign_register, DW_AT_name("B4")
    4226                            .dwattr DW$370, DW_AT_location[DW_OP_reg20]
    4227                    DW$371  .dwtag  DW_TAG_assign_register, DW_AT_name("B5")
    4228                            .dwattr DW$371, DW_AT_location[DW_OP_reg21]
    4229                    DW$372  .dwtag  DW_TAG_assign_register, DW_AT_name("B6")
    4230                            .dwattr DW$372, DW_AT_location[DW_OP_reg22]
    4231                    DW$373  .dwtag  DW_TAG_assign_register, DW_AT_name("B7")
    4232                            .dwattr DW$373, DW_AT_location[DW_OP_reg23]
    4233                    DW$374  .dwtag  DW_TAG_assign_register, DW_AT_name("B8")
    4234                            .dwattr DW$374, DW_AT_location[DW_OP_reg24]
    4235                    DW$375  .dwtag  DW_TAG_assign_register, DW_AT_name("B9")
TMS320C6x COFF Assembler PC v5.1.0 Thu Mar 31 17:05:45 2011

Tools Copyright (c) 1996-2005 Texas Instruments Incorporated
C:\Users\ADMINI~1\AppData\Local\Temp\TI8242                          PAGE   78

    4236                            .dwattr DW$375, DW_AT_location[DW_OP_reg25]
    4237                    DW$376  .dwtag  DW_TAG_assign_register, DW_AT_name("B10")
    4238                            .dwattr DW$376, DW_AT_location[DW_OP_reg26]
    4239                    DW$377  .dwtag  DW_TAG_assign_register, DW_AT_name("B11")
    4240                            .dwattr DW$377, DW_AT_location[DW_OP_reg27]
    4241                    DW$378  .dwtag  DW_TAG_assign_register, DW_AT_name("B12")
    4242                            .dwattr DW$378, DW_AT_location[DW_OP_reg28]
    4243                    DW$379  .dwtag  DW_TAG_assign_register, DW_AT_name("B13")
    4244                            .dwattr DW$379, DW_AT_location[DW_OP_reg29]
    4245                    DW$380  .dwtag  DW_TAG_assign_register, DW_AT_name("DP")
    4246                            .dwattr DW$380, DW_AT_location[DW_OP_reg30]
    4247                    DW$381  .dwtag  DW_TAG_assign_register, DW_AT_name("SP")
    4248                            .dwattr DW$381, DW_AT_location[DW_OP_reg31]
    4249                    DW$382  .dwtag  DW_TAG_assign_register, DW_AT_name("FP")
    4250                            .dwattr DW$382, DW_AT_location[DW_OP_regx 0x20]
    4251                    DW$383  .dwtag  DW_TAG_assign_register, DW_AT_name("PC")
    4252                            .dwattr DW$383, DW_AT_location[DW_OP_regx 0x21]
    4253                    DW$384  .dwtag  DW_TAG_assign_register, DW_AT_name("IRP")
    4254                            .dwattr DW$384, DW_AT_location[DW_OP_regx 0x22]
    4255                    DW$385  .dwtag  DW_TAG_assign_register, DW_AT_name("IFR")
    4256                            .dwattr DW$385, DW_AT_location[DW_OP_regx 0x23]
    4257                    DW$386  .dwtag  DW_TAG_assign_register, DW_AT_name("NRP")
    4258                            .dwattr DW$386, DW_AT_location[DW_OP_regx 0x24]
    4259                    DW$387  .dwtag  DW_TAG_assign_register, DW_AT_name("A16")
    4260                            .dwattr DW$387, DW_AT_location[DW_OP_regx 0x25]
    4261                    DW$388  .dwtag  DW_TAG_assign_register, DW_AT_name("A17")
    4262                            .dwattr DW$388, DW_AT_location[DW_OP_regx 0x26]
    4263                    DW$389  .dwtag  DW_TAG_assign_register, DW_AT_name("A18")
    4264                            .dwattr DW$389, DW_AT_location[DW_OP_regx 0x27]
    4265                    DW$390  .dwtag  DW_TAG_assign_register, DW_AT_name("A19")
    4266                            .dwattr DW$390, DW_AT_location[DW_OP_regx 0x28]
    4267                    DW$391  .dwtag  DW_TAG_assign_register, DW_AT_name("A20")
    4268                            .dwattr DW$391, DW_AT_location[DW_OP_regx 0x29]
    4269                    DW$392  .dwtag  DW_TAG_assign_register, DW_AT_name("A21")
    4270                            .dwattr DW$392, DW_AT_location[DW_OP_regx 0x2a]
    4271                    DW$393  .dwtag  DW_TAG_assign_register, DW_AT_name("A22")
    4272                            .dwattr DW$393, DW_AT_location[DW_OP_regx 0x2b]
    4273                    DW$394  .dwtag  DW_TAG_assign_register, DW_AT_name("A23")
    4274                            .dwattr DW$394, DW_AT_location[DW_OP_regx 0x2c]
    4275                    DW$395  .dwtag  DW_TAG_assign_register, DW_AT_name("A24")
    4276                            .dwattr DW$395, DW_AT_location[DW_OP_regx 0x2d]
    4277                    DW$396  .dwtag  DW_TAG_assign_register, DW_AT_name("A25")
    4278                            .dwattr DW$396, DW_AT_location[DW_OP_regx 0x2e]
    4279                    DW$397  .dwtag  DW_TAG_assign_register, DW_AT_name("A26")
    4280                            .dwattr DW$397, DW_AT_location[DW_OP_regx 0x2f]
    4281                    DW$398  .dwtag  DW_TAG_assign_register, DW_AT_name("A27")
    4282                            .dwattr DW$398, DW_AT_location[DW_OP_regx 0x30]
    4283                    DW$399  .dwtag  DW_TAG_assign_register, DW_AT_name("A28")
    4284                            .dwattr DW$399, DW_AT_location[DW_OP_regx 0x31]
    4285                    DW$400  .dwtag  DW_TAG_assign_register, DW_AT_name("A29")
    4286                            .dwattr DW$400, DW_AT_location[DW_OP_regx 0x32]
    4287                    DW$401  .dwtag  DW_TAG_assign_register, DW_AT_name("A30")
    4288                            .dwattr DW$401, DW_AT_location[DW_OP_regx 0x33]
    4289                    DW$402  .dwtag  DW_TAG_assign_register, DW_AT_name("A31")
    4290                            .dwattr DW$402, DW_AT_location[DW_OP_regx 0x34]
TMS320C6x COFF Assembler PC v5.1.0 Thu Mar 31 17:05:45 2011

Tools Copyright (c) 1996-2005 Texas Instruments Incorporated
C:\Users\ADMINI~1\AppData\Local\Temp\TI8242                          PAGE   79

    4291                    DW$403  .dwtag  DW_TAG_assign_register, DW_AT_name("B16")
    4292                            .dwattr DW$403, DW_AT_location[DW_OP_regx 0x35]
    4293                    DW$404  .dwtag  DW_TAG_assign_register, DW_AT_name("B17")
    4294                            .dwattr DW$404, DW_AT_location[DW_OP_regx 0x36]
    4295                    DW$405  .dwtag  DW_TAG_assign_register, DW_AT_name("B18")
    4296                            .dwattr DW$405, DW_AT_location[DW_OP_regx 0x37]
    4297                    DW$406  .dwtag  DW_TAG_assign_register, DW_AT_name("B19")
    4298                            .dwattr DW$406, DW_AT_location[DW_OP_regx 0x38]
    4299                    DW$407  .dwtag  DW_TAG_assign_register, DW_AT_name("B20")
    4300                            .dwattr DW$407, DW_AT_location[DW_OP_regx 0x39]
    4301                    DW$408  .dwtag  DW_TAG_assign_register, DW_AT_name("B21")
    4302                            .dwattr DW$408, DW_AT_location[DW_OP_regx 0x3a]
    4303                    DW$409  .dwtag  DW_TAG_assign_register, DW_AT_name("B22")
    4304                            .dwattr DW$409, DW_AT_location[DW_OP_regx 0x3b]
    4305                    DW$410  .dwtag  DW_TAG_assign_register, DW_AT_name("B23")
    4306                            .dwattr DW$410, DW_AT_location[DW_OP_regx 0x3c]
    4307                    DW$411  .dwtag  DW_TAG_assign_register, DW_AT_name("B24")
    4308                            .dwattr DW$411, DW_AT_location[DW_OP_regx 0x3d]
    4309                    DW$412  .dwtag  DW_TAG_assign_register, DW_AT_name("B25")
    4310                            .dwattr DW$412, DW_AT_location[DW_OP_regx 0x3e]
    4311                    DW$413  .dwtag  DW_TAG_assign_register, DW_AT_name("B26")
    4312                            .dwattr DW$413, DW_AT_location[DW_OP_regx 0x3f]
    4313                    DW$414  .dwtag  DW_TAG_assign_register, DW_AT_name("B27")
    4314                            .dwattr DW$414, DW_AT_location[DW_OP_regx 0x40]
    4315                    DW$415  .dwtag  DW_TAG_assign_register, DW_AT_name("B28")
    4316                            .dwattr DW$415, DW_AT_location[DW_OP_regx 0x41]
    4317                    DW$416  .dwtag  DW_TAG_assign_register, DW_AT_name("B29")
    4318                            .dwattr DW$416, DW_AT_location[DW_OP_regx 0x42]
    4319                    DW$417  .dwtag  DW_TAG_assign_register, DW_AT_name("B30")
    4320                            .dwattr DW$417, DW_AT_location[DW_OP_regx 0x43]
    4321                    DW$418  .dwtag  DW_TAG_assign_register, DW_AT_name("B31")
    4322                            .dwattr DW$418, DW_AT_location[DW_OP_regx 0x44]
    4323                    DW$419  .dwtag  DW_TAG_assign_register, DW_AT_name("AMR")
    4324                            .dwattr DW$419, DW_AT_location[DW_OP_regx 0x45]
    4325                    DW$420  .dwtag  DW_TAG_assign_register, DW_AT_name("CSR")
    4326                            .dwattr DW$420, DW_AT_location[DW_OP_regx 0x46]
    4327                    DW$421  .dwtag  DW_TAG_assign_register, DW_AT_name("ISR")
    4328                            .dwattr DW$421, DW_AT_location[DW_OP_regx 0x47]
    4329                    DW$422  .dwtag  DW_TAG_assign_register, DW_AT_name("ICR")
    4330                            .dwattr DW$422, DW_AT_location[DW_OP_regx 0x48]
    4331                    DW$423  .dwtag  DW_TAG_assign_register, DW_AT_name("IER")
    4332                            .dwattr DW$423, DW_AT_location[DW_OP_regx 0x49]
    4333                    DW$424  .dwtag  DW_TAG_assign_register, DW_AT_name("ISTP")
    4334                            .dwattr DW$424, DW_AT_location[DW_OP_regx 0x4a]
    4335                    DW$425  .dwtag  DW_TAG_assign_register, DW_AT_name("IN")
    4336                            .dwattr DW$425, DW_AT_location[DW_OP_regx 0x4b]
    4337                    DW$426  .dwtag  DW_TAG_assign_register, DW_AT_name("OUT")
    4338                            .dwattr DW$426, DW_AT_location[DW_OP_regx 0x4c]
    4339                    DW$427  .dwtag  DW_TAG_assign_register, DW_AT_name("ACR")
    4340                            .dwattr DW$427, DW_AT_location[DW_OP_regx 0x4d]
    4341                    DW$428  .dwtag  DW_TAG_assign_register, DW_AT_name("ADR")
    4342                            .dwattr DW$428, DW_AT_location[DW_OP_regx 0x4e]
    4343                    DW$429  .dwtag  DW_TAG_assign_register, DW_AT_name("FADCR")
    4344                            .dwattr DW$429, DW_AT_location[DW_OP_regx 0x4f]
    4345                    DW$430  .dwtag  DW_TAG_assign_register, DW_AT_name("FAUCR")
TMS320C6x COFF Assembler PC v5.1.0 Thu Mar 31 17:05:45 2011

Tools Copyright (c) 1996-2005 Texas Instruments Incorporated
C:\Users\ADMINI~1\AppData\Local\Temp\TI8242                          PAGE   80

    4346                            .dwattr DW$430, DW_AT_location[DW_OP_regx 0x50]
    4347                    DW$431  .dwtag  DW_TAG_assign_register, DW_AT_name("FMCR")
    4348                            .dwattr DW$431, DW_AT_location[DW_OP_regx 0x51]
    4349                    DW$432  .dwtag  DW_TAG_assign_register, DW_AT_name("GFPGFR")
    4350                            .dwattr DW$432, DW_AT_location[DW_OP_regx 0x52]
    4351                    DW$433  .dwtag  DW_TAG_assign_register, DW_AT_name("DIER")
    4352                            .dwattr DW$433, DW_AT_location[DW_OP_regx 0x53]
    4353                    DW$434  .dwtag  DW_TAG_assign_register, DW_AT_name("REP")
    4354                            .dwattr DW$434, DW_AT_location[DW_OP_regx 0x54]
    4355                    DW$435  .dwtag  DW_TAG_assign_register, DW_AT_name("TSCL")
    4356                            .dwattr DW$435, DW_AT_location[DW_OP_regx 0x55]
    4357                    DW$436  .dwtag  DW_TAG_assign_register, DW_AT_name("TSCH")
    4358                            .dwattr DW$436, DW_AT_location[DW_OP_regx 0x56]
    4359                    DW$437  .dwtag  DW_TAG_assign_register, DW_AT_name("ARP")
    4360                            .dwattr DW$437, DW_AT_location[DW_OP_regx 0x57]
    4361                    DW$438  .dwtag  DW_TAG_assign_register, DW_AT_name("ILC")
    4362                            .dwattr DW$438, DW_AT_location[DW_OP_regx 0x58]
    4363                    DW$439  .dwtag  DW_TAG_assign_register, DW_AT_name("RILC")
    4364                            .dwattr DW$439, DW_AT_location[DW_OP_regx 0x59]
    4365                    DW$440  .dwtag  DW_TAG_assign_register, DW_AT_name("DNUM")
    4366                            .dwattr DW$440, DW_AT_location[DW_OP_regx 0x5a]
    4367                    DW$441  .dwtag  DW_TAG_assign_register, DW_AT_name("SSR")
    4368                            .dwattr DW$441, DW_AT_location[DW_OP_regx 0x5b]
    4369                    DW$442  .dwtag  DW_TAG_assign_register, DW_AT_name("GPLYA")
    4370                            .dwattr DW$442, DW_AT_location[DW_OP_regx 0x5c]
    4371                    DW$443  .dwtag  DW_TAG_assign_register, DW_AT_name("GPLYB")
    4372                            .dwattr DW$443, DW_AT_location[DW_OP_regx 0x5d]
    4373                    DW$444  .dwtag  DW_TAG_assign_register, DW_AT_name("TSR")
    4374                            .dwattr DW$444, DW_AT_location[DW_OP_regx 0x5e]
    4375                    DW$445  .dwtag  DW_TAG_assign_register, DW_AT_name("ITSR")
    4376                            .dwattr DW$445, DW_AT_location[DW_OP_regx 0x5f]
    4377                    DW$446  .dwtag  DW_TAG_assign_register, DW_AT_name("NTSR")
    4378                            .dwattr DW$446, DW_AT_location[DW_OP_regx 0x60]
    4379                    DW$447  .dwtag  DW_TAG_assign_register, DW_AT_name("EFR")
    4380                            .dwattr DW$447, DW_AT_location[DW_OP_regx 0x61]
    4381                    DW$448  .dwtag  DW_TAG_assign_register, DW_AT_name("ECR")
    4382                            .dwattr DW$448, DW_AT_location[DW_OP_regx 0x62]
    4383                    DW$449  .dwtag  DW_TAG_assign_register, DW_AT_name("IERR")
    4384                            .dwattr DW$449, DW_AT_location[DW_OP_regx 0x63]
    4385                    DW$450  .dwtag  DW_TAG_assign_register, DW_AT_name("DMSG")
    4386                            .dwattr DW$450, DW_AT_location[DW_OP_regx 0x64]
    4387                    DW$451  .dwtag  DW_TAG_assign_register, DW_AT_name("CMSG")
    4388                            .dwattr DW$451, DW_AT_location[DW_OP_regx 0x65]
    4389                    DW$452  .dwtag  DW_TAG_assign_register, DW_AT_name("DT_DMA_ADDR")
    4390                            .dwattr DW$452, DW_AT_location[DW_OP_regx 0x66]
    4391                    DW$453  .dwtag  DW_TAG_assign_register, DW_AT_name("DT_DMA_DATA")
    4392                            .dwattr DW$453, DW_AT_location[DW_OP_regx 0x67]
    4393                    DW$454  .dwtag  DW_TAG_assign_register, DW_AT_name("DT_DMA_CNTL")
    4394                            .dwattr DW$454, DW_AT_location[DW_OP_regx 0x68]
    4395                    DW$455  .dwtag  DW_TAG_assign_register, DW_AT_name("TCU_CNTL")
    4396                            .dwattr DW$455, DW_AT_location[DW_OP_regx 0x69]
    4397                    DW$456  .dwtag  DW_TAG_assign_register, DW_AT_name("RTDX_REC_CNTL")
    4398                            .dwattr DW$456, DW_AT_location[DW_OP_regx 0x6a]
    4399                    DW$457  .dwtag  DW_TAG_assign_register, DW_AT_name("RTDX_XMT_CNTL")
    4400                            .dwattr DW$457, DW_AT_location[DW_OP_regx 0x6b]
TMS320C6x COFF Assembler PC v5.1.0 Thu Mar 31 17:05:45 2011

Tools Copyright (c) 1996-2005 Texas Instruments Incorporated
C:\Users\ADMINI~1\AppData\Local\Temp\TI8242                          PAGE   81

    4401                    DW$458  .dwtag  DW_TAG_assign_register, DW_AT_name("RTDX_CFG")
    4402                            .dwattr DW$458, DW_AT_location[DW_OP_regx 0x6c]
    4403                    DW$459  .dwtag  DW_TAG_assign_register, DW_AT_name("RTDX_RDATA")
    4404                            .dwattr DW$459, DW_AT_location[DW_OP_regx 0x6d]
    4405                    DW$460  .dwtag  DW_TAG_assign_register, DW_AT_name("RTDX_WDATA")
    4406                            .dwattr DW$460, DW_AT_location[DW_OP_regx 0x6e]
    4407                    DW$461  .dwtag  DW_TAG_assign_register, DW_AT_name("RTDX_RADDR")
    4408                            .dwattr DW$461, DW_AT_location[DW_OP_regx 0x6f]
    4409                    DW$462  .dwtag  DW_TAG_assign_register, DW_AT_name("RTDX_WADDR")
    4410                            .dwattr DW$462, DW_AT_location[DW_OP_regx 0x70]
    4411                    DW$463  .dwtag  DW_TAG_assign_register, DW_AT_name("MFREG0")
    4412                            .dwattr DW$463, DW_AT_location[DW_OP_regx 0x71]
    4413                    DW$464  .dwtag  DW_TAG_assign_register, DW_AT_name("DBG_STAT")
    4414                            .dwattr DW$464, DW_AT_location[DW_OP_regx 0x72]
    4415                    DW$465  .dwtag  DW_TAG_assign_register, DW_AT_name("BRK_EN")
    4416                            .dwattr DW$465, DW_AT_location[DW_OP_regx 0x73]
    4417                    DW$466  .dwtag  DW_TAG_assign_register, DW_AT_name("HWBP0_CNT")
    4418                            .dwattr DW$466, DW_AT_location[DW_OP_regx 0x74]
    4419                    DW$467  .dwtag  DW_TAG_assign_register, DW_AT_name("HWBP0")
    4420                            .dwattr DW$467, DW_AT_location[DW_OP_regx 0x75]
    4421                    DW$468  .dwtag  DW_TAG_assign_register, DW_AT_name("HWBP1")
    4422                            .dwattr DW$468, DW_AT_location[DW_OP_regx 0x76]
    4423                    DW$469  .dwtag  DW_TAG_assign_register, DW_AT_name("HWBP2")
    4424                            .dwattr DW$469, DW_AT_location[DW_OP_regx 0x77]
    4425                    DW$470  .dwtag  DW_TAG_assign_register, DW_AT_name("HWBP3")
    4426                            .dwattr DW$470, DW_AT_location[DW_OP_regx 0x78]
    4427                    DW$471  .dwtag  DW_TAG_assign_register, DW_AT_name("OVERLAY")
    4428                            .dwattr DW$471, DW_AT_location[DW_OP_regx 0x79]
    4429                    DW$472  .dwtag  DW_TAG_assign_register, DW_AT_name("PC_PROF")
    4430                            .dwattr DW$472, DW_AT_location[DW_OP_regx 0x7a]
    4431                    DW$473  .dwtag  DW_TAG_assign_register, DW_AT_name("ATSR")
    4432                            .dwattr DW$473, DW_AT_location[DW_OP_regx 0x7b]
    4433                    DW$474  .dwtag  DW_TAG_assign_register, DW_AT_name("TRR")
    4434                            .dwattr DW$474, DW_AT_location[DW_OP_regx 0x7c]
    4435                    DW$475  .dwtag  DW_TAG_assign_register, DW_AT_name("TCRR")
    4436                            .dwattr DW$475, DW_AT_location[DW_OP_regx 0x7d]
    4437                    DW$476  .dwtag  DW_TAG_assign_register, DW_AT_name("CIE_RETA")
    4438                            .dwattr DW$476, DW_AT_location[DW_OP_regx 0x7e]
    4439                            .dwendtag DW$CU
    4440                    

No Assembly Errors, No Assembly Warnings
