TMS320C6x COFF Assembler PC v5.1.0 Fri Jan 07 14:23:25 2011

Tools Copyright (c) 1996-2005 Texas Instruments Incorporated
C:\DOCUME~1\yqhe\LOCALS~1\Temp\TI3722                                PAGE    1

       1                    ;******************************************************************************
       2                    ;* TMS320C6x C/C++ Codegen                                          PC v5.1.0 *
       3                    ;* Date/Time created: Fri Jan 07 14:23:25 2011                                *
       4                    ;******************************************************************************
       5                            .compiler_opts --endian=little --mem_model:code=near --mem_model:data=far --quiet --silicon_ve
       6                    
       7                    ;******************************************************************************
       8                    ;* GLOBAL FILE PARAMETERS                                                     *
       9                    ;*                                                                            *
      10                    ;*   Architecture      : TMS320C64xx                                          *
      11                    ;*   Optimization      : Disabled                                             *
      12                    ;*   Optimizing for    : Compile time, Ease of Development                    *
      13                    ;*                       Based on options: no -o, -ms2                        *
      14                    ;*   Endian            : Little                                               *
      15                    ;*   Interrupt Thrshld : Disabled                                             *
      16                    ;*   Data Access Model : Far                                                  *
      17                    ;*   Pipelining        : Disabled                                             *
      18                    ;*   Memory Aliases    : Presume are aliases (pessimistic)                    *
      19                    ;*   Debug Info        : DWARF Debug                                          *
      20                    ;*                                                                            *
      21                    ;******************************************************************************
      22                    
      23                            .asg    A15, FP
      24                            .asg    B14, DP
      25                            .asg    B15, SP
      26                            .global $bss
      27                    
      28                    
      29                    DW$CU   .dwtag  DW_TAG_compile_unit
      30                            .dwattr DW$CU, DW_AT_name("_iic.c")
      31                            .dwattr DW$CU, DW_AT_producer("TMS320C6x C/C++ Codegen PC v5.1.0 Copyright (c) 1996-2005 Texas
      32                            .dwattr DW$CU, DW_AT_stmt_list(0x00)
      33                            .dwattr DW$CU, DW_AT_TI_VERSION(0x01)
      34                    
      35                    DW$1    .dwtag  DW_TAG_subprogram, DW_AT_name("I2C_rrdy"), DW_AT_symbol_name("_I2C_rrdy")
      36                            .dwattr DW$1, DW_AT_type(*DW$T$19)
      37                            .dwattr DW$1, DW_AT_declaration(0x01)
      38                            .dwattr DW$1, DW_AT_external(0x01)
      39                    DW$2    .dwtag  DW_TAG_formal_parameter, DW_AT_type(*DW$T$25)
      40                            .dwendtag DW$1
      41                    
      42                    
      43                    DW$3    .dwtag  DW_TAG_subprogram, DW_AT_name("I2C_xrdy"), DW_AT_symbol_name("_I2C_xrdy")
      44                            .dwattr DW$3, DW_AT_type(*DW$T$19)
      45                            .dwattr DW$3, DW_AT_declaration(0x01)
      46                            .dwattr DW$3, DW_AT_external(0x01)
      47                    DW$4    .dwtag  DW_TAG_formal_parameter, DW_AT_type(*DW$T$25)
      48                            .dwendtag DW$3
      49                    
      50                    
      51                    DW$5    .dwtag  DW_TAG_subprogram, DW_AT_name("I2C_bb"), DW_AT_symbol_name("_I2C_bb")
      52                            .dwattr DW$5, DW_AT_type(*DW$T$19)
      53                            .dwattr DW$5, DW_AT_declaration(0x01)
      54                            .dwattr DW$5, DW_AT_external(0x01)
      55                    DW$6    .dwtag  DW_TAG_formal_parameter, DW_AT_type(*DW$T$25)
TMS320C6x COFF Assembler PC v5.1.0 Fri Jan 07 14:23:25 2011

Tools Copyright (c) 1996-2005 Texas Instruments Incorporated
C:\DOCUME~1\yqhe\LOCALS~1\Temp\TI3722                                PAGE    2

      56                            .dwendtag DW$5
      57                    
      58                    
      59                    DW$7    .dwtag  DW_TAG_subprogram, DW_AT_name("I2C_writeByte"), DW_AT_symbol_name("_I2C_writeByte")
      60                            .dwattr DW$7, DW_AT_declaration(0x01)
      61                            .dwattr DW$7, DW_AT_external(0x01)
      62                    DW$8    .dwtag  DW_TAG_formal_parameter, DW_AT_type(*DW$T$25)
      63                    DW$9    .dwtag  DW_TAG_formal_parameter, DW_AT_type(*DW$T$26)
      64                            .dwendtag DW$7
      65                    
      66                    
      67                    DW$10   .dwtag  DW_TAG_subprogram, DW_AT_name("I2C_readByte"), DW_AT_symbol_name("_I2C_readByte")
      68                            .dwattr DW$10, DW_AT_type(*DW$T$26)
      69                            .dwattr DW$10, DW_AT_declaration(0x01)
      70                            .dwattr DW$10, DW_AT_external(0x01)
      71                    DW$11   .dwtag  DW_TAG_formal_parameter, DW_AT_type(*DW$T$25)
      72                            .dwendtag DW$10
      73                    
      74                    
      75                    DW$12   .dwtag  DW_TAG_subprogram, DW_AT_name("I2C_sendStop"), DW_AT_symbol_name("_I2C_sendStop")
      76                            .dwattr DW$12, DW_AT_declaration(0x01)
      77                            .dwattr DW$12, DW_AT_external(0x01)
      78                    DW$13   .dwtag  DW_TAG_formal_parameter, DW_AT_type(*DW$T$25)
      79                            .dwendtag DW$12
      80                    
      81                    
      82                    DW$14   .dwtag  DW_TAG_subprogram, DW_AT_name("I2C_start"), DW_AT_symbol_name("_I2C_start")
      83                            .dwattr DW$14, DW_AT_declaration(0x01)
      84                            .dwattr DW$14, DW_AT_external(0x01)
      85                    DW$15   .dwtag  DW_TAG_formal_parameter, DW_AT_type(*DW$T$25)
      86                            .dwendtag DW$14
      87                    
      88                    
      89                    DW$16   .dwtag  DW_TAG_subprogram, DW_AT_name("I2C_config"), DW_AT_symbol_name("_I2C_config")
      90                            .dwattr DW$16, DW_AT_declaration(0x01)
      91                            .dwattr DW$16, DW_AT_external(0x01)
      92                    DW$17   .dwtag  DW_TAG_formal_parameter, DW_AT_type(*DW$T$25)
      93                    DW$18   .dwtag  DW_TAG_formal_parameter, DW_AT_type(*DW$T$32)
      94                            .dwendtag DW$16
      95                    
      96                    
      97                    DW$19   .dwtag  DW_TAG_subprogram, DW_AT_name("I2C_getConfig"), DW_AT_symbol_name("_I2C_getConfig")
      98                            .dwattr DW$19, DW_AT_declaration(0x01)
      99                            .dwattr DW$19, DW_AT_external(0x01)
     100                    DW$20   .dwtag  DW_TAG_formal_parameter, DW_AT_type(*DW$T$25)
     101                    DW$21   .dwtag  DW_TAG_formal_parameter, DW_AT_type(*DW$T$32)
     102                            .dwendtag DW$19
     103                    
     104 00000000                   .sect   ".const"
     105                            .align  4
     106 00000000           _EVM642VIDEOIIC_Config:
     107 00000000 00000000          .field          0,32                    ; _EVM642VIDEOIIC_Config._i2coar @ 0
     108 00000004 00000000          .field          0,32                    ; _EVM642VIDEOIIC_Config._i2cier @ 32
     109 00000008 0000000F          .field          15,32                   ; _EVM642VIDEOIIC_Config._i2cclkl @ 64
     110 0000000c 0000000F          .field          15,32                   ; _EVM642VIDEOIIC_Config._i2cclkh @ 96
TMS320C6x COFF Assembler PC v5.1.0 Fri Jan 07 14:23:25 2011

Tools Copyright (c) 1996-2005 Texas Instruments Incorporated
C:\DOCUME~1\yqhe\LOCALS~1\Temp\TI3722                                PAGE    3

     111 00000010 00000001          .field          1,32                    ; _EVM642VIDEOIIC_Config._i2ccnt @ 128
     112 00000014 00000000          .field          0,32                    ; _EVM642VIDEOIIC_Config._i2csar @ 160
     113 00000018 00004620          .field          17952,32                        ; _EVM642VIDEOIIC_Config._i2cmdr @ 192
     114 0000001c 0000004A          .field          74,32                   ; _EVM642VIDEOIIC_Config._i2cpsc @ 224
     115                    
     116                    DW$22   .dwtag  DW_TAG_variable, DW_AT_name("EVM642VIDEOIIC_Config"), DW_AT_symbol_name("_EVM642VIDEOI
     117                            .dwattr DW$22, DW_AT_type(*DW$T$46)
     118                            .dwattr DW$22, DW_AT_location[DW_OP_addr _EVM642VIDEOIIC_Config]
     119 00000020                   .sect   ".const"
     120                            .align  4
     121 00000020           _EVM642VIDEOIIC_Config_Read:
     122 00000020 00000000          .field          0,32                    ; _EVM642VIDEOIIC_Config_Read._i2coar @ 0
     123 00000024 00000000          .field          0,32                    ; _EVM642VIDEOIIC_Config_Read._i2cier @ 32
     124 00000028 0000000F          .field          15,32                   ; _EVM642VIDEOIIC_Config_Read._i2cclkl @ 64
     125 0000002c 0000000F          .field          15,32                   ; _EVM642VIDEOIIC_Config_Read._i2cclkh @ 96
     126 00000030 00000001          .field          1,32                    ; _EVM642VIDEOIIC_Config_Read._i2ccnt @ 128
     127 00000034 00000000          .field          0,32                    ; _EVM642VIDEOIIC_Config_Read._i2csar @ 160
     128 00000038 00004C20          .field          19488,32                        ; _EVM642VIDEOIIC_Config_Read._i2cmdr @ 192
     129 0000003c 0000004A          .field          74,32                   ; _EVM642VIDEOIIC_Config_Read._i2cpsc @ 224
     130                    
     131                    DW$23   .dwtag  DW_TAG_variable, DW_AT_name("EVM642VIDEOIIC_Config_Read"), DW_AT_symbol_name("_EVM642V
     132                            .dwattr DW$23, DW_AT_type(*DW$T$46)
     133                            .dwattr DW$23, DW_AT_location[DW_OP_addr _EVM642VIDEOIIC_Config_Read]
     134                    ;       E:\CCStudio_v3.1\C6000\cgtools\bin\acp6x.exe -@C:\DOCUME~1\yqhe\LOCALS~1\Temp\TI3724 
     135 00000000                   .sect   ".text"
     136                            .global __IIC_write
     137                    
     138                    DW$24   .dwtag  DW_TAG_subprogram, DW_AT_name("_IIC_write"), DW_AT_symbol_name("__IIC_write")
     139                            .dwattr DW$24, DW_AT_low_pc(__IIC_write)
     140                            .dwattr DW$24, DW_AT_high_pc(0x00)
     141                            .dwattr DW$24, DW_AT_begin_file("_iic.c")
     142                            .dwattr DW$24, DW_AT_begin_line(0x34)
     143                            .dwattr DW$24, DW_AT_begin_column(0x06)
     144                            .dwpsn  "_iic.c",58,1
     145                    
     146                            .dwfde DW$CIE
     147                    
     148                    ;******************************************************************************
     149                    ;* FUNCTION NAME: __IIC_write                                                 *
     150                    ;*                                                                            *
     151                    ;*   Regs Modified     : A0,A1,A2,A3,A4,A5,A6,A7,A8,A9,B0,B1,B2,B3,B4,B5,B6,  *
     152                    ;*                           B7,B8,B9,SP,A16,A17,A18,A19,A20,A21,A22,A23,A24, *
     153                    ;*                           A25,A26,A27,A28,A29,A30,A31,B16,B17,B18,B19,B20, *
     154                    ;*                           B21,B22,B23,B24,B25,B26,B27,B28,B29,B30,B31      *
     155                    ;*   Regs Used         : A0,A1,A2,A3,A4,A5,A6,A7,A8,A9,B0,B1,B2,B3,B4,B5,B6,  *
     156                    ;*                           B7,B8,B9,SP,A16,A17,A18,A19,A20,A21,A22,A23,A24, *
     157                    ;*                           A25,A26,A27,A28,A29,A30,A31,B16,B17,B18,B19,B20, *
     158                    ;*                           B21,B22,B23,B24,B25,B26,B27,B28,B29,B30,B31      *
     159                    ;*   Local Frame Size  : 0 Args + 60 Auto + 4 Save = 64 byte                  *
     160                    ;******************************************************************************
     161                    __IIC_write:
     162                    ;** --------------------------------------------------------------------------*
     163                            .dwcfa  0x0e, 0
     164                            .dwcfa  0x09, 126, 19
     165 00000000 01BE14F6             STW     .D2T2   B3,*SP--(64)      ; |58| 
TMS320C6x COFF Assembler PC v5.1.0 Fri Jan 07 14:23:25 2011

Tools Copyright (c) 1996-2005 Texas Instruments Incorporated
C:\DOCUME~1\yqhe\LOCALS~1\Temp\TI3722                                PAGE    4

     166 00000004 00002000             NOP             2
     167                            .dwcfa  0x0e, 64
     168                            .dwcfa  0x80, 19, 0
     169                    DW$25   .dwtag  DW_TAG_formal_parameter, DW_AT_name("hI2C"), DW_AT_symbol_name("_hI2C")
     170                            .dwattr DW$25, DW_AT_type(*DW$T$25)
     171                            .dwattr DW$25, DW_AT_location[DW_OP_reg4]
     172                    DW$26   .dwtag  DW_TAG_formal_parameter, DW_AT_name("devAddress"), DW_AT_symbol_name("_devAddress")
     173                            .dwattr DW$26, DW_AT_type(*DW$T$26)
     174                            .dwattr DW$26, DW_AT_location[DW_OP_reg20]
     175                    DW$27   .dwtag  DW_TAG_formal_parameter, DW_AT_name("subAddress"), DW_AT_symbol_name("_subAddress")
     176                            .dwattr DW$27, DW_AT_type(*DW$T$19)
     177                            .dwattr DW$27, DW_AT_location[DW_OP_reg6]
     178                    DW$28   .dwtag  DW_TAG_formal_parameter, DW_AT_name("data"), DW_AT_symbol_name("_data")
     179                            .dwattr DW$28, DW_AT_type(*DW$T$35)
     180                            .dwattr DW$28, DW_AT_location[DW_OP_reg22]
     181                    DW$29   .dwtag  DW_TAG_formal_parameter, DW_AT_name("numBytes"), DW_AT_symbol_name("_numBytes")
     182                            .dwattr DW$29, DW_AT_type(*DW$T$36)
     183                            .dwattr DW$29, DW_AT_location[DW_OP_reg8]
     184                    DW$30   .dwtag  DW_TAG_variable, DW_AT_name("hI2C"), DW_AT_symbol_name("_hI2C")
     185                            .dwattr DW$30, DW_AT_type(*DW$T$25)
     186                            .dwattr DW$30, DW_AT_location[DW_OP_breg31 4]
     187                    DW$31   .dwtag  DW_TAG_variable, DW_AT_name("devAddress"), DW_AT_symbol_name("_devAddress")
     188                            .dwattr DW$31, DW_AT_type(*DW$T$26)
     189                            .dwattr DW$31, DW_AT_location[DW_OP_breg31 8]
     190                    DW$32   .dwtag  DW_TAG_variable, DW_AT_name("subAddress"), DW_AT_symbol_name("_subAddress")
     191                            .dwattr DW$32, DW_AT_type(*DW$T$19)
     192                            .dwattr DW$32, DW_AT_location[DW_OP_breg31 12]
     193                    DW$33   .dwtag  DW_TAG_variable, DW_AT_name("data"), DW_AT_symbol_name("_data")
     194                            .dwattr DW$33, DW_AT_type(*DW$T$35)
     195                            .dwattr DW$33, DW_AT_location[DW_OP_breg31 16]
     196                    DW$34   .dwtag  DW_TAG_variable, DW_AT_name("numBytes"), DW_AT_symbol_name("_numBytes")
     197                            .dwattr DW$34, DW_AT_type(*DW$T$36)
     198                            .dwattr DW$34, DW_AT_location[DW_OP_breg31 20]
     199                    DW$35   .dwtag  DW_TAG_variable, DW_AT_name("i"), DW_AT_symbol_name("_i")
     200                            .dwattr DW$35, DW_AT_type(*DW$T$41)
     201                            .dwattr DW$35, DW_AT_location[DW_OP_breg31 24]
     202                    DW$36   .dwtag  DW_TAG_variable, DW_AT_name("prevIICConfig"), DW_AT_symbol_name("_prevIICConfig")
     203                            .dwattr DW$36, DW_AT_type(*DW$T$31)
     204                            .dwattr DW$36, DW_AT_location[DW_OP_breg31 28]
     205 00000008 043D42D4             STH     .D2T1   A8,*+SP(20)       ; |58| 
     206 0000000c 033C62F4             STW     .D2T1   A6,*+SP(12)       ; |58| 
     207 00000010 023D02B6             STB     .D2T2   B4,*+SP(8)        ; |58| 
     208                    
     209 00000014 023C22F5             STW     .D2T1   A4,*+SP(4)        ; |58| 
     210 00000018 01981FD8  ||         MV      .L1X    B6,A3             ; |58| 
     211                    
     212 0000001c 01BC82F4             STW     .D2T1   A3,*+SP(16)       ; |58| 
     213 00000020 00002000             NOP             2
     214                            .dwpsn  "_iic.c",63,5
     215 00000024 02FCA35A             MVK     .L2     -1,B5             ; |63| 
     216 00000028 0010BA7A             CMPEQ   .L2X    A4,B5,B0          ; |63| 
     217 0000002c 20E7A120     [ B0]   BNOP    .S1     L18,5             ; |63| 
     218                               ; BRANCHCC OCCURS {L18}           ; |63| 
     219                    ;** --------------------------------------------------------------------------*
     220                            .dwpsn  "_iic.c",64,9
TMS320C6x COFF Assembler PC v5.1.0 Fri Jan 07 14:23:25 2011

Tools Copyright (c) 1996-2005 Texas Instruments Incorporated
C:\DOCUME~1\yqhe\LOCALS~1\Temp\TI3722                                PAGE    5

     221                            .dwpsn  "_iic.c",68,5
     222 00000030 0200002A!            MVKL    .S2     _I2C_bb,B4        ; |68| 
     223 00000034 0200006A!            MVKH    .S2     _I2C_bb,B4        ; |68| 
     224 00000038 00100362             CALL    .S2     B4                ; |68| 
     225 0000003c 01888162             ADDKPC  .S2     RL0,B3,4          ; |68| 
     226 00000040           RL0:       ; CALL OCCURS {_I2C_bb}           ; |68| 
     227 00000040 00100FD8             MV      .L1     A4,A0             ; |68| 
     228 00000044 D009A120     [!A0]   BNOP    .S1     L2,5              ; |68| 
     229                               ; BRANCHCC OCCURS {L2}            ; |68| 
     230                    ;*----------------------------------------------------------------------------*
     231                    ;*   SOFTWARE PIPELINE INFORMATION
     232                    ;*      Disqualified loop: Software pipelining disabled
     233                    ;*----------------------------------------------------------------------------*
     234 00000048           L1:    
     235 00000048           DW$L$__IIC_write$3$B:
     236 00000048 0200002A!            MVKL    .S2     _I2C_bb,B4        ; |68| 
     237 0000004c 0200006A!            MVKH    .S2     _I2C_bb,B4        ; |68| 
     238 00000050 00100362             CALL    .S2     B4                ; |68| 
     239 00000054 023C22E4             LDW     .D2T1   *+SP(4),A4        ; |68| 
     240 00000058 01876162             ADDKPC  .S2     RL1,B3,3          ; |68| 
     241 0000005c           RL1:       ; CALL OCCURS {_I2C_bb}           ; |68| 
     242 0000005c 00100FD8             MV      .L1     A4,A0             ; |68| 
     243 00000060 CFFAA120     [ A0]   BNOP    .S1     L1,5              ; |68| 
     244                               ; BRANCHCC OCCURS {L1}            ; |68| 
     245                    DW$L$__IIC_write$3$E:
     246                    ;** --------------------------------------------------------------------------*
     247                    L2:    
     248                            .dwpsn  "_iic.c",71,5
     249 00000064 01800028!            MVKL    .S1     _I2C_getConfig,A3 ; |71| 
     250 00000068 01800068!            MVKH    .S1     _I2C_getConfig,A3 ; |71| 
     251 0000006c 000C1362             CALL    .S2X    A3                ; |71| 
     252 00000070 023C22E4             LDW     .D2T1   *+SP(4),A4        ; |71| 
     253 00000074 01874162             ADDKPC  .S2     RL2,B3,2          ; |71| 
     254 00000078 023F8942             ADD     .D2     SP,28,B4          ; |71| 
     255                    RL2:       ; CALL OCCURS {_I2C_getConfig}    ; |71| 
     256                            .dwpsn  "_iic.c",74,5
     257 0000007c 023C22E4             LDW     .D2T1   *+SP(4),A4        ; |74| 
     258 00000080 00000000             NOP             1
     259 00000084 01800C28+            MVKL    .S1     _EVM642VIDEOIIC_Config+24,A3 ; |74| 
     260 00000088 01800068+            MVKH    .S1     _EVM642VIDEOIIC_Config+24,A3 ; |74| 
     261 0000008c 020C0266             LDW     .D1T2   *A3,B4            ; |74| 
     262 00000090 01904264             LDW     .D1T1   *+A4(8),A3        ; |74| 
     263 00000094 00006000             NOP             4
     264 00000098 020D2276             STW     .D1T2   B4,*+A3(36)       ; |74| 
     265 0000009c 00002000             NOP             2
     266                            .dwpsn  "_iic.c",77,5
     267 000000a0 023C22E4             LDW     .D2T1   *+SP(4),A4        ; |77| 
     268 000000a4 00000000             NOP             1
     269 000000a8 01800228+            MVKL    .S1     _EVM642VIDEOIIC_Config+4,A3 ; |77| 
     270 000000ac 01800068+            MVKH    .S1     _EVM642VIDEOIIC_Config+4,A3 ; |77| 
     271 000000b0 020C0266             LDW     .D1T2   *A3,B4            ; |77| 
     272 000000b4 01904264             LDW     .D1T1   *+A4(8),A3        ; |77| 
     273 000000b8 00006000             NOP             4
     274 000000bc 020C2276             STW     .D1T2   B4,*+A3(4)        ; |77| 
     275 000000c0 00002000             NOP             2
TMS320C6x COFF Assembler PC v5.1.0 Fri Jan 07 14:23:25 2011

Tools Copyright (c) 1996-2005 Texas Instruments Incorporated
C:\DOCUME~1\yqhe\LOCALS~1\Temp\TI3722                                PAGE    6

     276                            .dwpsn  "_iic.c",80,5
     277 000000c4 01BC22E4             LDW     .D2T1   *+SP(4),A3        ; |80| 
     278 000000c8 00004000             NOP             3
     279 000000cc 023D0296             LDBU    .D2T2   *+SP(8),B4        ; |80| 
     280 000000d0 018C4264             LDW     .D1T1   *+A3(8),A3        ; |80| 
     281 000000d4 00006000             NOP             4
     282 000000d8 020CE276             STW     .D1T2   B4,*+A3(28)       ; |80| 
     283 000000dc 00002000             NOP             2
     284                            .dwpsn  "_iic.c",83,5
     285 000000e0 01BC22E4             LDW     .D2T1   *+SP(4),A3        ; |83| 
     286 000000e4 023D4286             LDHU    .D2T2   *+SP(20),B4       ; |83| 
     287 000000e8 00004000             NOP             3
     288 000000ec 018C4264             LDW     .D1T1   *+A3(8),A3        ; |83| 
     289 000000f0 00004000             NOP             3
     290 000000f4 0210205A             ADD     .L2     1,B4,B4           ; |83| 
     291 000000f8 020CA276             STW     .D1T2   B4,*+A3(20)       ; |83| 
     292 000000fc 00002000             NOP             2
     293                            .dwpsn  "_iic.c",86,5
     294 00000100 023C22E6             LDW     .D2T2   *+SP(4),B4        ; |86| 
     295 00000104 00004000             NOP             3
     296 00000108 02BC62E6             LDW     .D2T2   *+SP(12),B5       ; |86| 
     297 0000010c 021042E6             LDW     .D2T2   *+B4(8),B4        ; |86| 
     298 00000110 00006000             NOP             4
     299 00000114 029102F6             STW     .D2T2   B5,*+B4(32)       ; |86| 
     300 00000118 00002000             NOP             2
     301                            .dwpsn  "_iic.c",89,5
     302 0000011c 0200002A!            MVKL    .S2     _I2C_start,B4     ; |89| 
     303 00000120 0200006A!            MVKH    .S2     _I2C_start,B4     ; |89| 
     304 00000124 00100362             CALL    .S2     B4                ; |89| 
     305 00000128 023C22E4             LDW     .D2T1   *+SP(4),A4        ; |89| 
     306 0000012c 01846162             ADDKPC  .S2     RL3,B3,3          ; |89| 
     307                    RL3:       ; CALL OCCURS {_I2C_start}        ; |89| 
     308                    
     309                    DW$37   .dwtag  DW_TAG_lexical_block, DW_AT_low_pc(0x00), DW_AT_high_pc(0x00)
     310                    DW$38   .dwtag  DW_TAG_variable, DW_AT_name("j"), DW_AT_symbol_name("_j")
     311                            .dwattr DW$38, DW_AT_type(*DW$T$42)
     312                            .dwattr DW$38, DW_AT_location[DW_OP_breg31 60]
     313                            .dwpsn  "_iic.c",91,5
     314 00000130 0200A35A             ZERO    .L2     B4                ; |91| 
     315 00000134 023DE2F6             STW     .D2T2   B4,*+SP(60)       ; |91| 
     316 00000138 023DE2E6             LDW     .D2T2   *+SP(60),B4       ; |91| 
     317 0000013c 00004000             NOP             3
     318 00000140 0281F42A             MVK     .S2     1000,B5           ; |91| 
     319 00000144 00148AFA             CMPLT   .L2     B4,B5,B0          ; |91| 
     320 00000148 300BA120     [!B0]   BNOP    .S1     L4,5              ; |91| 
     321                               ; BRANCHCC OCCURS {L4}            ; |91| 
     322                    ;*----------------------------------------------------------------------------*
     323                    ;*   SOFTWARE PIPELINE INFORMATION
     324                    ;*      Disqualified loop: Software pipelining disabled
     325                    ;*----------------------------------------------------------------------------*
     326 0000014c           L3:    
     327 0000014c           DW$L$__IIC_write$5$B:
     328 0000014c 023DE2E6             LDW     .D2T2   *+SP(60),B4       ; |91| 
     329 00000150 00006000             NOP             4
     330 00000154 0210205A             ADD     .L2     1,B4,B4           ; |91| 
TMS320C6x COFF Assembler PC v5.1.0 Fri Jan 07 14:23:25 2011

Tools Copyright (c) 1996-2005 Texas Instruments Incorporated
C:\DOCUME~1\yqhe\LOCALS~1\Temp\TI3722                                PAGE    7

     331 00000158 023DE2F6             STW     .D2T2   B4,*+SP(60)       ; |91| 
     332 0000015c 023DE2E6             LDW     .D2T2   *+SP(60),B4       ; |91| 
     333 00000160 00006000             NOP             4
     334 00000164 00148AFA             CMPLT   .L2     B4,B5,B0          ; |91| 
     335 00000168 2FFBA120     [ B0]   BNOP    .S1     L3,5              ; |91| 
     336                               ; BRANCHCC OCCURS {L3}            ; |91| 
     337                    DW$L$__IIC_write$5$E:
     338                    ;** --------------------------------------------------------------------------*
     339                    L4:    
     340                            .dwendtag DW$37
     341                    
     342                            .dwpsn  "_iic.c",94,9
     343 0000016c 0200A35A             ZERO    .L2     B4                ; |94| 
     344 00000170 023CC2F6             STW     .D2T2   B4,*+SP(24)       ; |94| 
     345 00000174 00002000             NOP             2
     346                            .dwpsn  "_iic.c",94,16
     347 00000178 023D4286             LDHU    .D2T2   *+SP(20),B4       ; |94| 
     348 0000017c 02BCC2E6             LDW     .D2T2   *+SP(24),B5       ; |94| 
     349 00000180 00006000             NOP             4
     350 00000184 0010AAFA             CMPLT   .L2     B5,B4,B0          ; |94| 
     351 00000188 3032A120     [!B0]   BNOP    .S1     L10,5             ; |94| 
     352                               ; BRANCHCC OCCURS {L10}           ; |94| 
     353                    ;** --------------------------------------------------------------------------*
     354                    ;**   BEGIN LOOP L5
     355                    ;** --------------------------------------------------------------------------*
     356                    L5:    
     357                    DW$L$__IIC_write$7$B:
     358                            .dwpsn  "_iic.c",95,15
     359 0000018c 0200002A!            MVKL    .S2     _I2C_xrdy,B4      ; |95| 
     360 00000190 0200006A!            MVKH    .S2     _I2C_xrdy,B4      ; |95| 
     361 00000194 00100362             CALL    .S2     B4                ; |95| 
     362 00000198 023C22E4             LDW     .D2T1   *+SP(4),A4        ; |95| 
     363 0000019c 01886162             ADDKPC  .S2     RL4,B3,3          ; |95| 
     364 000001a0           RL4:       ; CALL OCCURS {_I2C_xrdy}         ; |95| 
     365 000001a0 00100FD8             MV      .L1     A4,A0             ; |95| 
     366 000001a4 C009A120     [ A0]   BNOP    .S1     L7,5              ; |95| 
     367                               ; BRANCHCC OCCURS {L7}            ; |95| 
     368 000001a8           DW$L$__IIC_write$7$E:
     369                    ;*----------------------------------------------------------------------------*
     370                    ;*   SOFTWARE PIPELINE INFORMATION
     371                    ;*      Disqualified loop: Software pipelining disabled
     372                    ;*----------------------------------------------------------------------------*
     373 000001a8           L6:    
     374 000001a8           DW$L$__IIC_write$8$B:
     375 000001a8 0200002A!            MVKL    .S2     _I2C_xrdy,B4      ; |95| 
     376 000001ac 0200006A!            MVKH    .S2     _I2C_xrdy,B4      ; |95| 
     377 000001b0 00100362             CALL    .S2     B4                ; |95| 
     378 000001b4 023C22E4             LDW     .D2T1   *+SP(4),A4        ; |95| 
     379 000001b8 01876162             ADDKPC  .S2     RL5,B3,3          ; |95| 
     380 000001bc           RL5:       ; CALL OCCURS {_I2C_xrdy}         ; |95| 
     381 000001bc 00100FD8             MV      .L1     A4,A0             ; |95| 
     382 000001c0 DFFAA120     [!A0]   BNOP    .S1     L6,5              ; |95| 
     383                               ; BRANCHCC OCCURS {L6}            ; |95| 
     384                    DW$L$__IIC_write$8$E:
     385                    ;** --------------------------------------------------------------------------*
TMS320C6x COFF Assembler PC v5.1.0 Fri Jan 07 14:23:25 2011

Tools Copyright (c) 1996-2005 Texas Instruments Incorporated
C:\DOCUME~1\yqhe\LOCALS~1\Temp\TI3722                                PAGE    8

     386                    L7:    
     387                    DW$L$__IIC_write$9$B:
     388                            .dwpsn  "_iic.c",96,9
     389 000001c4 02BC82E6             LDW     .D2T2   *+SP(16),B5       ; |96| 
     390 000001c8 01800028!            MVKL    .S1     _I2C_writeByte,A3 ; |96| 
     391 000001cc 01800068!            MVKH    .S1     _I2C_writeByte,A3 ; |96| 
     392 000001d0 023C22E4             LDW     .D2T1   *+SP(4),A4        ; |96| 
     393 000001d4 000C1362             CALL    .S2X    A3                ; |96| 
     394 000001d8 02143696             LDBU    .D2T2   *B5++,B4          ; |96| 
     395 000001dc 02BC82F6             STW     .D2T2   B5,*+SP(16)       ; |96| 
     396 000001e0 01814162             ADDKPC  .S2     RL6,B3,2          ; |96| 
     397                    RL6:       ; CALL OCCURS {_I2C_writeByte}    ; |96| 
     398                    
     399                    DW$39   .dwtag  DW_TAG_lexical_block, DW_AT_low_pc(0x00), DW_AT_high_pc(0x00)
     400                    DW$40   .dwtag  DW_TAG_variable, DW_AT_name("j"), DW_AT_symbol_name("_j")
     401                            .dwattr DW$40, DW_AT_type(*DW$T$42)
     402                            .dwattr DW$40, DW_AT_location[DW_OP_breg31 60]
     403                            .dwpsn  "_iic.c",97,9
     404 000001e4 0200A35A             ZERO    .L2     B4                ; |97| 
     405 000001e8 023DE2F6             STW     .D2T2   B4,*+SP(60)       ; |97| 
     406 000001ec 023DE2E6             LDW     .D2T2   *+SP(60),B4       ; |97| 
     407 000001f0 00004000             NOP             3
     408 000001f4 0281F42A             MVK     .S2     1000,B5           ; |97| 
     409 000001f8 00148AFA             CMPLT   .L2     B4,B5,B0          ; |97| 
     410 000001fc 3010A120     [!B0]   BNOP    .S1     L9,5              ; |97| 
     411                               ; BRANCHCC OCCURS {L9}            ; |97| 
     412 00000200           DW$L$__IIC_write$9$E:
     413                    ;*----------------------------------------------------------------------------*
     414                    ;*   SOFTWARE PIPELINE INFORMATION
     415                    ;*      Disqualified loop: Software pipelining disabled
     416                    ;*----------------------------------------------------------------------------*
     417 00000200           L8:    
     418 00000200           DW$L$__IIC_write$10$B:
     419 00000200 023DE2E6             LDW     .D2T2   *+SP(60),B4       ; |97| 
     420 00000204 00006000             NOP             4
     421 00000208 0210205A             ADD     .L2     1,B4,B4           ; |97| 
     422 0000020c 023DE2F6             STW     .D2T2   B4,*+SP(60)       ; |97| 
     423 00000210 023DE2E6             LDW     .D2T2   *+SP(60),B4       ; |97| 
     424 00000214 00006000             NOP             4
     425 00000218 00148AFA             CMPLT   .L2     B4,B5,B0          ; |97| 
     426 0000021c 2000A120     [ B0]   BNOP    .S1     L8,5              ; |97| 
     427                               ; BRANCHCC OCCURS {L8}            ; |97| 
     428                    DW$L$__IIC_write$10$E:
     429                    ;** --------------------------------------------------------------------------*
     430                    L9:    
     431                    DW$L$__IIC_write$11$B:
     432                            .dwendtag DW$39
     433                    
     434                            .dwpsn  "_iic.c",94,30
     435 00000220 023CC2E6             LDW     .D2T2   *+SP(24),B4       ; |94| 
     436 00000224 00006000             NOP             4
     437 00000228 0210205A             ADD     .L2     1,B4,B4           ; |94| 
     438 0000022c 023CC2F6             STW     .D2T2   B4,*+SP(24)       ; |94| 
     439 00000230 00002000             NOP             2
     440                            .dwpsn  "_iic.c",94,16
TMS320C6x COFF Assembler PC v5.1.0 Fri Jan 07 14:23:25 2011

Tools Copyright (c) 1996-2005 Texas Instruments Incorporated
C:\DOCUME~1\yqhe\LOCALS~1\Temp\TI3722                                PAGE    9

     441 00000234 023D4286             LDHU    .D2T2   *+SP(20),B4       ; |94| 
     442 00000238 02BCC2E6             LDW     .D2T2   *+SP(24),B5       ; |94| 
     443 0000023c 00006000             NOP             4
     444 00000240 0010AAFA             CMPLT   .L2     B5,B4,B0          ; |94| 
     445 00000244 2FD3A120     [ B0]   BNOP    .S1     L5,5              ; |94| 
     446                               ; BRANCHCC OCCURS {L5}            ; |94| 
     447                    DW$L$__IIC_write$11$E:
     448                    ;** --------------------------------------------------------------------------*
     449                    L10:    
     450                            .dwpsn  "_iic.c",101,5
     451 00000248 01800028!            MVKL    .S1     _I2C_sendStop,A3  ; |101| 
     452 0000024c 01800068!            MVKH    .S1     _I2C_sendStop,A3  ; |101| 
     453 00000250 000C1362             CALL    .S2X    A3                ; |101| 
     454 00000254 023C22E4             LDW     .D2T1   *+SP(4),A4        ; |101| 
     455 00000258 01876162             ADDKPC  .S2     RL7,B3,3          ; |101| 
     456                    RL7:       ; CALL OCCURS {_I2C_sendStop}     ; |101| 
     457                    
     458                    DW$41   .dwtag  DW_TAG_lexical_block, DW_AT_low_pc(0x00), DW_AT_high_pc(0x00)
     459                    DW$42   .dwtag  DW_TAG_variable, DW_AT_name("j"), DW_AT_symbol_name("_j")
     460                            .dwattr DW$42, DW_AT_type(*DW$T$42)
     461                            .dwattr DW$42, DW_AT_location[DW_OP_breg31 60]
     462                            .dwpsn  "_iic.c",103,5
     463 0000025c 0200A35A             ZERO    .L2     B4                ; |103| 
     464 00000260 023DE2F6             STW     .D2T2   B4,*+SP(60)       ; |103| 
     465 00000264 023DE2E6             LDW     .D2T2   *+SP(60),B4       ; |103| 
     466 00000268 00004000             NOP             3
     467 0000026c 0281F42A             MVK     .S2     1000,B5           ; |103| 
     468 00000270 00148AFA             CMPLT   .L2     B4,B5,B0          ; |103| 
     469 00000274 300EA120     [!B0]   BNOP    .S1     L12,5             ; |103| 
     470                               ; BRANCHCC OCCURS {L12}           ; |103| 
     471                    ;*----------------------------------------------------------------------------*
     472                    ;*   SOFTWARE PIPELINE INFORMATION
     473                    ;*      Disqualified loop: Software pipelining disabled
     474                    ;*----------------------------------------------------------------------------*
     475 00000278           L11:    
     476 00000278           DW$L$__IIC_write$13$B:
     477 00000278 023DE2E6             LDW     .D2T2   *+SP(60),B4       ; |103| 
     478 0000027c 00006000             NOP             4
     479 00000280 0210205A             ADD     .L2     1,B4,B4           ; |103| 
     480 00000284 023DE2F6             STW     .D2T2   B4,*+SP(60)       ; |103| 
     481 00000288 023DE2E6             LDW     .D2T2   *+SP(60),B4       ; |103| 
     482 0000028c 00006000             NOP             4
     483 00000290 00148AFA             CMPLT   .L2     B4,B5,B0          ; |103| 
     484 00000294 2FFEA120     [ B0]   BNOP    .S1     L11,5             ; |103| 
     485                               ; BRANCHCC OCCURS {L11}           ; |103| 
     486                    DW$L$__IIC_write$13$E:
     487                    ;** --------------------------------------------------------------------------*
     488                    L12:    
     489                            .dwendtag DW$41
     490                    
     491                            .dwpsn  "_iic.c",105,5
     492 00000298 0200002A!            MVKL    .S2     _I2C_bb,B4        ; |105| 
     493 0000029c 0200006A!            MVKH    .S2     _I2C_bb,B4        ; |105| 
     494 000002a0 00100362             CALL    .S2     B4                ; |105| 
     495 000002a4 023C22E4             LDW     .D2T1   *+SP(4),A4        ; |105| 
TMS320C6x COFF Assembler PC v5.1.0 Fri Jan 07 14:23:25 2011

Tools Copyright (c) 1996-2005 Texas Instruments Incorporated
C:\DOCUME~1\yqhe\LOCALS~1\Temp\TI3722                                PAGE   10

     496 000002a8 01836162             ADDKPC  .S2     RL8,B3,3          ; |105| 
     497 000002ac           RL8:       ; CALL OCCURS {_I2C_bb}           ; |105| 
     498 000002ac 00100FD8             MV      .L1     A4,A0             ; |105| 
     499 000002b0 D00CA120     [!A0]   BNOP    .S1     L14,5             ; |105| 
     500                               ; BRANCHCC OCCURS {L14}           ; |105| 
     501                    ;*----------------------------------------------------------------------------*
     502                    ;*   SOFTWARE PIPELINE INFORMATION
     503                    ;*      Disqualified loop: Software pipelining disabled
     504                    ;*----------------------------------------------------------------------------*
     505 000002b4           L13:    
     506 000002b4           DW$L$__IIC_write$15$B:
     507 000002b4 0200002A!            MVKL    .S2     _I2C_bb,B4        ; |105| 
     508 000002b8 0200006A!            MVKH    .S2     _I2C_bb,B4        ; |105| 
     509 000002bc 00100362             CALL    .S2     B4                ; |105| 
     510 000002c0 023C22E4             LDW     .D2T1   *+SP(4),A4        ; |105| 
     511 000002c4 01826162             ADDKPC  .S2     RL9,B3,3          ; |105| 
     512 000002c8           RL9:       ; CALL OCCURS {_I2C_bb}           ; |105| 
     513 000002c8 00100FD8             MV      .L1     A4,A0             ; |105| 
     514 000002cc CFFDA120     [ A0]   BNOP    .S1     L13,5             ; |105| 
     515                               ; BRANCHCC OCCURS {L13}           ; |105| 
     516                    DW$L$__IIC_write$15$E:
     517                    ;** --------------------------------------------------------------------------*
     518                    L14:    
     519                    
     520                    DW$43   .dwtag  DW_TAG_lexical_block, DW_AT_low_pc(0x00), DW_AT_high_pc(0x00)
     521                    DW$44   .dwtag  DW_TAG_variable, DW_AT_name("j"), DW_AT_symbol_name("_j")
     522                            .dwattr DW$44, DW_AT_type(*DW$T$42)
     523                            .dwattr DW$44, DW_AT_location[DW_OP_breg31 60]
     524                            .dwpsn  "_iic.c",107,5
     525 000002d0 0200A35A             ZERO    .L2     B4                ; |107| 
     526 000002d4 023DE2F6             STW     .D2T2   B4,*+SP(60)       ; |107| 
     527 000002d8 023DE2E6             LDW     .D2T2   *+SP(60),B4       ; |107| 
     528 000002dc 00004000             NOP             3
     529 000002e0 0281F42A             MVK     .S2     1000,B5           ; |107| 
     530 000002e4 00148AFA             CMPLT   .L2     B4,B5,B0          ; |107| 
     531 000002e8 300BA120     [!B0]   BNOP    .S1     L16,5             ; |107| 
     532                               ; BRANCHCC OCCURS {L16}           ; |107| 
     533                    ;*----------------------------------------------------------------------------*
     534                    ;*   SOFTWARE PIPELINE INFORMATION
     535                    ;*      Disqualified loop: Software pipelining disabled
     536                    ;*----------------------------------------------------------------------------*
     537 000002ec           L15:    
     538 000002ec           DW$L$__IIC_write$17$B:
     539 000002ec 023DE2E6             LDW     .D2T2   *+SP(60),B4       ; |107| 
     540 000002f0 00006000             NOP             4
     541 000002f4 0210205A             ADD     .L2     1,B4,B4           ; |107| 
     542 000002f8 023DE2F6             STW     .D2T2   B4,*+SP(60)       ; |107| 
     543 000002fc 023DE2E6             LDW     .D2T2   *+SP(60),B4       ; |107| 
     544 00000300 00006000             NOP             4
     545 00000304 00148AFA             CMPLT   .L2     B4,B5,B0          ; |107| 
     546 00000308 2FFBA120     [ B0]   BNOP    .S1     L15,5             ; |107| 
     547                               ; BRANCHCC OCCURS {L15}           ; |107| 
     548                    DW$L$__IIC_write$17$E:
     549                    ;** --------------------------------------------------------------------------*
     550                    L16:    
TMS320C6x COFF Assembler PC v5.1.0 Fri Jan 07 14:23:25 2011

Tools Copyright (c) 1996-2005 Texas Instruments Incorporated
C:\DOCUME~1\yqhe\LOCALS~1\Temp\TI3722                                PAGE   11

     551                            .dwendtag DW$43
     552                    
     553                            .dwpsn  "_iic.c",111,5
     554 0000030c 01BC22E4             LDW     .D2T1   *+SP(4),A3        ; |111| 
     555 00000310 00004000             NOP             3
     556 00000314 023DA2E6             LDW     .D2T2   *+SP(52),B4       ; |111| 
     557 00000318 018C4264             LDW     .D1T1   *+A3(8),A3        ; |111| 
     558 0000031c 00006000             NOP             4
     559 00000320 020D2276             STW     .D1T2   B4,*+A3(36)       ; |111| 
     560 00000324 00002000             NOP             2
     561                            .dwpsn  "_iic.c",114,5
     562 00000328 01BC22E4             LDW     .D2T1   *+SP(4),A3        ; |114| 
     563 0000032c 00004000             NOP             3
     564 00000330 023D02E6             LDW     .D2T2   *+SP(32),B4       ; |114| 
     565 00000334 018C4264             LDW     .D1T1   *+A3(8),A3        ; |114| 
     566 00000338 00006000             NOP             4
     567 0000033c 020C2276             STW     .D1T2   B4,*+A3(4)        ; |114| 
     568 00000340 00002000             NOP             2
     569                            .dwpsn  "_iic.c",117,5
     570 00000344 01BC22E4             LDW     .D2T1   *+SP(4),A3        ; |117| 
     571 00000348 00004000             NOP             3
     572 0000034c 023D82E6             LDW     .D2T2   *+SP(48),B4       ; |117| 
     573 00000350 018C4264             LDW     .D1T1   *+A3(8),A3        ; |117| 
     574 00000354 00006000             NOP             4
     575 00000358 020CE276             STW     .D1T2   B4,*+A3(28)       ; |117| 
     576 0000035c 00002000             NOP             2
     577                            .dwpsn  "_iic.c",120,5
     578 00000360 02BC22E6             LDW     .D2T2   *+SP(4),B5        ; |120| 
     579 00000364 00004000             NOP             3
     580 00000368 023D62E6             LDW     .D2T2   *+SP(44),B4       ; |120| 
     581 0000036c 029442E6             LDW     .D2T2   *+B5(8),B5        ; |120| 
     582 00000370 00006000             NOP             4
     583 00000374 0214A2F6             STW     .D2T2   B4,*+B5(20)       ; |120| 
     584 00000378 00002000             NOP             2
     585                    
     586                    DW$45   .dwtag  DW_TAG_lexical_block, DW_AT_low_pc(0x00), DW_AT_high_pc(0x00)
     587                    DW$46   .dwtag  DW_TAG_variable, DW_AT_name("j"), DW_AT_symbol_name("_j")
     588                            .dwattr DW$46, DW_AT_type(*DW$T$42)
     589                            .dwattr DW$46, DW_AT_location[DW_OP_breg31 60]
     590                            .dwpsn  "_iic.c",122,5
     591 0000037c 0200A35A             ZERO    .L2     B4                ; |122| 
     592 00000380 023DE2F6             STW     .D2T2   B4,*+SP(60)       ; |122| 
     593 00000384 02BDE2E6             LDW     .D2T2   *+SP(60),B5       ; |122| 
     594 00000388 00004000             NOP             3
     595 0000038c 0F81F42A             MVK     .S2     1000,B31          ; |122| 
     596 00000390 007CAAFA             CMPLT   .L2     B5,B31,B0         ; |122| 
     597 00000394 300FA120     [!B0]   BNOP    .S1     L18,5             ; |122| 
     598                               ; BRANCHCC OCCURS {L18}           ; |122| 
     599                    ;*----------------------------------------------------------------------------*
     600                    ;*   SOFTWARE PIPELINE INFORMATION
     601                    ;*      Disqualified loop: Software pipelining disabled
     602                    ;*----------------------------------------------------------------------------*
     603 00000398           L17:    
     604 00000398           DW$L$__IIC_write$19$B:
     605 00000398 023DE2E6             LDW     .D2T2   *+SP(60),B4       ; |122| 
TMS320C6x COFF Assembler PC v5.1.0 Fri Jan 07 14:23:25 2011

Tools Copyright (c) 1996-2005 Texas Instruments Incorporated
C:\DOCUME~1\yqhe\LOCALS~1\Temp\TI3722                                PAGE   12

     606 0000039c 00004000             NOP             3
     607 000003a0 0281F42A             MVK     .S2     1000,B5           ; |122| 
     608 000003a4 0210205A             ADD     .L2     1,B4,B4           ; |122| 
     609 000003a8 023DE2F6             STW     .D2T2   B4,*+SP(60)       ; |122| 
     610 000003ac 023DE2E6             LDW     .D2T2   *+SP(60),B4       ; |122| 
     611 000003b0 00006000             NOP             4
     612 000003b4 00148AFA             CMPLT   .L2     B4,B5,B0          ; |122| 
     613 000003b8 2FFEA120     [ B0]   BNOP    .S1     L17,5             ; |122| 
     614                               ; BRANCHCC OCCURS {L17}           ; |122| 
     615                    DW$L$__IIC_write$19$E:
     616                    ;** --------------------------------------------------------------------------*
     617                            .dwendtag DW$45
     618                    
     619                    ;** --------------------------------------------------------------------------*
     620                    L18:    
     621                            .dwpsn  "_iic.c",123,1
     622 000003bc 01BE12E6             LDW     .D2T2   *++SP(64),B3      ; |123| 
     623 000003c0 00006000             NOP             4
     624                            .dwcfa  0xc0, 19
     625                            .dwcfa  0x0e, 0
     626 000003c4 008CA362             RETNOP  .S2     B3,5              ; |123| 
     627                               ; BRANCH OCCURS {B3}              ; |123| 
     628                    
     629                    DW$47   .dwtag  DW_TAG_loop
     630                            .dwattr DW$47, DW_AT_name("C:\DOCUME~1\yqhe\LOCALS~1\Temp\TI3722:L17:1:1294381405")
     631                            .dwattr DW$47, DW_AT_begin_file("_iic.c")
     632                            .dwattr DW$47, DW_AT_begin_line(0x7a)
     633                            .dwattr DW$47, DW_AT_end_line(0x7a)
     634                    DW$48   .dwtag  DW_TAG_loop_range
     635                            .dwattr DW$48, DW_AT_low_pc(DW$L$__IIC_write$19$B)
     636                            .dwattr DW$48, DW_AT_high_pc(DW$L$__IIC_write$19$E)
     637                            .dwendtag DW$47
     638                    
     639                    
     640                    DW$49   .dwtag  DW_TAG_loop
     641                            .dwattr DW$49, DW_AT_name("C:\DOCUME~1\yqhe\LOCALS~1\Temp\TI3722:L15:1:1294381405")
     642                            .dwattr DW$49, DW_AT_begin_file("_iic.c")
     643                            .dwattr DW$49, DW_AT_begin_line(0x6b)
     644                            .dwattr DW$49, DW_AT_end_line(0x6b)
     645                    DW$50   .dwtag  DW_TAG_loop_range
     646                            .dwattr DW$50, DW_AT_low_pc(DW$L$__IIC_write$17$B)
     647                            .dwattr DW$50, DW_AT_high_pc(DW$L$__IIC_write$17$E)
     648                            .dwendtag DW$49
     649                    
     650                    
     651                    DW$51   .dwtag  DW_TAG_loop
     652                            .dwattr DW$51, DW_AT_name("C:\DOCUME~1\yqhe\LOCALS~1\Temp\TI3722:L13:1:1294381405")
     653                            .dwattr DW$51, DW_AT_begin_file("_iic.c")
     654                            .dwattr DW$51, DW_AT_begin_line(0x69)
     655                            .dwattr DW$51, DW_AT_end_line(0x69)
     656                    DW$52   .dwtag  DW_TAG_loop_range
     657                            .dwattr DW$52, DW_AT_low_pc(DW$L$__IIC_write$15$B)
     658                            .dwattr DW$52, DW_AT_high_pc(DW$L$__IIC_write$15$E)
     659                            .dwendtag DW$51
     660                    
TMS320C6x COFF Assembler PC v5.1.0 Fri Jan 07 14:23:25 2011

Tools Copyright (c) 1996-2005 Texas Instruments Incorporated
C:\DOCUME~1\yqhe\LOCALS~1\Temp\TI3722                                PAGE   13

     661                    
     662                    DW$53   .dwtag  DW_TAG_loop
     663                            .dwattr DW$53, DW_AT_name("C:\DOCUME~1\yqhe\LOCALS~1\Temp\TI3722:L11:1:1294381405")
     664                            .dwattr DW$53, DW_AT_begin_file("_iic.c")
     665                            .dwattr DW$53, DW_AT_begin_line(0x67)
     666                            .dwattr DW$53, DW_AT_end_line(0x67)
     667                    DW$54   .dwtag  DW_TAG_loop_range
     668                            .dwattr DW$54, DW_AT_low_pc(DW$L$__IIC_write$13$B)
     669                            .dwattr DW$54, DW_AT_high_pc(DW$L$__IIC_write$13$E)
     670                            .dwendtag DW$53
     671                    
     672                    
     673                    DW$55   .dwtag  DW_TAG_loop
     674                            .dwattr DW$55, DW_AT_name("C:\DOCUME~1\yqhe\LOCALS~1\Temp\TI3722:L5:1:1294381405")
     675                            .dwattr DW$55, DW_AT_begin_file("_iic.c")
     676                            .dwattr DW$55, DW_AT_begin_line(0x5e)
     677                            .dwattr DW$55, DW_AT_end_line(0x62)
     678                    DW$56   .dwtag  DW_TAG_loop_range
     679                            .dwattr DW$56, DW_AT_low_pc(DW$L$__IIC_write$7$B)
     680                            .dwattr DW$56, DW_AT_high_pc(DW$L$__IIC_write$7$E)
     681                    DW$57   .dwtag  DW_TAG_loop_range
     682                            .dwattr DW$57, DW_AT_low_pc(DW$L$__IIC_write$9$B)
     683                            .dwattr DW$57, DW_AT_high_pc(DW$L$__IIC_write$9$E)
     684                    DW$58   .dwtag  DW_TAG_loop_range
     685                            .dwattr DW$58, DW_AT_low_pc(DW$L$__IIC_write$11$B)
     686                            .dwattr DW$58, DW_AT_high_pc(DW$L$__IIC_write$11$E)
     687                    
     688                    DW$59   .dwtag  DW_TAG_loop
     689                            .dwattr DW$59, DW_AT_name("C:\DOCUME~1\yqhe\LOCALS~1\Temp\TI3722:L6:2:1294381405")
     690                            .dwattr DW$59, DW_AT_begin_file("_iic.c")
     691                            .dwattr DW$59, DW_AT_begin_line(0x5f)
     692                            .dwattr DW$59, DW_AT_end_line(0x5f)
     693                    DW$60   .dwtag  DW_TAG_loop_range
     694                            .dwattr DW$60, DW_AT_low_pc(DW$L$__IIC_write$8$B)
     695                            .dwattr DW$60, DW_AT_high_pc(DW$L$__IIC_write$8$E)
     696                            .dwendtag DW$59
     697                    
     698                    
     699                    DW$61   .dwtag  DW_TAG_loop
     700                            .dwattr DW$61, DW_AT_name("C:\DOCUME~1\yqhe\LOCALS~1\Temp\TI3722:L8:2:1294381405")
     701                            .dwattr DW$61, DW_AT_begin_file("_iic.c")
     702                            .dwattr DW$61, DW_AT_begin_line(0x61)
     703                            .dwattr DW$61, DW_AT_end_line(0x61)
     704                    DW$62   .dwtag  DW_TAG_loop_range
     705                            .dwattr DW$62, DW_AT_low_pc(DW$L$__IIC_write$10$B)
     706                            .dwattr DW$62, DW_AT_high_pc(DW$L$__IIC_write$10$E)
     707                            .dwendtag DW$61
     708                    
     709                            .dwendtag DW$55
     710                    
     711                    
     712                    DW$63   .dwtag  DW_TAG_loop
     713                            .dwattr DW$63, DW_AT_name("C:\DOCUME~1\yqhe\LOCALS~1\Temp\TI3722:L3:1:1294381405")
     714                            .dwattr DW$63, DW_AT_begin_file("_iic.c")
     715                            .dwattr DW$63, DW_AT_begin_line(0x5b)
TMS320C6x COFF Assembler PC v5.1.0 Fri Jan 07 14:23:25 2011

Tools Copyright (c) 1996-2005 Texas Instruments Incorporated
C:\DOCUME~1\yqhe\LOCALS~1\Temp\TI3722                                PAGE   14

     716                            .dwattr DW$63, DW_AT_end_line(0x5b)
     717                    DW$64   .dwtag  DW_TAG_loop_range
     718                            .dwattr DW$64, DW_AT_low_pc(DW$L$__IIC_write$5$B)
     719                            .dwattr DW$64, DW_AT_high_pc(DW$L$__IIC_write$5$E)
     720                            .dwendtag DW$63
     721                    
     722                    
     723                    DW$65   .dwtag  DW_TAG_loop
     724                            .dwattr DW$65, DW_AT_name("C:\DOCUME~1\yqhe\LOCALS~1\Temp\TI3722:L1:1:1294381405")
     725                            .dwattr DW$65, DW_AT_begin_file("_iic.c")
     726                            .dwattr DW$65, DW_AT_begin_line(0x44)
     727                            .dwattr DW$65, DW_AT_end_line(0x44)
     728                    DW$66   .dwtag  DW_TAG_loop_range
     729                            .dwattr DW$66, DW_AT_low_pc(DW$L$__IIC_write$3$B)
     730                            .dwattr DW$66, DW_AT_high_pc(DW$L$__IIC_write$3$E)
     731                            .dwendtag DW$65
     732                    
     733                            .dwattr DW$24, DW_AT_end_file("_iic.c")
     734                            .dwattr DW$24, DW_AT_end_line(0x7b)
     735                            .dwattr DW$24, DW_AT_end_column(0x01)
     736                            .dwendentry
     737                            .dwendtag DW$24
     738                    
     739 000003c8                   .sect   ".text"
     740                            .global __IIC_read
     741                    
     742                    DW$67   .dwtag  DW_TAG_subprogram, DW_AT_name("_IIC_read"), DW_AT_symbol_name("__IIC_read")
     743                            .dwattr DW$67, DW_AT_low_pc(__IIC_read)
     744                            .dwattr DW$67, DW_AT_high_pc(0x00)
     745                            .dwattr DW$67, DW_AT_begin_file("_iic.c")
     746                            .dwattr DW$67, DW_AT_begin_line(0x83)
     747                            .dwattr DW$67, DW_AT_begin_column(0x06)
     748                            .dwpsn  "_iic.c",137,1
     749                    
     750                            .dwfde DW$CIE
     751                    
     752                    ;******************************************************************************
     753                    ;* FUNCTION NAME: __IIC_read                                                  *
     754                    ;*                                                                            *
     755                    ;*   Regs Modified     : A0,A1,A2,A3,A4,A5,A6,A7,A8,A9,B0,B1,B2,B3,B4,B5,B6,  *
     756                    ;*                           B7,B8,B9,SP,A16,A17,A18,A19,A20,A21,A22,A23,A24, *
     757                    ;*                           A25,A26,A27,A28,A29,A30,A31,B16,B17,B18,B19,B20, *
     758                    ;*                           B21,B22,B23,B24,B25,B26,B27,B28,B29,B30,B31      *
     759                    ;*   Regs Used         : A0,A1,A2,A3,A4,A5,A6,A7,A8,A9,B0,B1,B2,B3,B4,B5,B6,  *
     760                    ;*                           B7,B8,B9,SP,A16,A17,A18,A19,A20,A21,A22,A23,A24, *
     761                    ;*                           A25,A26,A27,A28,A29,A30,A31,B16,B17,B18,B19,B20, *
     762                    ;*                           B21,B22,B23,B24,B25,B26,B27,B28,B29,B30,B31      *
     763                    ;*   Local Frame Size  : 0 Args + 60 Auto + 4 Save = 64 byte                  *
     764                    ;******************************************************************************
     765                    __IIC_read:
     766                    ;** --------------------------------------------------------------------------*
     767                            .dwcfa  0x0e, 0
     768                            .dwcfa  0x09, 126, 19
     769 000003c8 01BE14F6             STW     .D2T2   B3,*SP--(64)      ; |137| 
     770 000003cc 00002000             NOP             2
TMS320C6x COFF Assembler PC v5.1.0 Fri Jan 07 14:23:25 2011

Tools Copyright (c) 1996-2005 Texas Instruments Incorporated
C:\DOCUME~1\yqhe\LOCALS~1\Temp\TI3722                                PAGE   15

     771                            .dwcfa  0x0e, 64
     772                            .dwcfa  0x80, 19, 0
     773                    DW$68   .dwtag  DW_TAG_formal_parameter, DW_AT_name("hI2C"), DW_AT_symbol_name("_hI2C")
     774                            .dwattr DW$68, DW_AT_type(*DW$T$25)
     775                            .dwattr DW$68, DW_AT_location[DW_OP_reg4]
     776                    DW$69   .dwtag  DW_TAG_formal_parameter, DW_AT_name("devAddress"), DW_AT_symbol_name("_devAddress")
     777                            .dwattr DW$69, DW_AT_type(*DW$T$26)
     778                            .dwattr DW$69, DW_AT_location[DW_OP_reg20]
     779                    DW$70   .dwtag  DW_TAG_formal_parameter, DW_AT_name("subAddress"), DW_AT_symbol_name("_subAddress")
     780                            .dwattr DW$70, DW_AT_type(*DW$T$19)
     781                            .dwattr DW$70, DW_AT_location[DW_OP_reg6]
     782                    DW$71   .dwtag  DW_TAG_formal_parameter, DW_AT_name("data"), DW_AT_symbol_name("_data")
     783                            .dwattr DW$71, DW_AT_type(*DW$T$35)
     784                            .dwattr DW$71, DW_AT_location[DW_OP_reg22]
     785                    DW$72   .dwtag  DW_TAG_formal_parameter, DW_AT_name("numBytes"), DW_AT_symbol_name("_numBytes")
     786                            .dwattr DW$72, DW_AT_type(*DW$T$36)
     787                            .dwattr DW$72, DW_AT_location[DW_OP_reg8]
     788                    DW$73   .dwtag  DW_TAG_variable, DW_AT_name("hI2C"), DW_AT_symbol_name("_hI2C")
     789                            .dwattr DW$73, DW_AT_type(*DW$T$25)
     790                            .dwattr DW$73, DW_AT_location[DW_OP_breg31 4]
     791                    DW$74   .dwtag  DW_TAG_variable, DW_AT_name("devAddress"), DW_AT_symbol_name("_devAddress")
     792                            .dwattr DW$74, DW_AT_type(*DW$T$26)
     793                            .dwattr DW$74, DW_AT_location[DW_OP_breg31 8]
     794                    DW$75   .dwtag  DW_TAG_variable, DW_AT_name("subAddress"), DW_AT_symbol_name("_subAddress")
     795                            .dwattr DW$75, DW_AT_type(*DW$T$19)
     796                            .dwattr DW$75, DW_AT_location[DW_OP_breg31 12]
     797                    DW$76   .dwtag  DW_TAG_variable, DW_AT_name("data"), DW_AT_symbol_name("_data")
     798                            .dwattr DW$76, DW_AT_type(*DW$T$35)
     799                            .dwattr DW$76, DW_AT_location[DW_OP_breg31 16]
     800                    DW$77   .dwtag  DW_TAG_variable, DW_AT_name("numBytes"), DW_AT_symbol_name("_numBytes")
     801                            .dwattr DW$77, DW_AT_type(*DW$T$36)
     802                            .dwattr DW$77, DW_AT_location[DW_OP_breg31 20]
     803                    DW$78   .dwtag  DW_TAG_variable, DW_AT_name("i"), DW_AT_symbol_name("_i")
     804                            .dwattr DW$78, DW_AT_type(*DW$T$41)
     805                            .dwattr DW$78, DW_AT_location[DW_OP_breg31 24]
     806                    DW$79   .dwtag  DW_TAG_variable, DW_AT_name("prevIICConfig"), DW_AT_symbol_name("_prevIICConfig")
     807                            .dwattr DW$79, DW_AT_type(*DW$T$31)
     808                            .dwattr DW$79, DW_AT_location[DW_OP_breg31 28]
     809 000003d0 043D42D4             STH     .D2T1   A8,*+SP(20)       ; |137| 
     810 000003d4 033C62F4             STW     .D2T1   A6,*+SP(12)       ; |137| 
     811 000003d8 023D02B6             STB     .D2T2   B4,*+SP(8)        ; |137| 
     812                    
     813 000003dc 023C22F5             STW     .D2T1   A4,*+SP(4)        ; |137| 
     814 000003e0 01981FD8  ||         MV      .L1X    B6,A3             ; |137| 
     815                    
     816 000003e4 01BC82F4             STW     .D2T1   A3,*+SP(16)       ; |137| 
     817 000003e8 00002000             NOP             2
     818                            .dwpsn  "_iic.c",142,5
     819 000003ec 0200002A!            MVKL    .S2     _I2C_bb,B4        ; |142| 
     820 000003f0 0200006A!            MVKH    .S2     _I2C_bb,B4        ; |142| 
     821 000003f4 00100362             CALL    .S2     B4                ; |142| 
     822 000003f8 01878162             ADDKPC  .S2     RL10,B3,4         ; |142| 
     823 000003fc           RL10:      ; CALL OCCURS {_I2C_bb}           ; |142| 
     824 000003fc 00100FD8             MV      .L1     A4,A0             ; |142| 
     825 00000400 D008A120     [!A0]   BNOP    .S1     L20,5             ; |142| 
TMS320C6x COFF Assembler PC v5.1.0 Fri Jan 07 14:23:25 2011

Tools Copyright (c) 1996-2005 Texas Instruments Incorporated
C:\DOCUME~1\yqhe\LOCALS~1\Temp\TI3722                                PAGE   16

     826                               ; BRANCHCC OCCURS {L20}           ; |142| 
     827                    ;*----------------------------------------------------------------------------*
     828                    ;*   SOFTWARE PIPELINE INFORMATION
     829                    ;*      Disqualified loop: Software pipelining disabled
     830                    ;*----------------------------------------------------------------------------*
     831 00000404           L19:    
     832 00000404           DW$L$__IIC_read$2$B:
     833 00000404 0200002A!            MVKL    .S2     _I2C_bb,B4        ; |142| 
     834 00000408 0200006A!            MVKH    .S2     _I2C_bb,B4        ; |142| 
     835 0000040c 00100362             CALL    .S2     B4                ; |142| 
     836 00000410 023C22E4             LDW     .D2T1   *+SP(4),A4        ; |142| 
     837 00000414 01866162             ADDKPC  .S2     RL11,B3,3         ; |142| 
     838 00000418           RL11:      ; CALL OCCURS {_I2C_bb}           ; |142| 
     839 00000418 00100FD8             MV      .L1     A4,A0             ; |142| 
     840 0000041c C001A120     [ A0]   BNOP    .S1     L19,5             ; |142| 
     841                               ; BRANCHCC OCCURS {L19}           ; |142| 
     842                    DW$L$__IIC_read$2$E:
     843                    ;** --------------------------------------------------------------------------*
     844                    L20:    
     845                            .dwpsn  "_iic.c",145,5
     846 00000420 0280002A!            MVKL    .S2     _I2C_getConfig,B5 ; |145| 
     847 00000424 0280006A!            MVKH    .S2     _I2C_getConfig,B5 ; |145| 
     848 00000428 00140362             CALL    .S2     B5                ; |145| 
     849 0000042c 023C22E4             LDW     .D2T1   *+SP(4),A4        ; |145| 
     850 00000430 01864162             ADDKPC  .S2     RL12,B3,2         ; |145| 
     851 00000434 023F8942             ADD     .D2     SP,28,B4          ; |145| 
     852                    RL12:      ; CALL OCCURS {_I2C_getConfig}    ; |145| 
     853                            .dwpsn  "_iic.c",148,5
     854 00000438 01800028!            MVKL    .S1     _I2C_config,A3    ; |148| 
     855 0000043c 01800068!            MVKH    .S1     _I2C_config,A3    ; |148| 
     856 00000440 000C1362             CALL    .S2X    A3                ; |148| 
     857 00000444 023C22E4             LDW     .D2T1   *+SP(4),A4        ; |148| 
     858 00000448 02801028+            MVKL    .S1     _EVM642VIDEOIIC_Config_Read,A5 ; |148| 
     859 0000044c 02800068+            MVKH    .S1     _EVM642VIDEOIIC_Config_Read,A5 ; |148| 
     860 00000450 01860162             ADDKPC  .S2     RL13,B3,0         ; |148| 
     861 00000454 02141FDA             MV      .L2X    A5,B4             ; |148| 
     862                    RL13:      ; CALL OCCURS {_I2C_config}       ; |148| 
     863                            .dwpsn  "_iic.c",151,5
     864 00000458 033C62E4             LDW     .D2T1   *+SP(12),A6       ; |151| 
     865                    
     866 0000045c 0FFF7811             CALL    .S1     __IIC_write       ; |151| 
     867 00000460 023D0296  ||         LDBU    .D2T2   *+SP(8),B4        ; |151| 
     868                    
     869 00000464 023C22E4             LDW     .D2T1   *+SP(4),A4        ; |151| 
     870 00000468 01852162             ADDKPC  .S2     RL14,B3,1         ; |151| 
     871 0000046c 0400A358             ZERO    .L1     A8                ; |151| 
     872 00000470 0300A35A             ZERO    .L2     B6                ; |151| 
     873                    RL14:      ; CALL OCCURS {__IIC_write}       ; |151| 
     874                            .dwpsn  "_iic.c",154,5
     875 00000474 0200002A!            MVKL    .S2     _I2C_bb,B4        ; |154| 
     876 00000478 0200006A!            MVKH    .S2     _I2C_bb,B4        ; |154| 
     877 0000047c 00100362             CALL    .S2     B4                ; |154| 
     878 00000480 023C22E4             LDW     .D2T1   *+SP(4),A4        ; |154| 
     879 00000484 01826162             ADDKPC  .S2     RL15,B3,3         ; |154| 
     880 00000488           RL15:      ; CALL OCCURS {_I2C_bb}           ; |154| 
TMS320C6x COFF Assembler PC v5.1.0 Fri Jan 07 14:23:25 2011

Tools Copyright (c) 1996-2005 Texas Instruments Incorporated
C:\DOCUME~1\yqhe\LOCALS~1\Temp\TI3722                                PAGE   17

     881 00000488 00100FD8             MV      .L1     A4,A0             ; |154| 
     882 0000048c D00BA120     [!A0]   BNOP    .S1     L22,5             ; |154| 
     883                               ; BRANCHCC OCCURS {L22}           ; |154| 
     884                    ;*----------------------------------------------------------------------------*
     885                    ;*   SOFTWARE PIPELINE INFORMATION
     886                    ;*      Disqualified loop: Software pipelining disabled
     887                    ;*----------------------------------------------------------------------------*
     888 00000490           L21:    
     889 00000490           DW$L$__IIC_read$4$B:
     890 00000490 0200002A!            MVKL    .S2     _I2C_bb,B4        ; |154| 
     891 00000494 0200006A!            MVKH    .S2     _I2C_bb,B4        ; |154| 
     892 00000498 00100362             CALL    .S2     B4                ; |154| 
     893 0000049c 023C22E4             LDW     .D2T1   *+SP(4),A4        ; |154| 
     894 000004a0 01816162             ADDKPC  .S2     RL16,B3,3         ; |154| 
     895 000004a4           RL16:      ; CALL OCCURS {_I2C_bb}           ; |154| 
     896 000004a4 00100FD8             MV      .L1     A4,A0             ; |154| 
     897 000004a8 CFFCA120     [ A0]   BNOP    .S1     L21,5             ; |154| 
     898                               ; BRANCHCC OCCURS {L21}           ; |154| 
     899                    DW$L$__IIC_read$4$E:
     900                    ;** --------------------------------------------------------------------------*
     901                    L22:    
     902                            .dwpsn  "_iic.c",157,5
     903 000004ac 01BC22E4             LDW     .D2T1   *+SP(4),A3        ; |157| 
     904 000004b0 00004000             NOP             3
     905 000004b4 023D0296             LDBU    .D2T2   *+SP(8),B4        ; |157| 
     906 000004b8 018C4264             LDW     .D1T1   *+A3(8),A3        ; |157| 
     907 000004bc 00006000             NOP             4
     908 000004c0 020CE276             STW     .D1T2   B4,*+A3(28)       ; |157| 
     909 000004c4 00002000             NOP             2
     910                            .dwpsn  "_iic.c",160,5
     911 000004c8 02BC22E6             LDW     .D2T2   *+SP(4),B5        ; |160| 
     912 000004cc 00004000             NOP             3
     913 000004d0 023D4286             LDHU    .D2T2   *+SP(20),B4       ; |160| 
     914 000004d4 029442E6             LDW     .D2T2   *+B5(8),B5        ; |160| 
     915 000004d8 00006000             NOP             4
     916 000004dc 0214A2F6             STW     .D2T2   B4,*+B5(20)       ; |160| 
     917 000004e0 00002000             NOP             2
     918                            .dwpsn  "_iic.c",163,5
     919 000004e4 01800028!            MVKL    .S1     _I2C_start,A3     ; |163| 
     920 000004e8 01800068!            MVKH    .S1     _I2C_start,A3     ; |163| 
     921 000004ec 000C1362             CALL    .S2X    A3                ; |163| 
     922 000004f0 023C22E4             LDW     .D2T1   *+SP(4),A4        ; |163| 
     923 000004f4 01866162             ADDKPC  .S2     RL17,B3,3         ; |163| 
     924                    RL17:      ; CALL OCCURS {_I2C_start}        ; |163| 
     925                    
     926                    DW$80   .dwtag  DW_TAG_lexical_block, DW_AT_low_pc(0x00), DW_AT_high_pc(0x00)
     927                    DW$81   .dwtag  DW_TAG_variable, DW_AT_name("j"), DW_AT_symbol_name("_j")
     928                            .dwattr DW$81, DW_AT_type(*DW$T$42)
     929                            .dwattr DW$81, DW_AT_location[DW_OP_breg31 60]
     930                            .dwpsn  "_iic.c",165,4
     931 000004f8 0200A35A             ZERO    .L2     B4                ; |165| 
     932 000004fc 023DE2F6             STW     .D2T2   B4,*+SP(60)       ; |165| 
     933 00000500 023DE2E6             LDW     .D2T2   *+SP(60),B4       ; |165| 
     934 00000504 00004000             NOP             3
     935 00000508 0281F42A             MVK     .S2     1000,B5           ; |165| 
TMS320C6x COFF Assembler PC v5.1.0 Fri Jan 07 14:23:25 2011

Tools Copyright (c) 1996-2005 Texas Instruments Incorporated
C:\DOCUME~1\yqhe\LOCALS~1\Temp\TI3722                                PAGE   18

     936 0000050c 00148AFA             CMPLT   .L2     B4,B5,B0          ; |165| 
     937 00000510 300DA120     [!B0]   BNOP    .S1     L24,5             ; |165| 
     938                               ; BRANCHCC OCCURS {L24}           ; |165| 
     939                    ;*----------------------------------------------------------------------------*
     940                    ;*   SOFTWARE PIPELINE INFORMATION
     941                    ;*      Disqualified loop: Software pipelining disabled
     942                    ;*----------------------------------------------------------------------------*
     943 00000514           L23:    
     944 00000514           DW$L$__IIC_read$6$B:
     945 00000514 023DE2E6             LDW     .D2T2   *+SP(60),B4       ; |165| 
     946 00000518 00006000             NOP             4
     947 0000051c 0210205A             ADD     .L2     1,B4,B4           ; |165| 
     948 00000520 023DE2F6             STW     .D2T2   B4,*+SP(60)       ; |165| 
     949 00000524 023DE2E6             LDW     .D2T2   *+SP(60),B4       ; |165| 
     950 00000528 00006000             NOP             4
     951 0000052c 00148AFA             CMPLT   .L2     B4,B5,B0          ; |165| 
     952 00000530 2FFDA120     [ B0]   BNOP    .S1     L23,5             ; |165| 
     953                               ; BRANCHCC OCCURS {L23}           ; |165| 
     954                    DW$L$__IIC_read$6$E:
     955                    ;** --------------------------------------------------------------------------*
     956                    L24:    
     957                            .dwendtag DW$80
     958                    
     959                            .dwpsn  "_iic.c",169,9
     960 00000534 0200A35A             ZERO    .L2     B4                ; |169| 
     961 00000538 023CC2F6             STW     .D2T2   B4,*+SP(24)       ; |169| 
     962 0000053c 00002000             NOP             2
     963                            .dwpsn  "_iic.c",169,16
     964 00000540 023D4286             LDHU    .D2T2   *+SP(20),B4       ; |169| 
     965 00000544 02BCC2E6             LDW     .D2T2   *+SP(24),B5       ; |169| 
     966 00000548 00006000             NOP             4
     967 0000054c 0010AAFA             CMPLT   .L2     B5,B4,B0          ; |169| 
     968 00000550 3037A120     [!B0]   BNOP    .S1     L30,5             ; |169| 
     969                               ; BRANCHCC OCCURS {L30}           ; |169| 
     970                    ;** --------------------------------------------------------------------------*
     971                    ;**   BEGIN LOOP L25
     972                    ;** --------------------------------------------------------------------------*
     973                    L25:    
     974                    DW$L$__IIC_read$8$B:
     975                            .dwpsn  "_iic.c",170,15
     976 00000554 0200002A!            MVKL    .S2     _I2C_rrdy,B4      ; |170| 
     977 00000558 0200006A!            MVKH    .S2     _I2C_rrdy,B4      ; |170| 
     978 0000055c 00100362             CALL    .S2     B4                ; |170| 
     979 00000560 023C22E4             LDW     .D2T1   *+SP(4),A4        ; |170| 
     980 00000564 01826162             ADDKPC  .S2     RL18,B3,3         ; |170| 
     981 00000568           RL18:      ; CALL OCCURS {_I2C_rrdy}         ; |170| 
     982 00000568 00100FD8             MV      .L1     A4,A0             ; |170| 
     983 0000056c C00BA120     [ A0]   BNOP    .S1     L27,5             ; |170| 
     984                               ; BRANCHCC OCCURS {L27}           ; |170| 
     985 00000570           DW$L$__IIC_read$8$E:
     986                    ;*----------------------------------------------------------------------------*
     987                    ;*   SOFTWARE PIPELINE INFORMATION
     988                    ;*      Disqualified loop: Software pipelining disabled
     989                    ;*----------------------------------------------------------------------------*
     990 00000570           L26:    
TMS320C6x COFF Assembler PC v5.1.0 Fri Jan 07 14:23:25 2011

Tools Copyright (c) 1996-2005 Texas Instruments Incorporated
C:\DOCUME~1\yqhe\LOCALS~1\Temp\TI3722                                PAGE   19

     991 00000570           DW$L$__IIC_read$9$B:
     992 00000570 0200002A!            MVKL    .S2     _I2C_rrdy,B4      ; |170| 
     993 00000574 0200006A!            MVKH    .S2     _I2C_rrdy,B4      ; |170| 
     994 00000578 00100362             CALL    .S2     B4                ; |170| 
     995 0000057c 023C22E4             LDW     .D2T1   *+SP(4),A4        ; |170| 
     996 00000580 01816162             ADDKPC  .S2     RL19,B3,3         ; |170| 
     997 00000584           RL19:      ; CALL OCCURS {_I2C_rrdy}         ; |170| 
     998 00000584 00100FD8             MV      .L1     A4,A0             ; |170| 
     999 00000588 DFFCA120     [!A0]   BNOP    .S1     L26,5             ; |170| 
    1000                               ; BRANCHCC OCCURS {L26}           ; |170| 
    1001                    DW$L$__IIC_read$9$E:
    1002                    ;** --------------------------------------------------------------------------*
    1003                    L27:    
    1004                    DW$L$__IIC_read$10$B:
    1005                            .dwpsn  "_iic.c",171,9
    1006 0000058c 01800028!            MVKL    .S1     _I2C_readByte,A3  ; |171| 
    1007 00000590 01800068!            MVKH    .S1     _I2C_readByte,A3  ; |171| 
    1008 00000594 000C1362             CALL    .S2X    A3                ; |171| 
    1009 00000598 023C22E4             LDW     .D2T1   *+SP(4),A4        ; |171| 
    1010 0000059c 01886162             ADDKPC  .S2     RL20,B3,3         ; |171| 
    1011 000005a0           RL20:      ; CALL OCCURS {_I2C_readByte}     ; |171| 
    1012 000005a0 02BC82E6             LDW     .D2T2   *+SP(16),B5       ; |171| 
    1013 000005a4 00006000             NOP             4
    1014 000005a8 0214205A             ADD     .L2     1,B5,B4           ; |171| 
    1015 000005ac 023C82F6             STW     .D2T2   B4,*+SP(16)       ; |171| 
    1016 000005b0 021402B4             STB     .D2T1   A4,*B5            ; |171| 
    1017 000005b4 00002000             NOP             2
    1018                    
    1019                    DW$82   .dwtag  DW_TAG_lexical_block, DW_AT_low_pc(0x00), DW_AT_high_pc(0x00)
    1020                    DW$83   .dwtag  DW_TAG_variable, DW_AT_name("j"), DW_AT_symbol_name("_j")
    1021                            .dwattr DW$83, DW_AT_type(*DW$T$42)
    1022                            .dwattr DW$83, DW_AT_location[DW_OP_breg31 60]
    1023                            .dwpsn  "_iic.c",172,7
    1024 000005b8 0200A35A             ZERO    .L2     B4                ; |172| 
    1025 000005bc 023DE2F6             STW     .D2T2   B4,*+SP(60)       ; |172| 
    1026 000005c0 023DE2E6             LDW     .D2T2   *+SP(60),B4       ; |172| 
    1027 000005c4 00004000             NOP             3
    1028 000005c8 0281F42A             MVK     .S2     1000,B5           ; |172| 
    1029 000005cc 00148AFA             CMPLT   .L2     B4,B5,B0          ; |172| 
    1030 000005d0 300DA120     [!B0]   BNOP    .S1     L29,5             ; |172| 
    1031                               ; BRANCHCC OCCURS {L29}           ; |172| 
    1032 000005d4           DW$L$__IIC_read$10$E:
    1033                    ;*----------------------------------------------------------------------------*
    1034                    ;*   SOFTWARE PIPELINE INFORMATION
    1035                    ;*      Disqualified loop: Software pipelining disabled
    1036                    ;*----------------------------------------------------------------------------*
    1037 000005d4           L28:    
    1038 000005d4           DW$L$__IIC_read$11$B:
    1039 000005d4 023DE2E6             LDW     .D2T2   *+SP(60),B4       ; |172| 
    1040 000005d8 00006000             NOP             4
    1041 000005dc 0210205A             ADD     .L2     1,B4,B4           ; |172| 
    1042 000005e0 023DE2F6             STW     .D2T2   B4,*+SP(60)       ; |172| 
    1043 000005e4 023DE2E6             LDW     .D2T2   *+SP(60),B4       ; |172| 
    1044 000005e8 00006000             NOP             4
    1045 000005ec 00148AFA             CMPLT   .L2     B4,B5,B0          ; |172| 
TMS320C6x COFF Assembler PC v5.1.0 Fri Jan 07 14:23:25 2011

Tools Copyright (c) 1996-2005 Texas Instruments Incorporated
C:\DOCUME~1\yqhe\LOCALS~1\Temp\TI3722                                PAGE   20

    1046 000005f0 2FFDA120     [ B0]   BNOP    .S1     L28,5             ; |172| 
    1047                               ; BRANCHCC OCCURS {L28}           ; |172| 
    1048                    DW$L$__IIC_read$11$E:
    1049                    ;** --------------------------------------------------------------------------*
    1050                    L29:    
    1051                    DW$L$__IIC_read$12$B:
    1052                            .dwendtag DW$82
    1053                    
    1054                            .dwpsn  "_iic.c",169,30
    1055 000005f4 023CC2E6             LDW     .D2T2   *+SP(24),B4       ; |169| 
    1056 000005f8 00006000             NOP             4
    1057 000005fc 0210205A             ADD     .L2     1,B4,B4           ; |169| 
    1058 00000600 023CC2F6             STW     .D2T2   B4,*+SP(24)       ; |169| 
    1059 00000604 00002000             NOP             2
    1060                            .dwpsn  "_iic.c",169,16
    1061 00000608 023D4286             LDHU    .D2T2   *+SP(20),B4       ; |169| 
    1062 0000060c 02BCC2E6             LDW     .D2T2   *+SP(24),B5       ; |169| 
    1063 00000610 00006000             NOP             4
    1064 00000614 0010AAFA             CMPLT   .L2     B5,B4,B0          ; |169| 
    1065 00000618 2FD5A120     [ B0]   BNOP    .S1     L25,5             ; |169| 
    1066                               ; BRANCHCC OCCURS {L25}           ; |169| 
    1067                    DW$L$__IIC_read$12$E:
    1068                    ;** --------------------------------------------------------------------------*
    1069                    L30:    
    1070                            .dwpsn  "_iic.c",176,5
    1071 0000061c 01800028!            MVKL    .S1     _I2C_sendStop,A3  ; |176| 
    1072 00000620 01800068!            MVKH    .S1     _I2C_sendStop,A3  ; |176| 
    1073 00000624 000C1362             CALL    .S2X    A3                ; |176| 
    1074 00000628 023C22E4             LDW     .D2T1   *+SP(4),A4        ; |176| 
    1075 0000062c 01846162             ADDKPC  .S2     RL21,B3,3         ; |176| 
    1076                    RL21:      ; CALL OCCURS {_I2C_sendStop}     ; |176| 
    1077                    
    1078                    DW$84   .dwtag  DW_TAG_lexical_block, DW_AT_low_pc(0x00), DW_AT_high_pc(0x00)
    1079                    DW$85   .dwtag  DW_TAG_variable, DW_AT_name("j"), DW_AT_symbol_name("_j")
    1080                            .dwattr DW$85, DW_AT_type(*DW$T$42)
    1081                            .dwattr DW$85, DW_AT_location[DW_OP_breg31 60]
    1082                            .dwpsn  "_iic.c",178,5
    1083 00000630 0200A35A             ZERO    .L2     B4                ; |178| 
    1084 00000634 023DE2F6             STW     .D2T2   B4,*+SP(60)       ; |178| 
    1085 00000638 023DE2E6             LDW     .D2T2   *+SP(60),B4       ; |178| 
    1086 0000063c 00004000             NOP             3
    1087 00000640 0281F42A             MVK     .S2     1000,B5           ; |178| 
    1088 00000644 00148AFA             CMPLT   .L2     B4,B5,B0          ; |178| 
    1089 00000648 300BA120     [!B0]   BNOP    .S1     L32,5             ; |178| 
    1090                               ; BRANCHCC OCCURS {L32}           ; |178| 
    1091                    ;*----------------------------------------------------------------------------*
    1092                    ;*   SOFTWARE PIPELINE INFORMATION
    1093                    ;*      Disqualified loop: Software pipelining disabled
    1094                    ;*----------------------------------------------------------------------------*
    1095 0000064c           L31:    
    1096 0000064c           DW$L$__IIC_read$14$B:
    1097 0000064c 023DE2E6             LDW     .D2T2   *+SP(60),B4       ; |178| 
    1098 00000650 00006000             NOP             4
    1099 00000654 0210205A             ADD     .L2     1,B4,B4           ; |178| 
    1100 00000658 023DE2F6             STW     .D2T2   B4,*+SP(60)       ; |178| 
TMS320C6x COFF Assembler PC v5.1.0 Fri Jan 07 14:23:25 2011

Tools Copyright (c) 1996-2005 Texas Instruments Incorporated
C:\DOCUME~1\yqhe\LOCALS~1\Temp\TI3722                                PAGE   21

    1101 0000065c 023DE2E6             LDW     .D2T2   *+SP(60),B4       ; |178| 
    1102 00000660 00006000             NOP             4
    1103 00000664 00148AFA             CMPLT   .L2     B4,B5,B0          ; |178| 
    1104 00000668 2FFBA120     [ B0]   BNOP    .S1     L31,5             ; |178| 
    1105                               ; BRANCHCC OCCURS {L31}           ; |178| 
    1106                    DW$L$__IIC_read$14$E:
    1107                    ;** --------------------------------------------------------------------------*
    1108                    L32:    
    1109                            .dwendtag DW$84
    1110                    
    1111                            .dwpsn  "_iic.c",180,5
    1112 0000066c 0200002A!            MVKL    .S2     _I2C_bb,B4        ; |180| 
    1113 00000670 0200006A!            MVKH    .S2     _I2C_bb,B4        ; |180| 
    1114 00000674 00100362             CALL    .S2     B4                ; |180| 
    1115 00000678 023C22E4             LDW     .D2T1   *+SP(4),A4        ; |180| 
    1116 0000067c 01886162             ADDKPC  .S2     RL22,B3,3         ; |180| 
    1117 00000680           RL22:      ; CALL OCCURS {_I2C_bb}           ; |180| 
    1118 00000680 00100FD8             MV      .L1     A4,A0             ; |180| 
    1119 00000684 D009A120     [!A0]   BNOP    .S1     L34,5             ; |180| 
    1120                               ; BRANCHCC OCCURS {L34}           ; |180| 
    1121                    ;*----------------------------------------------------------------------------*
    1122                    ;*   SOFTWARE PIPELINE INFORMATION
    1123                    ;*      Disqualified loop: Software pipelining disabled
    1124                    ;*----------------------------------------------------------------------------*
    1125 00000688           L33:    
    1126 00000688           DW$L$__IIC_read$16$B:
    1127 00000688 0200002A!            MVKL    .S2     _I2C_bb,B4        ; |180| 
    1128 0000068c 0200006A!            MVKH    .S2     _I2C_bb,B4        ; |180| 
    1129 00000690 00100362             CALL    .S2     B4                ; |180| 
    1130 00000694 023C22E4             LDW     .D2T1   *+SP(4),A4        ; |180| 
    1131 00000698 01876162             ADDKPC  .S2     RL23,B3,3         ; |180| 
    1132 0000069c           RL23:      ; CALL OCCURS {_I2C_bb}           ; |180| 
    1133 0000069c 00100FD8             MV      .L1     A4,A0             ; |180| 
    1134 000006a0 CFFAA120     [ A0]   BNOP    .S1     L33,5             ; |180| 
    1135                               ; BRANCHCC OCCURS {L33}           ; |180| 
    1136                    DW$L$__IIC_read$16$E:
    1137                    ;** --------------------------------------------------------------------------*
    1138                    L34:    
    1139                    
    1140                    DW$86   .dwtag  DW_TAG_lexical_block, DW_AT_low_pc(0x00), DW_AT_high_pc(0x00)
    1141                    DW$87   .dwtag  DW_TAG_variable, DW_AT_name("j"), DW_AT_symbol_name("_j")
    1142                            .dwattr DW$87, DW_AT_type(*DW$T$42)
    1143                            .dwattr DW$87, DW_AT_location[DW_OP_breg31 60]
    1144                            .dwpsn  "_iic.c",182,5
    1145 000006a4 0200A35A             ZERO    .L2     B4                ; |182| 
    1146 000006a8 023DE2F6             STW     .D2T2   B4,*+SP(60)       ; |182| 
    1147 000006ac 023DE2E6             LDW     .D2T2   *+SP(60),B4       ; |182| 
    1148 000006b0 00004000             NOP             3
    1149 000006b4 0281F42A             MVK     .S2     1000,B5           ; |182| 
    1150 000006b8 00148AFA             CMPLT   .L2     B4,B5,B0          ; |182| 
    1151 000006bc 3010A120     [!B0]   BNOP    .S1     L36,5             ; |182| 
    1152                               ; BRANCHCC OCCURS {L36}           ; |182| 
    1153                    ;*----------------------------------------------------------------------------*
    1154                    ;*   SOFTWARE PIPELINE INFORMATION
    1155                    ;*      Disqualified loop: Software pipelining disabled
TMS320C6x COFF Assembler PC v5.1.0 Fri Jan 07 14:23:25 2011

Tools Copyright (c) 1996-2005 Texas Instruments Incorporated
C:\DOCUME~1\yqhe\LOCALS~1\Temp\TI3722                                PAGE   22

    1156                    ;*----------------------------------------------------------------------------*
    1157 000006c0           L35:    
    1158 000006c0           DW$L$__IIC_read$18$B:
    1159 000006c0 023DE2E6             LDW     .D2T2   *+SP(60),B4       ; |182| 
    1160 000006c4 00006000             NOP             4
    1161 000006c8 0210205A             ADD     .L2     1,B4,B4           ; |182| 
    1162 000006cc 023DE2F6             STW     .D2T2   B4,*+SP(60)       ; |182| 
    1163 000006d0 023DE2E6             LDW     .D2T2   *+SP(60),B4       ; |182| 
    1164 000006d4 00006000             NOP             4
    1165 000006d8 00148AFA             CMPLT   .L2     B4,B5,B0          ; |182| 
    1166 000006dc 2000A120     [ B0]   BNOP    .S1     L35,5             ; |182| 
    1167                               ; BRANCHCC OCCURS {L35}           ; |182| 
    1168                    DW$L$__IIC_read$18$E:
    1169                    ;** --------------------------------------------------------------------------*
    1170                    L36:    
    1171                            .dwendtag DW$86
    1172                    
    1173                            .dwpsn  "_iic.c",186,5
    1174 000006e0 01800028!            MVKL    .S1     _I2C_config,A3    ; |186| 
    1175 000006e4 01800068!            MVKH    .S1     _I2C_config,A3    ; |186| 
    1176 000006e8 000C1362             CALL    .S2X    A3                ; |186| 
    1177 000006ec 023C22E4             LDW     .D2T1   *+SP(4),A4        ; |186| 
    1178 000006f0 01864162             ADDKPC  .S2     RL24,B3,2         ; |186| 
    1179 000006f4 023F8942             ADD     .D2     SP,28,B4          ; |186| 
    1180                    RL24:      ; CALL OCCURS {_I2C_config}       ; |186| 
    1181                    
    1182                    DW$88   .dwtag  DW_TAG_lexical_block, DW_AT_low_pc(0x00), DW_AT_high_pc(0x00)
    1183                    DW$89   .dwtag  DW_TAG_variable, DW_AT_name("j"), DW_AT_symbol_name("_j")
    1184                            .dwattr DW$89, DW_AT_type(*DW$T$42)
    1185                            .dwattr DW$89, DW_AT_location[DW_OP_breg31 60]
    1186                            .dwpsn  "_iic.c",188,5
    1187 000006f8 0200A35A             ZERO    .L2     B4                ; |188| 
    1188 000006fc 023DE2F6             STW     .D2T2   B4,*+SP(60)       ; |188| 
    1189 00000700 02BDE2E6             LDW     .D2T2   *+SP(60),B5       ; |188| 
    1190 00000704 00004000             NOP             3
    1191 00000708 0F81F42A             MVK     .S2     1000,B31          ; |188| 
    1192 0000070c 007CAAFA             CMPLT   .L2     B5,B31,B0         ; |188| 
    1193 00000710 300EA120     [!B0]   BNOP    .S1     L38,5             ; |188| 
    1194                               ; BRANCHCC OCCURS {L38}           ; |188| 
    1195                    ;*----------------------------------------------------------------------------*
    1196                    ;*   SOFTWARE PIPELINE INFORMATION
    1197                    ;*      Disqualified loop: Software pipelining disabled
    1198                    ;*----------------------------------------------------------------------------*
    1199 00000714           L37:    
    1200 00000714           DW$L$__IIC_read$20$B:
    1201 00000714 023DE2E6             LDW     .D2T2   *+SP(60),B4       ; |188| 
    1202 00000718 00004000             NOP             3
    1203 0000071c 0281F42A             MVK     .S2     1000,B5           ; |188| 
    1204 00000720 0210205A             ADD     .L2     1,B4,B4           ; |188| 
    1205 00000724 023DE2F6             STW     .D2T2   B4,*+SP(60)       ; |188| 
    1206 00000728 023DE2E6             LDW     .D2T2   *+SP(60),B4       ; |188| 
    1207 0000072c 00006000             NOP             4
    1208 00000730 00148AFA             CMPLT   .L2     B4,B5,B0          ; |188| 
    1209 00000734 2FFDA120     [ B0]   BNOP    .S1     L37,5             ; |188| 
    1210                               ; BRANCHCC OCCURS {L37}           ; |188| 
TMS320C6x COFF Assembler PC v5.1.0 Fri Jan 07 14:23:25 2011

Tools Copyright (c) 1996-2005 Texas Instruments Incorporated
C:\DOCUME~1\yqhe\LOCALS~1\Temp\TI3722                                PAGE   23

    1211                    DW$L$__IIC_read$20$E:
    1212                    ;** --------------------------------------------------------------------------*
    1213                            .dwendtag DW$88
    1214                    
    1215                    ;** --------------------------------------------------------------------------*
    1216                    L38:    
    1217                            .dwpsn  "_iic.c",189,1
    1218 00000738 01BE12E6             LDW     .D2T2   *++SP(64),B3      ; |189| 
    1219 0000073c 00006000             NOP             4
    1220                            .dwcfa  0xc0, 19
    1221                            .dwcfa  0x0e, 0
    1222 00000740 008CA362             RETNOP  .S2     B3,5              ; |189| 
    1223                               ; BRANCH OCCURS {B3}              ; |189| 
    1224                    
    1225                    DW$90   .dwtag  DW_TAG_loop
    1226                            .dwattr DW$90, DW_AT_name("C:\DOCUME~1\yqhe\LOCALS~1\Temp\TI3722:L37:1:1294381405")
    1227                            .dwattr DW$90, DW_AT_begin_file("_iic.c")
    1228                            .dwattr DW$90, DW_AT_begin_line(0xbc)
    1229                            .dwattr DW$90, DW_AT_end_line(0xbc)
    1230                    DW$91   .dwtag  DW_TAG_loop_range
    1231                            .dwattr DW$91, DW_AT_low_pc(DW$L$__IIC_read$20$B)
    1232                            .dwattr DW$91, DW_AT_high_pc(DW$L$__IIC_read$20$E)
    1233                            .dwendtag DW$90
    1234                    
    1235                    
    1236                    DW$92   .dwtag  DW_TAG_loop
    1237                            .dwattr DW$92, DW_AT_name("C:\DOCUME~1\yqhe\LOCALS~1\Temp\TI3722:L35:1:1294381405")
    1238                            .dwattr DW$92, DW_AT_begin_file("_iic.c")
    1239                            .dwattr DW$92, DW_AT_begin_line(0xb6)
    1240                            .dwattr DW$92, DW_AT_end_line(0xb6)
    1241                    DW$93   .dwtag  DW_TAG_loop_range
    1242                            .dwattr DW$93, DW_AT_low_pc(DW$L$__IIC_read$18$B)
    1243                            .dwattr DW$93, DW_AT_high_pc(DW$L$__IIC_read$18$E)
    1244                            .dwendtag DW$92
    1245                    
    1246                    
    1247                    DW$94   .dwtag  DW_TAG_loop
    1248                            .dwattr DW$94, DW_AT_name("C:\DOCUME~1\yqhe\LOCALS~1\Temp\TI3722:L33:1:1294381405")
    1249                            .dwattr DW$94, DW_AT_begin_file("_iic.c")
    1250                            .dwattr DW$94, DW_AT_begin_line(0xb4)
    1251                            .dwattr DW$94, DW_AT_end_line(0xb4)
    1252                    DW$95   .dwtag  DW_TAG_loop_range
    1253                            .dwattr DW$95, DW_AT_low_pc(DW$L$__IIC_read$16$B)
    1254                            .dwattr DW$95, DW_AT_high_pc(DW$L$__IIC_read$16$E)
    1255                            .dwendtag DW$94
    1256                    
    1257                    
    1258                    DW$96   .dwtag  DW_TAG_loop
    1259                            .dwattr DW$96, DW_AT_name("C:\DOCUME~1\yqhe\LOCALS~1\Temp\TI3722:L31:1:1294381405")
    1260                            .dwattr DW$96, DW_AT_begin_file("_iic.c")
    1261                            .dwattr DW$96, DW_AT_begin_line(0xb2)
    1262                            .dwattr DW$96, DW_AT_end_line(0xb2)
    1263                    DW$97   .dwtag  DW_TAG_loop_range
    1264                            .dwattr DW$97, DW_AT_low_pc(DW$L$__IIC_read$14$B)
    1265                            .dwattr DW$97, DW_AT_high_pc(DW$L$__IIC_read$14$E)
TMS320C6x COFF Assembler PC v5.1.0 Fri Jan 07 14:23:25 2011

Tools Copyright (c) 1996-2005 Texas Instruments Incorporated
C:\DOCUME~1\yqhe\LOCALS~1\Temp\TI3722                                PAGE   24

    1266                            .dwendtag DW$96
    1267                    
    1268                    
    1269                    DW$98   .dwtag  DW_TAG_loop
    1270                            .dwattr DW$98, DW_AT_name("C:\DOCUME~1\yqhe\LOCALS~1\Temp\TI3722:L25:1:1294381405")
    1271                            .dwattr DW$98, DW_AT_begin_file("_iic.c")
    1272                            .dwattr DW$98, DW_AT_begin_line(0xa9)
    1273                            .dwattr DW$98, DW_AT_end_line(0xad)
    1274                    DW$99   .dwtag  DW_TAG_loop_range
    1275                            .dwattr DW$99, DW_AT_low_pc(DW$L$__IIC_read$8$B)
    1276                            .dwattr DW$99, DW_AT_high_pc(DW$L$__IIC_read$8$E)
    1277                    DW$100  .dwtag  DW_TAG_loop_range
    1278                            .dwattr DW$100, DW_AT_low_pc(DW$L$__IIC_read$10$B)
    1279                            .dwattr DW$100, DW_AT_high_pc(DW$L$__IIC_read$10$E)
    1280                    DW$101  .dwtag  DW_TAG_loop_range
    1281                            .dwattr DW$101, DW_AT_low_pc(DW$L$__IIC_read$12$B)
    1282                            .dwattr DW$101, DW_AT_high_pc(DW$L$__IIC_read$12$E)
    1283                    
    1284                    DW$102  .dwtag  DW_TAG_loop
    1285                            .dwattr DW$102, DW_AT_name("C:\DOCUME~1\yqhe\LOCALS~1\Temp\TI3722:L26:2:1294381405")
    1286                            .dwattr DW$102, DW_AT_begin_file("_iic.c")
    1287                            .dwattr DW$102, DW_AT_begin_line(0xaa)
    1288                            .dwattr DW$102, DW_AT_end_line(0xaa)
    1289                    DW$103  .dwtag  DW_TAG_loop_range
    1290                            .dwattr DW$103, DW_AT_low_pc(DW$L$__IIC_read$9$B)
    1291                            .dwattr DW$103, DW_AT_high_pc(DW$L$__IIC_read$9$E)
    1292                            .dwendtag DW$102
    1293                    
    1294                    
    1295                    DW$104  .dwtag  DW_TAG_loop
    1296                            .dwattr DW$104, DW_AT_name("C:\DOCUME~1\yqhe\LOCALS~1\Temp\TI3722:L28:2:1294381405")
    1297                            .dwattr DW$104, DW_AT_begin_file("_iic.c")
    1298                            .dwattr DW$104, DW_AT_begin_line(0xac)
    1299                            .dwattr DW$104, DW_AT_end_line(0xac)
    1300                    DW$105  .dwtag  DW_TAG_loop_range
    1301                            .dwattr DW$105, DW_AT_low_pc(DW$L$__IIC_read$11$B)
    1302                            .dwattr DW$105, DW_AT_high_pc(DW$L$__IIC_read$11$E)
    1303                            .dwendtag DW$104
    1304                    
    1305                            .dwendtag DW$98
    1306                    
    1307                    
    1308                    DW$106  .dwtag  DW_TAG_loop
    1309                            .dwattr DW$106, DW_AT_name("C:\DOCUME~1\yqhe\LOCALS~1\Temp\TI3722:L23:1:1294381405")
    1310                            .dwattr DW$106, DW_AT_begin_file("_iic.c")
    1311                            .dwattr DW$106, DW_AT_begin_line(0xa5)
    1312                            .dwattr DW$106, DW_AT_end_line(0xa5)
    1313                    DW$107  .dwtag  DW_TAG_loop_range
    1314                            .dwattr DW$107, DW_AT_low_pc(DW$L$__IIC_read$6$B)
    1315                            .dwattr DW$107, DW_AT_high_pc(DW$L$__IIC_read$6$E)
    1316                            .dwendtag DW$106
    1317                    
    1318                    
    1319                    DW$108  .dwtag  DW_TAG_loop
    1320                            .dwattr DW$108, DW_AT_name("C:\DOCUME~1\yqhe\LOCALS~1\Temp\TI3722:L21:1:1294381405")
TMS320C6x COFF Assembler PC v5.1.0 Fri Jan 07 14:23:25 2011

Tools Copyright (c) 1996-2005 Texas Instruments Incorporated
C:\DOCUME~1\yqhe\LOCALS~1\Temp\TI3722                                PAGE   25

    1321                            .dwattr DW$108, DW_AT_begin_file("_iic.c")
    1322                            .dwattr DW$108, DW_AT_begin_line(0x9a)
    1323                            .dwattr DW$108, DW_AT_end_line(0x9a)
    1324                    DW$109  .dwtag  DW_TAG_loop_range
    1325                            .dwattr DW$109, DW_AT_low_pc(DW$L$__IIC_read$4$B)
    1326                            .dwattr DW$109, DW_AT_high_pc(DW$L$__IIC_read$4$E)
    1327                            .dwendtag DW$108
    1328                    
    1329                    
    1330                    DW$110  .dwtag  DW_TAG_loop
    1331                            .dwattr DW$110, DW_AT_name("C:\DOCUME~1\yqhe\LOCALS~1\Temp\TI3722:L19:1:1294381405")
    1332                            .dwattr DW$110, DW_AT_begin_file("_iic.c")
    1333                            .dwattr DW$110, DW_AT_begin_line(0x8e)
    1334                            .dwattr DW$110, DW_AT_end_line(0x8e)
    1335                    DW$111  .dwtag  DW_TAG_loop_range
    1336                            .dwattr DW$111, DW_AT_low_pc(DW$L$__IIC_read$2$B)
    1337                            .dwattr DW$111, DW_AT_high_pc(DW$L$__IIC_read$2$E)
    1338                            .dwendtag DW$110
    1339                    
    1340                            .dwattr DW$67, DW_AT_end_file("_iic.c")
    1341                            .dwattr DW$67, DW_AT_end_line(0xbd)
    1342                            .dwattr DW$67, DW_AT_end_column(0x01)
    1343                            .dwendentry
    1344                            .dwendtag DW$67
    1345                    
    1346 00000744                   .sect   ".text"
    1347                            .global __IIC_write_rev
    1348                    
    1349                    DW$112  .dwtag  DW_TAG_subprogram, DW_AT_name("_IIC_write_rev"), DW_AT_symbol_name("__IIC_write_rev")
    1350                            .dwattr DW$112, DW_AT_low_pc(__IIC_write_rev)
    1351                            .dwattr DW$112, DW_AT_high_pc(0x00)
    1352                            .dwattr DW$112, DW_AT_begin_file("_iic.c")
    1353                            .dwattr DW$112, DW_AT_begin_line(0xc8)
    1354                            .dwattr DW$112, DW_AT_begin_column(0x06)
    1355                            .dwpsn  "_iic.c",206,1
    1356                    
    1357                            .dwfde DW$CIE
    1358                    
    1359                    ;******************************************************************************
    1360                    ;* FUNCTION NAME: __IIC_write_rev                                             *
    1361                    ;*                                                                            *
    1362                    ;*   Regs Modified     : A0,A1,A2,A3,A4,A5,A6,A7,A8,A9,B0,B1,B2,B3,B4,B5,B6,  *
    1363                    ;*                           B7,B8,B9,SP,A16,A17,A18,A19,A20,A21,A22,A23,A24, *
    1364                    ;*                           A25,A26,A27,A28,A29,A30,A31,B16,B17,B18,B19,B20, *
    1365                    ;*                           B21,B22,B23,B24,B25,B26,B27,B28,B29,B30,B31      *
    1366                    ;*   Regs Used         : A0,A1,A2,A3,A4,A5,A6,A7,A8,A9,B0,B1,B2,B3,B4,B5,B6,  *
    1367                    ;*                           B7,B8,B9,SP,A16,A17,A18,A19,A20,A21,A22,A23,A24, *
    1368                    ;*                           A25,A26,A27,A28,A29,A30,A31,B16,B17,B18,B19,B20, *
    1369                    ;*                           B21,B22,B23,B24,B25,B26,B27,B28,B29,B30,B31      *
    1370                    ;*   Local Frame Size  : 0 Args + 60 Auto + 4 Save = 64 byte                  *
    1371                    ;******************************************************************************
    1372                    __IIC_write_rev:
    1373                    ;** --------------------------------------------------------------------------*
    1374                            .dwcfa  0x0e, 0
    1375                            .dwcfa  0x09, 126, 19
TMS320C6x COFF Assembler PC v5.1.0 Fri Jan 07 14:23:25 2011

Tools Copyright (c) 1996-2005 Texas Instruments Incorporated
C:\DOCUME~1\yqhe\LOCALS~1\Temp\TI3722                                PAGE   26

    1376 00000744 01BE14F6             STW     .D2T2   B3,*SP--(64)      ; |206| 
    1377 00000748 00002000             NOP             2
    1378                            .dwcfa  0x0e, 64
    1379                            .dwcfa  0x80, 19, 0
    1380                    DW$113  .dwtag  DW_TAG_formal_parameter, DW_AT_name("hI2C"), DW_AT_symbol_name("_hI2C")
    1381                            .dwattr DW$113, DW_AT_type(*DW$T$25)
    1382                            .dwattr DW$113, DW_AT_location[DW_OP_reg4]
    1383                    DW$114  .dwtag  DW_TAG_formal_parameter, DW_AT_name("devAddress"), DW_AT_symbol_name("_devAddress")
    1384                            .dwattr DW$114, DW_AT_type(*DW$T$26)
    1385                            .dwattr DW$114, DW_AT_location[DW_OP_reg20]
    1386                    DW$115  .dwtag  DW_TAG_formal_parameter, DW_AT_name("subAddress"), DW_AT_symbol_name("_subAddress")
    1387                            .dwattr DW$115, DW_AT_type(*DW$T$19)
    1388                            .dwattr DW$115, DW_AT_location[DW_OP_reg6]
    1389                    DW$116  .dwtag  DW_TAG_formal_parameter, DW_AT_name("data"), DW_AT_symbol_name("_data")
    1390                            .dwattr DW$116, DW_AT_type(*DW$T$35)
    1391                            .dwattr DW$116, DW_AT_location[DW_OP_reg22]
    1392                    DW$117  .dwtag  DW_TAG_formal_parameter, DW_AT_name("numBytes"), DW_AT_symbol_name("_numBytes")
    1393                            .dwattr DW$117, DW_AT_type(*DW$T$36)
    1394                            .dwattr DW$117, DW_AT_location[DW_OP_reg8]
    1395                    DW$118  .dwtag  DW_TAG_variable, DW_AT_name("hI2C"), DW_AT_symbol_name("_hI2C")
    1396                            .dwattr DW$118, DW_AT_type(*DW$T$25)
    1397                            .dwattr DW$118, DW_AT_location[DW_OP_breg31 4]
    1398                    DW$119  .dwtag  DW_TAG_variable, DW_AT_name("devAddress"), DW_AT_symbol_name("_devAddress")
    1399                            .dwattr DW$119, DW_AT_type(*DW$T$26)
    1400                            .dwattr DW$119, DW_AT_location[DW_OP_breg31 8]
    1401                    DW$120  .dwtag  DW_TAG_variable, DW_AT_name("subAddress"), DW_AT_symbol_name("_subAddress")
    1402                            .dwattr DW$120, DW_AT_type(*DW$T$19)
    1403                            .dwattr DW$120, DW_AT_location[DW_OP_breg31 12]
    1404                    DW$121  .dwtag  DW_TAG_variable, DW_AT_name("data"), DW_AT_symbol_name("_data")
    1405                            .dwattr DW$121, DW_AT_type(*DW$T$35)
    1406                            .dwattr DW$121, DW_AT_location[DW_OP_breg31 16]
    1407                    DW$122  .dwtag  DW_TAG_variable, DW_AT_name("numBytes"), DW_AT_symbol_name("_numBytes")
    1408                            .dwattr DW$122, DW_AT_type(*DW$T$36)
    1409                            .dwattr DW$122, DW_AT_location[DW_OP_breg31 20]
    1410                    DW$123  .dwtag  DW_TAG_variable, DW_AT_name("i"), DW_AT_symbol_name("_i")
    1411                            .dwattr DW$123, DW_AT_type(*DW$T$41)
    1412                            .dwattr DW$123, DW_AT_location[DW_OP_breg31 24]
    1413                    DW$124  .dwtag  DW_TAG_variable, DW_AT_name("prevIICConfig"), DW_AT_symbol_name("_prevIICConfig")
    1414                            .dwattr DW$124, DW_AT_type(*DW$T$31)
    1415                            .dwattr DW$124, DW_AT_location[DW_OP_breg31 28]
    1416 0000074c 043D42D4             STH     .D2T1   A8,*+SP(20)       ; |206| 
    1417 00000750 033C62F4             STW     .D2T1   A6,*+SP(12)       ; |206| 
    1418 00000754 023D02B6             STB     .D2T2   B4,*+SP(8)        ; |206| 
    1419                    
    1420 00000758 023C22F5             STW     .D2T1   A4,*+SP(4)        ; |206| 
    1421 0000075c 01981FD8  ||         MV      .L1X    B6,A3             ; |206| 
    1422                    
    1423 00000760 01BC82F4             STW     .D2T1   A3,*+SP(16)       ; |206| 
    1424 00000764 00002000             NOP             2
    1425                            .dwpsn  "_iic.c",211,5
    1426 00000768 0200002A!            MVKL    .S2     _I2C_bb,B4        ; |211| 
    1427 0000076c 0200006A!            MVKH    .S2     _I2C_bb,B4        ; |211| 
    1428 00000770 00100362             CALL    .S2     B4                ; |211| 
    1429 00000774 01868162             ADDKPC  .S2     RL25,B3,4         ; |211| 
    1430 00000778           RL25:      ; CALL OCCURS {_I2C_bb}           ; |211| 
TMS320C6x COFF Assembler PC v5.1.0 Fri Jan 07 14:23:25 2011

Tools Copyright (c) 1996-2005 Texas Instruments Incorporated
C:\DOCUME~1\yqhe\LOCALS~1\Temp\TI3722                                PAGE   27

    1431 00000778 00100FD8             MV      .L1     A4,A0             ; |211| 
    1432 0000077c D00FA120     [!A0]   BNOP    .S1     L40,5             ; |211| 
    1433                               ; BRANCHCC OCCURS {L40}           ; |211| 
    1434                    ;*----------------------------------------------------------------------------*
    1435                    ;*   SOFTWARE PIPELINE INFORMATION
    1436                    ;*      Disqualified loop: Software pipelining disabled
    1437                    ;*----------------------------------------------------------------------------*
    1438 00000780           L39:    
    1439 00000780           DW$L$__IIC_write_rev$2$B:
    1440 00000780 0200002A!            MVKL    .S2     _I2C_bb,B4        ; |211| 
    1441 00000784 0200006A!            MVKH    .S2     _I2C_bb,B4        ; |211| 
    1442 00000788 00100362             CALL    .S2     B4                ; |211| 
    1443 0000078c 023C22E4             LDW     .D2T1   *+SP(4),A4        ; |211| 
    1444 00000790 01856162             ADDKPC  .S2     RL26,B3,3         ; |211| 
    1445 00000794           RL26:      ; CALL OCCURS {_I2C_bb}           ; |211| 
    1446 00000794 00100FD8             MV      .L1     A4,A0             ; |211| 
    1447 00000798 C000A120     [ A0]   BNOP    .S1     L39,5             ; |211| 
    1448                               ; BRANCHCC OCCURS {L39}           ; |211| 
    1449                    DW$L$__IIC_write_rev$2$E:
    1450                    ;** --------------------------------------------------------------------------*
    1451                    L40:    
    1452                            .dwpsn  "_iic.c",214,5
    1453 0000079c 01800028!            MVKL    .S1     _I2C_getConfig,A3 ; |214| 
    1454 000007a0 01800068!            MVKH    .S1     _I2C_getConfig,A3 ; |214| 
    1455 000007a4 000C1362             CALL    .S2X    A3                ; |214| 
    1456 000007a8 023C22E4             LDW     .D2T1   *+SP(4),A4        ; |214| 
    1457 000007ac 01854162             ADDKPC  .S2     RL27,B3,2         ; |214| 
    1458 000007b0 023F8942             ADD     .D2     SP,28,B4          ; |214| 
    1459                    RL27:      ; CALL OCCURS {_I2C_getConfig}    ; |214| 
    1460                            .dwpsn  "_iic.c",217,5
    1461 000007b4 01800028!            MVKL    .S1     _I2C_config,A3    ; |217| 
    1462 000007b8 01800068!            MVKH    .S1     _I2C_config,A3    ; |217| 
    1463 000007bc 000C1362             CALL    .S2X    A3                ; |217| 
    1464 000007c0 023C22E4             LDW     .D2T1   *+SP(4),A4        ; |217| 
    1465 000007c4 02800028+            MVKL    .S1     _EVM642VIDEOIIC_Config,A5 ; |217| 
    1466 000007c8 02800068+            MVKH    .S1     _EVM642VIDEOIIC_Config,A5 ; |217| 
    1467 000007cc 01850162             ADDKPC  .S2     RL28,B3,0         ; |217| 
    1468 000007d0 02141FDA             MV      .L2X    A5,B4             ; |217| 
    1469                    RL28:      ; CALL OCCURS {_I2C_config}       ; |217| 
    1470                            .dwpsn  "_iic.c",220,5
    1471 000007d4 01BC22E4             LDW     .D2T1   *+SP(4),A3        ; |220| 
    1472 000007d8 00004000             NOP             3
    1473 000007dc 023D0296             LDBU    .D2T2   *+SP(8),B4        ; |220| 
    1474 000007e0 018C4264             LDW     .D1T1   *+A3(8),A3        ; |220| 
    1475 000007e4 00006000             NOP             4
    1476 000007e8 020CE276             STW     .D1T2   B4,*+A3(28)       ; |220| 
    1477 000007ec 00002000             NOP             2
    1478                            .dwpsn  "_iic.c",223,5
    1479 000007f0 01BC22E4             LDW     .D2T1   *+SP(4),A3        ; |223| 
    1480 000007f4 023D4286             LDHU    .D2T2   *+SP(20),B4       ; |223| 
    1481 000007f8 00004000             NOP             3
    1482 000007fc 018C4264             LDW     .D1T1   *+A3(8),A3        ; |223| 
    1483 00000800 00004000             NOP             3
    1484 00000804 0210205A             ADD     .L2     1,B4,B4           ; |223| 
    1485 00000808 020CA276             STW     .D1T2   B4,*+A3(20)       ; |223| 
TMS320C6x COFF Assembler PC v5.1.0 Fri Jan 07 14:23:25 2011

Tools Copyright (c) 1996-2005 Texas Instruments Incorporated
C:\DOCUME~1\yqhe\LOCALS~1\Temp\TI3722                                PAGE   28

    1486 0000080c 00002000             NOP             2
    1487                            .dwpsn  "_iic.c",226,5
    1488 00000810 02BC22E6             LDW     .D2T2   *+SP(4),B5        ; |226| 
    1489 00000814 00004000             NOP             3
    1490 00000818 023C62E6             LDW     .D2T2   *+SP(12),B4       ; |226| 
    1491 0000081c 029442E6             LDW     .D2T2   *+B5(8),B5        ; |226| 
    1492 00000820 00006000             NOP             4
    1493 00000824 021502F6             STW     .D2T2   B4,*+B5(32)       ; |226| 
    1494 00000828 00002000             NOP             2
    1495                            .dwpsn  "_iic.c",229,5
    1496 0000082c 0200002A!            MVKL    .S2     _I2C_start,B4     ; |229| 
    1497 00000830 0200006A!            MVKH    .S2     _I2C_start,B4     ; |229| 
    1498 00000834 00100362             CALL    .S2     B4                ; |229| 
    1499 00000838 023C22E4             LDW     .D2T1   *+SP(4),A4        ; |229| 
    1500 0000083c 01886162             ADDKPC  .S2     RL29,B3,3         ; |229| 
    1501                    RL29:      ; CALL OCCURS {_I2C_start}        ; |229| 
    1502                    
    1503                    DW$125  .dwtag  DW_TAG_lexical_block, DW_AT_low_pc(0x00), DW_AT_high_pc(0x00)
    1504                    DW$126  .dwtag  DW_TAG_variable, DW_AT_name("j"), DW_AT_symbol_name("_j")
    1505                            .dwattr DW$126, DW_AT_type(*DW$T$42)
    1506                            .dwattr DW$126, DW_AT_location[DW_OP_breg31 60]
    1507                            .dwpsn  "_iic.c",231,4
    1508 00000840 0200A35A             ZERO    .L2     B4                ; |231| 
    1509 00000844 023DE2F6             STW     .D2T2   B4,*+SP(60)       ; |231| 
    1510 00000848 023DE2E6             LDW     .D2T2   *+SP(60),B4       ; |231| 
    1511 0000084c 00004000             NOP             3
    1512 00000850 0281F42A             MVK     .S2     1000,B5           ; |231| 
    1513 00000854 00148AFA             CMPLT   .L2     B4,B5,B0          ; |231| 
    1514 00000858 300FA120     [!B0]   BNOP    .S1     L42,5             ; |231| 
    1515                               ; BRANCHCC OCCURS {L42}           ; |231| 
    1516                    ;*----------------------------------------------------------------------------*
    1517                    ;*   SOFTWARE PIPELINE INFORMATION
    1518                    ;*      Disqualified loop: Software pipelining disabled
    1519                    ;*----------------------------------------------------------------------------*
    1520 0000085c           L41:    
    1521 0000085c           DW$L$__IIC_write_rev$4$B:
    1522 0000085c 023DE2E6             LDW     .D2T2   *+SP(60),B4       ; |231| 
    1523 00000860 00006000             NOP             4
    1524 00000864 0210205A             ADD     .L2     1,B4,B4           ; |231| 
    1525 00000868 023DE2F6             STW     .D2T2   B4,*+SP(60)       ; |231| 
    1526 0000086c 023DE2E6             LDW     .D2T2   *+SP(60),B4       ; |231| 
    1527 00000870 00006000             NOP             4
    1528 00000874 00148AFA             CMPLT   .L2     B4,B5,B0          ; |231| 
    1529 00000878 2FFFA120     [ B0]   BNOP    .S1     L41,5             ; |231| 
    1530                               ; BRANCHCC OCCURS {L41}           ; |231| 
    1531                    DW$L$__IIC_write_rev$4$E:
    1532                    ;** --------------------------------------------------------------------------*
    1533                    L42:    
    1534                            .dwendtag DW$125
    1535                    
    1536                            .dwpsn  "_iic.c",234,9
    1537 0000087c 0200A35A             ZERO    .L2     B4                ; |234| 
    1538 00000880 023CC2F6             STW     .D2T2   B4,*+SP(24)       ; |234| 
    1539 00000884 00002000             NOP             2
    1540                            .dwpsn  "_iic.c",234,16
TMS320C6x COFF Assembler PC v5.1.0 Fri Jan 07 14:23:25 2011

Tools Copyright (c) 1996-2005 Texas Instruments Incorporated
C:\DOCUME~1\yqhe\LOCALS~1\Temp\TI3722                                PAGE   29

    1541 00000888 023D4286             LDHU    .D2T2   *+SP(20),B4       ; |234| 
    1542 0000088c 02BCC2E6             LDW     .D2T2   *+SP(24),B5       ; |234| 
    1543 00000890 00006000             NOP             4
    1544 00000894 0010AAFA             CMPLT   .L2     B5,B4,B0          ; |234| 
    1545 00000898 3036A120     [!B0]   BNOP    .S1     L48,5             ; |234| 
    1546                               ; BRANCHCC OCCURS {L48}           ; |234| 
    1547                    ;** --------------------------------------------------------------------------*
    1548                    ;**   BEGIN LOOP L43
    1549                    ;** --------------------------------------------------------------------------*
    1550                    L43:    
    1551                    DW$L$__IIC_write_rev$6$B:
    1552                            .dwpsn  "_iic.c",235,15
    1553 0000089c 0200002A!            MVKL    .S2     _I2C_xrdy,B4      ; |235| 
    1554 000008a0 0200006A!            MVKH    .S2     _I2C_xrdy,B4      ; |235| 
    1555 000008a4 00100362             CALL    .S2     B4                ; |235| 
    1556 000008a8 023C22E4             LDW     .D2T1   *+SP(4),A4        ; |235| 
    1557 000008ac 01846162             ADDKPC  .S2     RL30,B3,3         ; |235| 
    1558 000008b0           RL30:      ; CALL OCCURS {_I2C_xrdy}         ; |235| 
    1559 000008b0 00100FD8             MV      .L1     A4,A0             ; |235| 
    1560 000008b4 C00DA120     [ A0]   BNOP    .S1     L45,5             ; |235| 
    1561                               ; BRANCHCC OCCURS {L45}           ; |235| 
    1562 000008b8           DW$L$__IIC_write_rev$6$E:
    1563                    ;*----------------------------------------------------------------------------*
    1564                    ;*   SOFTWARE PIPELINE INFORMATION
    1565                    ;*      Disqualified loop: Software pipelining disabled
    1566                    ;*----------------------------------------------------------------------------*
    1567 000008b8           L44:    
    1568 000008b8           DW$L$__IIC_write_rev$7$B:
    1569 000008b8 0200002A!            MVKL    .S2     _I2C_xrdy,B4      ; |235| 
    1570 000008bc 0200006A!            MVKH    .S2     _I2C_xrdy,B4      ; |235| 
    1571 000008c0 00100362             CALL    .S2     B4                ; |235| 
    1572 000008c4 023C22E4             LDW     .D2T1   *+SP(4),A4        ; |235| 
    1573 000008c8 01836162             ADDKPC  .S2     RL31,B3,3         ; |235| 
    1574 000008cc           RL31:      ; CALL OCCURS {_I2C_xrdy}         ; |235| 
    1575 000008cc 00100FD8             MV      .L1     A4,A0             ; |235| 
    1576 000008d0 DFFEA120     [!A0]   BNOP    .S1     L44,5             ; |235| 
    1577                               ; BRANCHCC OCCURS {L44}           ; |235| 
    1578                    DW$L$__IIC_write_rev$7$E:
    1579                    ;** --------------------------------------------------------------------------*
    1580                    L45:    
    1581                    DW$L$__IIC_write_rev$8$B:
    1582                            .dwpsn  "_iic.c",236,9
    1583 000008d4 02BC82E6             LDW     .D2T2   *+SP(16),B5       ; |236| 
    1584 000008d8 01800028!            MVKL    .S1     _I2C_writeByte,A3 ; |236| 
    1585 000008dc 01800068!            MVKH    .S1     _I2C_writeByte,A3 ; |236| 
    1586 000008e0 023C22E4             LDW     .D2T1   *+SP(4),A4        ; |236| 
    1587 000008e4 000C1362             CALL    .S2X    A3                ; |236| 
    1588 000008e8 02143496             LDBU    .D2T2   *B5--,B4          ; |236| 
    1589 000008ec 02BC82F6             STW     .D2T2   B5,*+SP(16)       ; |236| 
    1590 000008f0 01854162             ADDKPC  .S2     RL32,B3,2         ; |236| 
    1591                    RL32:      ; CALL OCCURS {_I2C_writeByte}    ; |236| 
    1592                    
    1593                    DW$127  .dwtag  DW_TAG_lexical_block, DW_AT_low_pc(0x00), DW_AT_high_pc(0x00)
    1594                    DW$128  .dwtag  DW_TAG_variable, DW_AT_name("j"), DW_AT_symbol_name("_j")
    1595                            .dwattr DW$128, DW_AT_type(*DW$T$42)
TMS320C6x COFF Assembler PC v5.1.0 Fri Jan 07 14:23:25 2011

Tools Copyright (c) 1996-2005 Texas Instruments Incorporated
C:\DOCUME~1\yqhe\LOCALS~1\Temp\TI3722                                PAGE   30

    1596                            .dwattr DW$128, DW_AT_location[DW_OP_breg31 60]
    1597                            .dwpsn  "_iic.c",237,7
    1598 000008f4 0200A35A             ZERO    .L2     B4                ; |237| 
    1599 000008f8 023DE2F6             STW     .D2T2   B4,*+SP(60)       ; |237| 
    1600 000008fc 023DE2E6             LDW     .D2T2   *+SP(60),B4       ; |237| 
    1601 00000900 00004000             NOP             3
    1602 00000904 0281F42A             MVK     .S2     1000,B5           ; |237| 
    1603 00000908 00148AFA             CMPLT   .L2     B4,B5,B0          ; |237| 
    1604 0000090c 300CA120     [!B0]   BNOP    .S1     L47,5             ; |237| 
    1605                               ; BRANCHCC OCCURS {L47}           ; |237| 
    1606 00000910           DW$L$__IIC_write_rev$8$E:
    1607                    ;*----------------------------------------------------------------------------*
    1608                    ;*   SOFTWARE PIPELINE INFORMATION
    1609                    ;*      Disqualified loop: Software pipelining disabled
    1610                    ;*----------------------------------------------------------------------------*
    1611 00000910           L46:    
    1612 00000910           DW$L$__IIC_write_rev$9$B:
    1613 00000910 023DE2E6             LDW     .D2T2   *+SP(60),B4       ; |237| 
    1614 00000914 00006000             NOP             4
    1615 00000918 0210205A             ADD     .L2     1,B4,B4           ; |237| 
    1616 0000091c 023DE2F6             STW     .D2T2   B4,*+SP(60)       ; |237| 
    1617 00000920 023DE2E6             LDW     .D2T2   *+SP(60),B4       ; |237| 
    1618 00000924 00006000             NOP             4
    1619 00000928 00148AFA             CMPLT   .L2     B4,B5,B0          ; |237| 
    1620 0000092c 2FFCA120     [ B0]   BNOP    .S1     L46,5             ; |237| 
    1621                               ; BRANCHCC OCCURS {L46}           ; |237| 
    1622                    DW$L$__IIC_write_rev$9$E:
    1623                    ;** --------------------------------------------------------------------------*
    1624                    L47:    
    1625                    DW$L$__IIC_write_rev$10$B:
    1626                            .dwendtag DW$127
    1627                    
    1628                            .dwpsn  "_iic.c",234,30
    1629 00000930 023CC2E6             LDW     .D2T2   *+SP(24),B4       ; |234| 
    1630 00000934 00006000             NOP             4
    1631 00000938 0210205A             ADD     .L2     1,B4,B4           ; |234| 
    1632 0000093c 023CC2F6             STW     .D2T2   B4,*+SP(24)       ; |234| 
    1633 00000940 00002000             NOP             2
    1634                            .dwpsn  "_iic.c",234,16
    1635 00000944 023D4286             LDHU    .D2T2   *+SP(20),B4       ; |234| 
    1636 00000948 02BCC2E6             LDW     .D2T2   *+SP(24),B5       ; |234| 
    1637 0000094c 00006000             NOP             4
    1638 00000950 0010AAFA             CMPLT   .L2     B5,B4,B0          ; |234| 
    1639 00000954 2FD7A120     [ B0]   BNOP    .S1     L43,5             ; |234| 
    1640                               ; BRANCHCC OCCURS {L43}           ; |234| 
    1641                    DW$L$__IIC_write_rev$10$E:
    1642                    ;** --------------------------------------------------------------------------*
    1643                    L48:    
    1644                            .dwpsn  "_iic.c",241,5
    1645 00000958 01800028!            MVKL    .S1     _I2C_sendStop,A3  ; |241| 
    1646 0000095c 01800068!            MVKH    .S1     _I2C_sendStop,A3  ; |241| 
    1647 00000960 000C1362             CALL    .S2X    A3                ; |241| 
    1648 00000964 023C22E4             LDW     .D2T1   *+SP(4),A4        ; |241| 
    1649 00000968 01836162             ADDKPC  .S2     RL33,B3,3         ; |241| 
    1650                    RL33:      ; CALL OCCURS {_I2C_sendStop}     ; |241| 
TMS320C6x COFF Assembler PC v5.1.0 Fri Jan 07 14:23:25 2011

Tools Copyright (c) 1996-2005 Texas Instruments Incorporated
C:\DOCUME~1\yqhe\LOCALS~1\Temp\TI3722                                PAGE   31

    1651                    
    1652                    DW$129  .dwtag  DW_TAG_lexical_block, DW_AT_low_pc(0x00), DW_AT_high_pc(0x00)
    1653                    DW$130  .dwtag  DW_TAG_variable, DW_AT_name("j"), DW_AT_symbol_name("_j")
    1654                            .dwattr DW$130, DW_AT_type(*DW$T$42)
    1655                            .dwattr DW$130, DW_AT_location[DW_OP_breg31 60]
    1656                            .dwpsn  "_iic.c",243,5
    1657 0000096c 0200A35A             ZERO    .L2     B4                ; |243| 
    1658 00000970 023DE2F6             STW     .D2T2   B4,*+SP(60)       ; |243| 
    1659 00000974 023DE2E6             LDW     .D2T2   *+SP(60),B4       ; |243| 
    1660 00000978 00004000             NOP             3
    1661 0000097c 0281F42A             MVK     .S2     1000,B5           ; |243| 
    1662 00000980 00148AFA             CMPLT   .L2     B4,B5,B0          ; |243| 
    1663 00000984 300AA120     [!B0]   BNOP    .S1     L50,5             ; |243| 
    1664                               ; BRANCHCC OCCURS {L50}           ; |243| 
    1665                    ;*----------------------------------------------------------------------------*
    1666                    ;*   SOFTWARE PIPELINE INFORMATION
    1667                    ;*      Disqualified loop: Software pipelining disabled
    1668                    ;*----------------------------------------------------------------------------*
    1669 00000988           L49:    
    1670 00000988           DW$L$__IIC_write_rev$12$B:
    1671 00000988 023DE2E6             LDW     .D2T2   *+SP(60),B4       ; |243| 
    1672 0000098c 00006000             NOP             4
    1673 00000990 0210205A             ADD     .L2     1,B4,B4           ; |243| 
    1674 00000994 023DE2F6             STW     .D2T2   B4,*+SP(60)       ; |243| 
    1675 00000998 023DE2E6             LDW     .D2T2   *+SP(60),B4       ; |243| 
    1676 0000099c 00006000             NOP             4
    1677 000009a0 00148AFA             CMPLT   .L2     B4,B5,B0          ; |243| 
    1678 000009a4 2FFAA120     [ B0]   BNOP    .S1     L49,5             ; |243| 
    1679                               ; BRANCHCC OCCURS {L49}           ; |243| 
    1680                    DW$L$__IIC_write_rev$12$E:
    1681                    ;** --------------------------------------------------------------------------*
    1682                    L50:    
    1683                            .dwendtag DW$129
    1684                    
    1685                            .dwpsn  "_iic.c",245,5
    1686 000009a8 0200002A!            MVKL    .S2     _I2C_bb,B4        ; |245| 
    1687 000009ac 0200006A!            MVKH    .S2     _I2C_bb,B4        ; |245| 
    1688 000009b0 00100362             CALL    .S2     B4                ; |245| 
    1689 000009b4 023C22E4             LDW     .D2T1   *+SP(4),A4        ; |245| 
    1690 000009b8 01876162             ADDKPC  .S2     RL34,B3,3         ; |245| 
    1691 000009bc           RL34:      ; CALL OCCURS {_I2C_bb}           ; |245| 
    1692 000009bc 00100FD8             MV      .L1     A4,A0             ; |245| 
    1693 000009c0 D008A120     [!A0]   BNOP    .S1     L52,5             ; |245| 
    1694                               ; BRANCHCC OCCURS {L52}           ; |245| 
    1695                    ;*----------------------------------------------------------------------------*
    1696                    ;*   SOFTWARE PIPELINE INFORMATION
    1697                    ;*      Disqualified loop: Software pipelining disabled
    1698                    ;*----------------------------------------------------------------------------*
    1699 000009c4           L51:    
    1700 000009c4           DW$L$__IIC_write_rev$14$B:
    1701 000009c4 0200002A!            MVKL    .S2     _I2C_bb,B4        ; |245| 
    1702 000009c8 0200006A!            MVKH    .S2     _I2C_bb,B4        ; |245| 
    1703 000009cc 00100362             CALL    .S2     B4                ; |245| 
    1704 000009d0 023C22E4             LDW     .D2T1   *+SP(4),A4        ; |245| 
    1705 000009d4 01866162             ADDKPC  .S2     RL35,B3,3         ; |245| 
TMS320C6x COFF Assembler PC v5.1.0 Fri Jan 07 14:23:25 2011

Tools Copyright (c) 1996-2005 Texas Instruments Incorporated
C:\DOCUME~1\yqhe\LOCALS~1\Temp\TI3722                                PAGE   32

    1706 000009d8           RL35:      ; CALL OCCURS {_I2C_bb}           ; |245| 
    1707 000009d8 00100FD8             MV      .L1     A4,A0             ; |245| 
    1708 000009dc C001A120     [ A0]   BNOP    .S1     L51,5             ; |245| 
    1709                               ; BRANCHCC OCCURS {L51}           ; |245| 
    1710                    DW$L$__IIC_write_rev$14$E:
    1711                    ;** --------------------------------------------------------------------------*
    1712                    L52:    
    1713                    
    1714                    DW$131  .dwtag  DW_TAG_lexical_block, DW_AT_low_pc(0x00), DW_AT_high_pc(0x00)
    1715                    DW$132  .dwtag  DW_TAG_variable, DW_AT_name("j"), DW_AT_symbol_name("_j")
    1716                            .dwattr DW$132, DW_AT_type(*DW$T$42)
    1717                            .dwattr DW$132, DW_AT_location[DW_OP_breg31 60]
    1718                            .dwpsn  "_iic.c",247,5
    1719 000009e0 0200A35A             ZERO    .L2     B4                ; |247| 
    1720 000009e4 023DE2F6             STW     .D2T2   B4,*+SP(60)       ; |247| 
    1721 000009e8 023DE2E6             LDW     .D2T2   *+SP(60),B4       ; |247| 
    1722 000009ec 00004000             NOP             3
    1723 000009f0 0281F42A             MVK     .S2     1000,B5           ; |247| 
    1724 000009f4 00148AFA             CMPLT   .L2     B4,B5,B0          ; |247| 
    1725 000009f8 300FA120     [!B0]   BNOP    .S1     L54,5             ; |247| 
    1726                               ; BRANCHCC OCCURS {L54}           ; |247| 
    1727                    ;*----------------------------------------------------------------------------*
    1728                    ;*   SOFTWARE PIPELINE INFORMATION
    1729                    ;*      Disqualified loop: Software pipelining disabled
    1730                    ;*----------------------------------------------------------------------------*
    1731 000009fc           L53:    
    1732 000009fc           DW$L$__IIC_write_rev$16$B:
    1733 000009fc 023DE2E6             LDW     .D2T2   *+SP(60),B4       ; |247| 
    1734 00000a00 00006000             NOP             4
    1735 00000a04 0210205A             ADD     .L2     1,B4,B4           ; |247| 
    1736 00000a08 023DE2F6             STW     .D2T2   B4,*+SP(60)       ; |247| 
    1737 00000a0c 023DE2E6             LDW     .D2T2   *+SP(60),B4       ; |247| 
    1738 00000a10 00006000             NOP             4
    1739 00000a14 00148AFA             CMPLT   .L2     B4,B5,B0          ; |247| 
    1740 00000a18 2FFFA120     [ B0]   BNOP    .S1     L53,5             ; |247| 
    1741                               ; BRANCHCC OCCURS {L53}           ; |247| 
    1742                    DW$L$__IIC_write_rev$16$E:
    1743                    ;** --------------------------------------------------------------------------*
    1744                    L54:    
    1745                            .dwendtag DW$131
    1746                    
    1747                            .dwpsn  "_iic.c",251,5
    1748 00000a1c 01800028!            MVKL    .S1     _I2C_config,A3    ; |251| 
    1749 00000a20 01800068!            MVKH    .S1     _I2C_config,A3    ; |251| 
    1750 00000a24 000C1362             CALL    .S2X    A3                ; |251| 
    1751 00000a28 023C22E4             LDW     .D2T1   *+SP(4),A4        ; |251| 
    1752 00000a2c 01854162             ADDKPC  .S2     RL36,B3,2         ; |251| 
    1753 00000a30 023F8942             ADD     .D2     SP,28,B4          ; |251| 
    1754                    RL36:      ; CALL OCCURS {_I2C_config}       ; |251| 
    1755                    
    1756                    DW$133  .dwtag  DW_TAG_lexical_block, DW_AT_low_pc(0x00), DW_AT_high_pc(0x00)
    1757                    DW$134  .dwtag  DW_TAG_variable, DW_AT_name("j"), DW_AT_symbol_name("_j")
    1758                            .dwattr DW$134, DW_AT_type(*DW$T$42)
    1759                            .dwattr DW$134, DW_AT_location[DW_OP_breg31 60]
    1760                            .dwpsn  "_iic.c",253,5
TMS320C6x COFF Assembler PC v5.1.0 Fri Jan 07 14:23:25 2011

Tools Copyright (c) 1996-2005 Texas Instruments Incorporated
C:\DOCUME~1\yqhe\LOCALS~1\Temp\TI3722                                PAGE   33

    1761 00000a34 0200A35A             ZERO    .L2     B4                ; |253| 
    1762 00000a38 023DE2F6             STW     .D2T2   B4,*+SP(60)       ; |253| 
    1763 00000a3c 02BDE2E6             LDW     .D2T2   *+SP(60),B5       ; |253| 
    1764 00000a40 00004000             NOP             3
    1765 00000a44 0F81F42A             MVK     .S2     1000,B31          ; |253| 
    1766 00000a48 007CAAFA             CMPLT   .L2     B5,B31,B0         ; |253| 
    1767 00000a4c 300DA120     [!B0]   BNOP    .S1     L56,5             ; |253| 
    1768                               ; BRANCHCC OCCURS {L56}           ; |253| 
    1769                    ;*----------------------------------------------------------------------------*
    1770                    ;*   SOFTWARE PIPELINE INFORMATION
    1771                    ;*      Disqualified loop: Software pipelining disabled
    1772                    ;*----------------------------------------------------------------------------*
    1773 00000a50           L55:    
    1774 00000a50           DW$L$__IIC_write_rev$18$B:
    1775 00000a50 023DE2E6             LDW     .D2T2   *+SP(60),B4       ; |253| 
    1776 00000a54 00004000             NOP             3
    1777 00000a58 0281F42A             MVK     .S2     1000,B5           ; |253| 
    1778 00000a5c 0210205A             ADD     .L2     1,B4,B4           ; |253| 
    1779 00000a60 023DE2F6             STW     .D2T2   B4,*+SP(60)       ; |253| 
    1780 00000a64 023DE2E6             LDW     .D2T2   *+SP(60),B4       ; |253| 
    1781 00000a68 00006000             NOP             4
    1782 00000a6c 00148AFA             CMPLT   .L2     B4,B5,B0          ; |253| 
    1783 00000a70 2FFCA120     [ B0]   BNOP    .S1     L55,5             ; |253| 
    1784                               ; BRANCHCC OCCURS {L55}           ; |253| 
    1785                    DW$L$__IIC_write_rev$18$E:
    1786                    ;** --------------------------------------------------------------------------*
    1787                            .dwendtag DW$133
    1788                    
    1789                    ;** --------------------------------------------------------------------------*
    1790                    L56:    
    1791                            .dwpsn  "_iic.c",254,1
    1792 00000a74 01BE12E6             LDW     .D2T2   *++SP(64),B3      ; |254| 
    1793 00000a78 00006000             NOP             4
    1794                            .dwcfa  0xc0, 19
    1795                            .dwcfa  0x0e, 0
    1796 00000a7c 008CA362             RETNOP  .S2     B3,5              ; |254| 
    1797                               ; BRANCH OCCURS {B3}              ; |254| 
    1798                    
    1799                    DW$135  .dwtag  DW_TAG_loop
    1800                            .dwattr DW$135, DW_AT_name("C:\DOCUME~1\yqhe\LOCALS~1\Temp\TI3722:L55:1:1294381405")
    1801                            .dwattr DW$135, DW_AT_begin_file("_iic.c")
    1802                            .dwattr DW$135, DW_AT_begin_line(0xfd)
    1803                            .dwattr DW$135, DW_AT_end_line(0xfd)
    1804                    DW$136  .dwtag  DW_TAG_loop_range
    1805                            .dwattr DW$136, DW_AT_low_pc(DW$L$__IIC_write_rev$18$B)
    1806                            .dwattr DW$136, DW_AT_high_pc(DW$L$__IIC_write_rev$18$E)
    1807                            .dwendtag DW$135
    1808                    
    1809                    
    1810                    DW$137  .dwtag  DW_TAG_loop
    1811                            .dwattr DW$137, DW_AT_name("C:\DOCUME~1\yqhe\LOCALS~1\Temp\TI3722:L53:1:1294381405")
    1812                            .dwattr DW$137, DW_AT_begin_file("_iic.c")
    1813                            .dwattr DW$137, DW_AT_begin_line(0xf7)
    1814                            .dwattr DW$137, DW_AT_end_line(0xf7)
    1815                    DW$138  .dwtag  DW_TAG_loop_range
TMS320C6x COFF Assembler PC v5.1.0 Fri Jan 07 14:23:25 2011

Tools Copyright (c) 1996-2005 Texas Instruments Incorporated
C:\DOCUME~1\yqhe\LOCALS~1\Temp\TI3722                                PAGE   34

    1816                            .dwattr DW$138, DW_AT_low_pc(DW$L$__IIC_write_rev$16$B)
    1817                            .dwattr DW$138, DW_AT_high_pc(DW$L$__IIC_write_rev$16$E)
    1818                            .dwendtag DW$137
    1819                    
    1820                    
    1821                    DW$139  .dwtag  DW_TAG_loop
    1822                            .dwattr DW$139, DW_AT_name("C:\DOCUME~1\yqhe\LOCALS~1\Temp\TI3722:L51:1:1294381405")
    1823                            .dwattr DW$139, DW_AT_begin_file("_iic.c")
    1824                            .dwattr DW$139, DW_AT_begin_line(0xf5)
    1825                            .dwattr DW$139, DW_AT_end_line(0xf5)
    1826                    DW$140  .dwtag  DW_TAG_loop_range
    1827                            .dwattr DW$140, DW_AT_low_pc(DW$L$__IIC_write_rev$14$B)
    1828                            .dwattr DW$140, DW_AT_high_pc(DW$L$__IIC_write_rev$14$E)
    1829                            .dwendtag DW$139
    1830                    
    1831                    
    1832                    DW$141  .dwtag  DW_TAG_loop
    1833                            .dwattr DW$141, DW_AT_name("C:\DOCUME~1\yqhe\LOCALS~1\Temp\TI3722:L49:1:1294381405")
    1834                            .dwattr DW$141, DW_AT_begin_file("_iic.c")
    1835                            .dwattr DW$141, DW_AT_begin_line(0xf3)
    1836                            .dwattr DW$141, DW_AT_end_line(0xf3)
    1837                    DW$142  .dwtag  DW_TAG_loop_range
    1838                            .dwattr DW$142, DW_AT_low_pc(DW$L$__IIC_write_rev$12$B)
    1839                            .dwattr DW$142, DW_AT_high_pc(DW$L$__IIC_write_rev$12$E)
    1840                            .dwendtag DW$141
    1841                    
    1842                    
    1843                    DW$143  .dwtag  DW_TAG_loop
    1844                            .dwattr DW$143, DW_AT_name("C:\DOCUME~1\yqhe\LOCALS~1\Temp\TI3722:L43:1:1294381405")
    1845                            .dwattr DW$143, DW_AT_begin_file("_iic.c")
    1846                            .dwattr DW$143, DW_AT_begin_line(0xea)
    1847                            .dwattr DW$143, DW_AT_end_line(0xee)
    1848                    DW$144  .dwtag  DW_TAG_loop_range
    1849                            .dwattr DW$144, DW_AT_low_pc(DW$L$__IIC_write_rev$6$B)
    1850                            .dwattr DW$144, DW_AT_high_pc(DW$L$__IIC_write_rev$6$E)
    1851                    DW$145  .dwtag  DW_TAG_loop_range
    1852                            .dwattr DW$145, DW_AT_low_pc(DW$L$__IIC_write_rev$8$B)
    1853                            .dwattr DW$145, DW_AT_high_pc(DW$L$__IIC_write_rev$8$E)
    1854                    DW$146  .dwtag  DW_TAG_loop_range
    1855                            .dwattr DW$146, DW_AT_low_pc(DW$L$__IIC_write_rev$10$B)
    1856                            .dwattr DW$146, DW_AT_high_pc(DW$L$__IIC_write_rev$10$E)
    1857                    
    1858                    DW$147  .dwtag  DW_TAG_loop
    1859                            .dwattr DW$147, DW_AT_name("C:\DOCUME~1\yqhe\LOCALS~1\Temp\TI3722:L44:2:1294381405")
    1860                            .dwattr DW$147, DW_AT_begin_file("_iic.c")
    1861                            .dwattr DW$147, DW_AT_begin_line(0xeb)
    1862                            .dwattr DW$147, DW_AT_end_line(0xeb)
    1863                    DW$148  .dwtag  DW_TAG_loop_range
    1864                            .dwattr DW$148, DW_AT_low_pc(DW$L$__IIC_write_rev$7$B)
    1865                            .dwattr DW$148, DW_AT_high_pc(DW$L$__IIC_write_rev$7$E)
    1866                            .dwendtag DW$147
    1867                    
    1868                    
    1869                    DW$149  .dwtag  DW_TAG_loop
    1870                            .dwattr DW$149, DW_AT_name("C:\DOCUME~1\yqhe\LOCALS~1\Temp\TI3722:L46:2:1294381405")
TMS320C6x COFF Assembler PC v5.1.0 Fri Jan 07 14:23:25 2011

Tools Copyright (c) 1996-2005 Texas Instruments Incorporated
C:\DOCUME~1\yqhe\LOCALS~1\Temp\TI3722                                PAGE   35

    1871                            .dwattr DW$149, DW_AT_begin_file("_iic.c")
    1872                            .dwattr DW$149, DW_AT_begin_line(0xed)
    1873                            .dwattr DW$149, DW_AT_end_line(0xed)
    1874                    DW$150  .dwtag  DW_TAG_loop_range
    1875                            .dwattr DW$150, DW_AT_low_pc(DW$L$__IIC_write_rev$9$B)
    1876                            .dwattr DW$150, DW_AT_high_pc(DW$L$__IIC_write_rev$9$E)
    1877                            .dwendtag DW$149
    1878                    
    1879                            .dwendtag DW$143
    1880                    
    1881                    
    1882                    DW$151  .dwtag  DW_TAG_loop
    1883                            .dwattr DW$151, DW_AT_name("C:\DOCUME~1\yqhe\LOCALS~1\Temp\TI3722:L41:1:1294381405")
    1884                            .dwattr DW$151, DW_AT_begin_file("_iic.c")
    1885                            .dwattr DW$151, DW_AT_begin_line(0xe7)
    1886                            .dwattr DW$151, DW_AT_end_line(0xe7)
    1887                    DW$152  .dwtag  DW_TAG_loop_range
    1888                            .dwattr DW$152, DW_AT_low_pc(DW$L$__IIC_write_rev$4$B)
    1889                            .dwattr DW$152, DW_AT_high_pc(DW$L$__IIC_write_rev$4$E)
    1890                            .dwendtag DW$151
    1891                    
    1892                    
    1893                    DW$153  .dwtag  DW_TAG_loop
    1894                            .dwattr DW$153, DW_AT_name("C:\DOCUME~1\yqhe\LOCALS~1\Temp\TI3722:L39:1:1294381405")
    1895                            .dwattr DW$153, DW_AT_begin_file("_iic.c")
    1896                            .dwattr DW$153, DW_AT_begin_line(0xd3)
    1897                            .dwattr DW$153, DW_AT_end_line(0xd3)
    1898                    DW$154  .dwtag  DW_TAG_loop_range
    1899                            .dwattr DW$154, DW_AT_low_pc(DW$L$__IIC_write_rev$2$B)
    1900                            .dwattr DW$154, DW_AT_high_pc(DW$L$__IIC_write_rev$2$E)
    1901                            .dwendtag DW$153
    1902                    
    1903                            .dwattr DW$112, DW_AT_end_file("_iic.c")
    1904                            .dwattr DW$112, DW_AT_end_line(0xfe)
    1905                            .dwattr DW$112, DW_AT_end_column(0x01)
    1906                            .dwendentry
    1907                            .dwendtag DW$112
    1908                    
    1909 00000a80                   .sect   ".text"
    1910                            .global __IIC_read_rev
    1911                    
    1912                    DW$155  .dwtag  DW_TAG_subprogram, DW_AT_name("_IIC_read_rev"), DW_AT_symbol_name("__IIC_read_rev")
    1913                            .dwattr DW$155, DW_AT_low_pc(__IIC_read_rev)
    1914                            .dwattr DW$155, DW_AT_high_pc(0x00)
    1915                            .dwattr DW$155, DW_AT_begin_file("_iic.c")
    1916                            .dwattr DW$155, DW_AT_begin_line(0x109)
    1917                            .dwattr DW$155, DW_AT_begin_column(0x06)
    1918                            .dwpsn  "_iic.c",271,1
    1919                    
    1920                            .dwfde DW$CIE
    1921                    
    1922                    ;******************************************************************************
    1923                    ;* FUNCTION NAME: __IIC_read_rev                                              *
    1924                    ;*                                                                            *
    1925                    ;*   Regs Modified     : A0,A1,A2,A3,A4,A5,A6,A7,A8,A9,B0,B1,B2,B3,B4,B5,B6,  *
TMS320C6x COFF Assembler PC v5.1.0 Fri Jan 07 14:23:25 2011

Tools Copyright (c) 1996-2005 Texas Instruments Incorporated
C:\DOCUME~1\yqhe\LOCALS~1\Temp\TI3722                                PAGE   36

    1926                    ;*                           B7,B8,B9,SP,A16,A17,A18,A19,A20,A21,A22,A23,A24, *
    1927                    ;*                           A25,A26,A27,A28,A29,A30,A31,B16,B17,B18,B19,B20, *
    1928                    ;*                           B21,B22,B23,B24,B25,B26,B27,B28,B29,B30,B31      *
    1929                    ;*   Regs Used         : A0,A1,A2,A3,A4,A5,A6,A7,A8,A9,B0,B1,B2,B3,B4,B5,B6,  *
    1930                    ;*                           B7,B8,B9,SP,A16,A17,A18,A19,A20,A21,A22,A23,A24, *
    1931                    ;*                           A25,A26,A27,A28,A29,A30,A31,B16,B17,B18,B19,B20, *
    1932                    ;*                           B21,B22,B23,B24,B25,B26,B27,B28,B29,B30,B31      *
    1933                    ;*   Local Frame Size  : 0 Args + 60 Auto + 4 Save = 64 byte                  *
    1934                    ;******************************************************************************
    1935                    __IIC_read_rev:
    1936                    ;** --------------------------------------------------------------------------*
    1937                            .dwcfa  0x0e, 0
    1938                            .dwcfa  0x09, 126, 19
    1939 00000a80 01BE14F6             STW     .D2T2   B3,*SP--(64)      ; |271| 
    1940 00000a84 00002000             NOP             2
    1941                            .dwcfa  0x0e, 64
    1942                            .dwcfa  0x80, 19, 0
    1943                    DW$156  .dwtag  DW_TAG_formal_parameter, DW_AT_name("hI2C"), DW_AT_symbol_name("_hI2C")
    1944                            .dwattr DW$156, DW_AT_type(*DW$T$25)
    1945                            .dwattr DW$156, DW_AT_location[DW_OP_reg4]
    1946                    DW$157  .dwtag  DW_TAG_formal_parameter, DW_AT_name("devAddress"), DW_AT_symbol_name("_devAddress")
    1947                            .dwattr DW$157, DW_AT_type(*DW$T$26)
    1948                            .dwattr DW$157, DW_AT_location[DW_OP_reg20]
    1949                    DW$158  .dwtag  DW_TAG_formal_parameter, DW_AT_name("subAddress"), DW_AT_symbol_name("_subAddress")
    1950                            .dwattr DW$158, DW_AT_type(*DW$T$19)
    1951                            .dwattr DW$158, DW_AT_location[DW_OP_reg6]
    1952                    DW$159  .dwtag  DW_TAG_formal_parameter, DW_AT_name("data"), DW_AT_symbol_name("_data")
    1953                            .dwattr DW$159, DW_AT_type(*DW$T$35)
    1954                            .dwattr DW$159, DW_AT_location[DW_OP_reg22]
    1955                    DW$160  .dwtag  DW_TAG_formal_parameter, DW_AT_name("numBytes"), DW_AT_symbol_name("_numBytes")
    1956                            .dwattr DW$160, DW_AT_type(*DW$T$36)
    1957                            .dwattr DW$160, DW_AT_location[DW_OP_reg8]
    1958                    DW$161  .dwtag  DW_TAG_variable, DW_AT_name("hI2C"), DW_AT_symbol_name("_hI2C")
    1959                            .dwattr DW$161, DW_AT_type(*DW$T$25)
    1960                            .dwattr DW$161, DW_AT_location[DW_OP_breg31 4]
    1961                    DW$162  .dwtag  DW_TAG_variable, DW_AT_name("devAddress"), DW_AT_symbol_name("_devAddress")
    1962                            .dwattr DW$162, DW_AT_type(*DW$T$26)
    1963                            .dwattr DW$162, DW_AT_location[DW_OP_breg31 8]
    1964                    DW$163  .dwtag  DW_TAG_variable, DW_AT_name("subAddress"), DW_AT_symbol_name("_subAddress")
    1965                            .dwattr DW$163, DW_AT_type(*DW$T$19)
    1966                            .dwattr DW$163, DW_AT_location[DW_OP_breg31 12]
    1967                    DW$164  .dwtag  DW_TAG_variable, DW_AT_name("data"), DW_AT_symbol_name("_data")
    1968                            .dwattr DW$164, DW_AT_type(*DW$T$35)
    1969                            .dwattr DW$164, DW_AT_location[DW_OP_breg31 16]
    1970                    DW$165  .dwtag  DW_TAG_variable, DW_AT_name("numBytes"), DW_AT_symbol_name("_numBytes")
    1971                            .dwattr DW$165, DW_AT_type(*DW$T$36)
    1972                            .dwattr DW$165, DW_AT_location[DW_OP_breg31 20]
    1973                    DW$166  .dwtag  DW_TAG_variable, DW_AT_name("i"), DW_AT_symbol_name("_i")
    1974                            .dwattr DW$166, DW_AT_type(*DW$T$41)
    1975                            .dwattr DW$166, DW_AT_location[DW_OP_breg31 24]
    1976                    DW$167  .dwtag  DW_TAG_variable, DW_AT_name("prevIICConfig"), DW_AT_symbol_name("_prevIICConfig")
    1977                            .dwattr DW$167, DW_AT_type(*DW$T$31)
    1978                            .dwattr DW$167, DW_AT_location[DW_OP_breg31 28]
    1979 00000a88 043D42D4             STH     .D2T1   A8,*+SP(20)       ; |271| 
    1980 00000a8c 033C62F4             STW     .D2T1   A6,*+SP(12)       ; |271| 
TMS320C6x COFF Assembler PC v5.1.0 Fri Jan 07 14:23:25 2011

Tools Copyright (c) 1996-2005 Texas Instruments Incorporated
C:\DOCUME~1\yqhe\LOCALS~1\Temp\TI3722                                PAGE   37

    1981 00000a90 023D02B6             STB     .D2T2   B4,*+SP(8)        ; |271| 
    1982                    
    1983 00000a94 023C22F5             STW     .D2T1   A4,*+SP(4)        ; |271| 
    1984 00000a98 01981FD8  ||         MV      .L1X    B6,A3             ; |271| 
    1985                    
    1986 00000a9c 01BC82F4             STW     .D2T1   A3,*+SP(16)       ; |271| 
    1987 00000aa0 00002000             NOP             2
    1988                            .dwpsn  "_iic.c",276,5
    1989 00000aa4 0200002A!            MVKL    .S2     _I2C_bb,B4        ; |276| 
    1990 00000aa8 0200006A!            MVKH    .S2     _I2C_bb,B4        ; |276| 
    1991 00000aac 00100362             CALL    .S2     B4                ; |276| 
    1992 00000ab0 01858162             ADDKPC  .S2     RL37,B3,4         ; |276| 
    1993 00000ab4           RL37:      ; CALL OCCURS {_I2C_bb}           ; |276| 
    1994 00000ab4 00100FD8             MV      .L1     A4,A0             ; |276| 
    1995 00000ab8 D00EA120     [!A0]   BNOP    .S1     L58,5             ; |276| 
    1996                               ; BRANCHCC OCCURS {L58}           ; |276| 
    1997                    ;*----------------------------------------------------------------------------*
    1998                    ;*   SOFTWARE PIPELINE INFORMATION
    1999                    ;*      Disqualified loop: Software pipelining disabled
    2000                    ;*----------------------------------------------------------------------------*
    2001 00000abc           L57:    
    2002 00000abc           DW$L$__IIC_read_rev$2$B:
    2003 00000abc 0200002A!            MVKL    .S2     _I2C_bb,B4        ; |276| 
    2004 00000ac0 0200006A!            MVKH    .S2     _I2C_bb,B4        ; |276| 
    2005 00000ac4 00100362             CALL    .S2     B4                ; |276| 
    2006 00000ac8 023C22E4             LDW     .D2T1   *+SP(4),A4        ; |276| 
    2007 00000acc 01846162             ADDKPC  .S2     RL38,B3,3         ; |276| 
    2008 00000ad0           RL38:      ; CALL OCCURS {_I2C_bb}           ; |276| 
    2009 00000ad0 00100FD8             MV      .L1     A4,A0             ; |276| 
    2010 00000ad4 CFFFA120     [ A0]   BNOP    .S1     L57,5             ; |276| 
    2011                               ; BRANCHCC OCCURS {L57}           ; |276| 
    2012                    DW$L$__IIC_read_rev$2$E:
    2013                    ;** --------------------------------------------------------------------------*
    2014                    L58:    
    2015                            .dwpsn  "_iic.c",279,5
    2016 00000ad8 0280002A!            MVKL    .S2     _I2C_getConfig,B5 ; |279| 
    2017 00000adc 0280006A!            MVKH    .S2     _I2C_getConfig,B5 ; |279| 
    2018 00000ae0 00140362             CALL    .S2     B5                ; |279| 
    2019 00000ae4 023C22E4             LDW     .D2T1   *+SP(4),A4        ; |279| 
    2020 00000ae8 01844162             ADDKPC  .S2     RL39,B3,2         ; |279| 
    2021 00000aec 023F8942             ADD     .D2     SP,28,B4          ; |279| 
    2022                    RL39:      ; CALL OCCURS {_I2C_getConfig}    ; |279| 
    2023                            .dwpsn  "_iic.c",282,5
    2024 00000af0 01800028!            MVKL    .S1     _I2C_config,A3    ; |282| 
    2025 00000af4 01800068!            MVKH    .S1     _I2C_config,A3    ; |282| 
    2026 00000af8 000C1362             CALL    .S2X    A3                ; |282| 
    2027 00000afc 023C22E4             LDW     .D2T1   *+SP(4),A4        ; |282| 
    2028 00000b00 02801028+            MVKL    .S1     _EVM642VIDEOIIC_Config_Read,A5 ; |282| 
    2029 00000b04 02800068+            MVKH    .S1     _EVM642VIDEOIIC_Config_Read,A5 ; |282| 
    2030 00000b08 01840162             ADDKPC  .S2     RL40,B3,0         ; |282| 
    2031 00000b0c 02141FDA             MV      .L2X    A5,B4             ; |282| 
    2032                    RL40:      ; CALL OCCURS {_I2C_config}       ; |282| 
    2033                            .dwpsn  "_iic.c",285,5
    2034 00000b10 033C62E4             LDW     .D2T1   *+SP(12),A6       ; |285| 
    2035                    
TMS320C6x COFF Assembler PC v5.1.0 Fri Jan 07 14:23:25 2011

Tools Copyright (c) 1996-2005 Texas Instruments Incorporated
C:\DOCUME~1\yqhe\LOCALS~1\Temp\TI3722                                PAGE   38

    2036 00000b14 0FFEA011             CALL    .S1     __IIC_write       ; |285| 
    2037 00000b18 023D0296  ||         LDBU    .D2T2   *+SP(8),B4        ; |285| 
    2038                    
    2039 00000b1c 023C22E4             LDW     .D2T1   *+SP(4),A4        ; |285| 
    2040 00000b20 01832162             ADDKPC  .S2     RL41,B3,1         ; |285| 
    2041 00000b24 0400A358             ZERO    .L1     A8                ; |285| 
    2042 00000b28 0300A35A             ZERO    .L2     B6                ; |285| 
    2043                    RL41:      ; CALL OCCURS {__IIC_write}       ; |285| 
    2044                            .dwpsn  "_iic.c",288,5
    2045 00000b2c 0200002A!            MVKL    .S2     _I2C_bb,B4        ; |288| 
    2046 00000b30 0200006A!            MVKH    .S2     _I2C_bb,B4        ; |288| 
    2047 00000b34 00100362             CALL    .S2     B4                ; |288| 
    2048 00000b38 023C22E4             LDW     .D2T1   *+SP(4),A4        ; |288| 
    2049 00000b3c 01886162             ADDKPC  .S2     RL42,B3,3         ; |288| 
    2050 00000b40           RL42:      ; CALL OCCURS {_I2C_bb}           ; |288| 
    2051 00000b40 00100FD8             MV      .L1     A4,A0             ; |288| 
    2052 00000b44 D009A120     [!A0]   BNOP    .S1     L60,5             ; |288| 
    2053                               ; BRANCHCC OCCURS {L60}           ; |288| 
    2054                    ;*----------------------------------------------------------------------------*
    2055                    ;*   SOFTWARE PIPELINE INFORMATION
    2056                    ;*      Disqualified loop: Software pipelining disabled
    2057                    ;*----------------------------------------------------------------------------*
    2058 00000b48           L59:    
    2059 00000b48           DW$L$__IIC_read_rev$4$B:
    2060 00000b48 0200002A!            MVKL    .S2     _I2C_bb,B4        ; |288| 
    2061 00000b4c 0200006A!            MVKH    .S2     _I2C_bb,B4        ; |288| 
    2062 00000b50 00100362             CALL    .S2     B4                ; |288| 
    2063 00000b54 023C22E4             LDW     .D2T1   *+SP(4),A4        ; |288| 
    2064 00000b58 01876162             ADDKPC  .S2     RL43,B3,3         ; |288| 
    2065 00000b5c           RL43:      ; CALL OCCURS {_I2C_bb}           ; |288| 
    2066 00000b5c 00100FD8             MV      .L1     A4,A0             ; |288| 
    2067 00000b60 CFFAA120     [ A0]   BNOP    .S1     L59,5             ; |288| 
    2068                               ; BRANCHCC OCCURS {L59}           ; |288| 
    2069                    DW$L$__IIC_read_rev$4$E:
    2070                    ;** --------------------------------------------------------------------------*
    2071                    L60:    
    2072                            .dwpsn  "_iic.c",291,5
    2073 00000b64 01BC22E4             LDW     .D2T1   *+SP(4),A3        ; |291| 
    2074 00000b68 00004000             NOP             3
    2075 00000b6c 023D0296             LDBU    .D2T2   *+SP(8),B4        ; |291| 
    2076 00000b70 018C4264             LDW     .D1T1   *+A3(8),A3        ; |291| 
    2077 00000b74 00006000             NOP             4
    2078 00000b78 020CE276             STW     .D1T2   B4,*+A3(28)       ; |291| 
    2079 00000b7c 00002000             NOP             2
    2080                            .dwpsn  "_iic.c",294,5
    2081 00000b80 02BC22E6             LDW     .D2T2   *+SP(4),B5        ; |294| 
    2082 00000b84 00004000             NOP             3
    2083 00000b88 023D4286             LDHU    .D2T2   *+SP(20),B4       ; |294| 
    2084 00000b8c 029442E6             LDW     .D2T2   *+B5(8),B5        ; |294| 
    2085 00000b90 00006000             NOP             4
    2086 00000b94 0214A2F6             STW     .D2T2   B4,*+B5(20)       ; |294| 
    2087 00000b98 00002000             NOP             2
    2088                            .dwpsn  "_iic.c",297,5
    2089 00000b9c 01800028!            MVKL    .S1     _I2C_start,A3     ; |297| 
    2090 00000ba0 01800068!            MVKH    .S1     _I2C_start,A3     ; |297| 
TMS320C6x COFF Assembler PC v5.1.0 Fri Jan 07 14:23:25 2011

Tools Copyright (c) 1996-2005 Texas Instruments Incorporated
C:\DOCUME~1\yqhe\LOCALS~1\Temp\TI3722                                PAGE   39

    2091 00000ba4 000C1362             CALL    .S2X    A3                ; |297| 
    2092 00000ba8 023C22E4             LDW     .D2T1   *+SP(4),A4        ; |297| 
    2093 00000bac 01846162             ADDKPC  .S2     RL44,B3,3         ; |297| 
    2094                    RL44:      ; CALL OCCURS {_I2C_start}        ; |297| 
    2095                    
    2096                    DW$168  .dwtag  DW_TAG_lexical_block, DW_AT_low_pc(0x00), DW_AT_high_pc(0x00)
    2097                    DW$169  .dwtag  DW_TAG_variable, DW_AT_name("j"), DW_AT_symbol_name("_j")
    2098                            .dwattr DW$169, DW_AT_type(*DW$T$42)
    2099                            .dwattr DW$169, DW_AT_location[DW_OP_breg31 60]
    2100                            .dwpsn  "_iic.c",299,4
    2101 00000bb0 0200A35A             ZERO    .L2     B4                ; |299| 
    2102 00000bb4 023DE2F6             STW     .D2T2   B4,*+SP(60)       ; |299| 
    2103 00000bb8 023DE2E6             LDW     .D2T2   *+SP(60),B4       ; |299| 
    2104 00000bbc 00004000             NOP             3
    2105 00000bc0 0281F42A             MVK     .S2     1000,B5           ; |299| 
    2106 00000bc4 00148AFA             CMPLT   .L2     B4,B5,B0          ; |299| 
    2107 00000bc8 300BA120     [!B0]   BNOP    .S1     L62,5             ; |299| 
    2108                               ; BRANCHCC OCCURS {L62}           ; |299| 
    2109                    ;*----------------------------------------------------------------------------*
    2110                    ;*   SOFTWARE PIPELINE INFORMATION
    2111                    ;*      Disqualified loop: Software pipelining disabled
    2112                    ;*----------------------------------------------------------------------------*
    2113 00000bcc           L61:    
    2114 00000bcc           DW$L$__IIC_read_rev$6$B:
    2115 00000bcc 023DE2E6             LDW     .D2T2   *+SP(60),B4       ; |299| 
    2116 00000bd0 00006000             NOP             4
    2117 00000bd4 0210205A             ADD     .L2     1,B4,B4           ; |299| 
    2118 00000bd8 023DE2F6             STW     .D2T2   B4,*+SP(60)       ; |299| 
    2119 00000bdc 023DE2E6             LDW     .D2T2   *+SP(60),B4       ; |299| 
    2120 00000be0 00006000             NOP             4
    2121 00000be4 00148AFA             CMPLT   .L2     B4,B5,B0          ; |299| 
    2122 00000be8 2FFBA120     [ B0]   BNOP    .S1     L61,5             ; |299| 
    2123                               ; BRANCHCC OCCURS {L61}           ; |299| 
    2124                    DW$L$__IIC_read_rev$6$E:
    2125                    ;** --------------------------------------------------------------------------*
    2126                    L62:    
    2127                            .dwendtag DW$168
    2128                    
    2129                            .dwpsn  "_iic.c",303,9
    2130 00000bec 0200A35A             ZERO    .L2     B4                ; |303| 
    2131 00000bf0 023CC2F6             STW     .D2T2   B4,*+SP(24)       ; |303| 
    2132 00000bf4 00002000             NOP             2
    2133                            .dwpsn  "_iic.c",303,16
    2134 00000bf8 023D4286             LDHU    .D2T2   *+SP(20),B4       ; |303| 
    2135 00000bfc 02BCC2E6             LDW     .D2T2   *+SP(24),B5       ; |303| 
    2136 00000c00 00006000             NOP             4
    2137 00000c04 0010AAFA             CMPLT   .L2     B5,B4,B0          ; |303| 
    2138 00000c08 3035A120     [!B0]   BNOP    .S1     L68,5             ; |303| 
    2139                               ; BRANCHCC OCCURS {L68}           ; |303| 
    2140                    ;** --------------------------------------------------------------------------*
    2141                    ;**   BEGIN LOOP L63
    2142                    ;** --------------------------------------------------------------------------*
    2143                    L63:    
    2144                    DW$L$__IIC_read_rev$8$B:
    2145                            .dwpsn  "_iic.c",304,15
TMS320C6x COFF Assembler PC v5.1.0 Fri Jan 07 14:23:25 2011

Tools Copyright (c) 1996-2005 Texas Instruments Incorporated
C:\DOCUME~1\yqhe\LOCALS~1\Temp\TI3722                                PAGE   40

    2146 00000c0c 0200002A!            MVKL    .S2     _I2C_rrdy,B4      ; |304| 
    2147 00000c10 0200006A!            MVKH    .S2     _I2C_rrdy,B4      ; |304| 
    2148 00000c14 00100362             CALL    .S2     B4                ; |304| 
    2149 00000c18 023C22E4             LDW     .D2T1   *+SP(4),A4        ; |304| 
    2150 00000c1c 01886162             ADDKPC  .S2     RL45,B3,3         ; |304| 
    2151 00000c20           RL45:      ; CALL OCCURS {_I2C_rrdy}         ; |304| 
    2152 00000c20 00100FD8             MV      .L1     A4,A0             ; |304| 
    2153 00000c24 C009A120     [ A0]   BNOP    .S1     L65,5             ; |304| 
    2154                               ; BRANCHCC OCCURS {L65}           ; |304| 
    2155 00000c28           DW$L$__IIC_read_rev$8$E:
    2156                    ;*----------------------------------------------------------------------------*
    2157                    ;*   SOFTWARE PIPELINE INFORMATION
    2158                    ;*      Disqualified loop: Software pipelining disabled
    2159                    ;*----------------------------------------------------------------------------*
    2160 00000c28           L64:    
    2161 00000c28           DW$L$__IIC_read_rev$9$B:
    2162 00000c28 0200002A!            MVKL    .S2     _I2C_rrdy,B4      ; |304| 
    2163 00000c2c 0200006A!            MVKH    .S2     _I2C_rrdy,B4      ; |304| 
    2164 00000c30 00100362             CALL    .S2     B4                ; |304| 
    2165 00000c34 023C22E4             LDW     .D2T1   *+SP(4),A4        ; |304| 
    2166 00000c38 01876162             ADDKPC  .S2     RL46,B3,3         ; |304| 
    2167 00000c3c           RL46:      ; CALL OCCURS {_I2C_rrdy}         ; |304| 
    2168 00000c3c 00100FD8             MV      .L1     A4,A0             ; |304| 
    2169 00000c40 DFFAA120     [!A0]   BNOP    .S1     L64,5             ; |304| 
    2170                               ; BRANCHCC OCCURS {L64}           ; |304| 
    2171                    DW$L$__IIC_read_rev$9$E:
    2172                    ;** --------------------------------------------------------------------------*
    2173                    L65:    
    2174                    DW$L$__IIC_read_rev$10$B:
    2175                            .dwpsn  "_iic.c",305,9
    2176 00000c44 01800028!            MVKL    .S1     _I2C_readByte,A3  ; |305| 
    2177 00000c48 01800068!            MVKH    .S1     _I2C_readByte,A3  ; |305| 
    2178 00000c4c 000C1362             CALL    .S2X    A3                ; |305| 
    2179 00000c50 023C22E4             LDW     .D2T1   *+SP(4),A4        ; |305| 
    2180 00000c54 01866162             ADDKPC  .S2     RL47,B3,3         ; |305| 
    2181 00000c58           RL47:      ; CALL OCCURS {_I2C_readByte}     ; |305| 
    2182 00000c58 02BC82E6             LDW     .D2T2   *+SP(16),B5       ; |305| 
    2183 00000c5c 00006000             NOP             4
    2184 00000c60 0217E05A             SUB     .L2     B5,1,B4           ; |305| 
    2185 00000c64 023C82F6             STW     .D2T2   B4,*+SP(16)       ; |305| 
    2186 00000c68 021402B4             STB     .D2T1   A4,*B5            ; |305| 
    2187 00000c6c 00002000             NOP             2
    2188                    
    2189                    DW$170  .dwtag  DW_TAG_lexical_block, DW_AT_low_pc(0x00), DW_AT_high_pc(0x00)
    2190                    DW$171  .dwtag  DW_TAG_variable, DW_AT_name("j"), DW_AT_symbol_name("_j")
    2191                            .dwattr DW$171, DW_AT_type(*DW$T$42)
    2192                            .dwattr DW$171, DW_AT_location[DW_OP_breg31 60]
    2193                            .dwpsn  "_iic.c",306,7
    2194 00000c70 0200A35A             ZERO    .L2     B4                ; |306| 
    2195 00000c74 023DE2F6             STW     .D2T2   B4,*+SP(60)       ; |306| 
    2196 00000c78 023DE2E6             LDW     .D2T2   *+SP(60),B4       ; |306| 
    2197 00000c7c 00004000             NOP             3
    2198 00000c80 0281F42A             MVK     .S2     1000,B5           ; |306| 
    2199 00000c84 00148AFA             CMPLT   .L2     B4,B5,B0          ; |306| 
    2200 00000c88 300BA120     [!B0]   BNOP    .S1     L67,5             ; |306| 
TMS320C6x COFF Assembler PC v5.1.0 Fri Jan 07 14:23:25 2011

Tools Copyright (c) 1996-2005 Texas Instruments Incorporated
C:\DOCUME~1\yqhe\LOCALS~1\Temp\TI3722                                PAGE   41

    2201                               ; BRANCHCC OCCURS {L67}           ; |306| 
    2202 00000c8c           DW$L$__IIC_read_rev$10$E:
    2203                    ;*----------------------------------------------------------------------------*
    2204                    ;*   SOFTWARE PIPELINE INFORMATION
    2205                    ;*      Disqualified loop: Software pipelining disabled
    2206                    ;*----------------------------------------------------------------------------*
    2207 00000c8c           L66:    
    2208 00000c8c           DW$L$__IIC_read_rev$11$B:
    2209 00000c8c 023DE2E6             LDW     .D2T2   *+SP(60),B4       ; |306| 
    2210 00000c90 00006000             NOP             4
    2211 00000c94 0210205A             ADD     .L2     1,B4,B4           ; |306| 
    2212 00000c98 023DE2F6             STW     .D2T2   B4,*+SP(60)       ; |306| 
    2213 00000c9c 023DE2E6             LDW     .D2T2   *+SP(60),B4       ; |306| 
    2214 00000ca0 00006000             NOP             4
    2215 00000ca4 00148AFA             CMPLT   .L2     B4,B5,B0          ; |306| 
    2216 00000ca8 2FFBA120     [ B0]   BNOP    .S1     L66,5             ; |306| 
    2217                               ; BRANCHCC OCCURS {L66}           ; |306| 
    2218                    DW$L$__IIC_read_rev$11$E:
    2219                    ;** --------------------------------------------------------------------------*
    2220                    L67:    
    2221                    DW$L$__IIC_read_rev$12$B:
    2222                            .dwendtag DW$170
    2223                    
    2224                            .dwpsn  "_iic.c",303,30
    2225 00000cac 023CC2E6             LDW     .D2T2   *+SP(24),B4       ; |303| 
    2226 00000cb0 00006000             NOP             4
    2227 00000cb4 0210205A             ADD     .L2     1,B4,B4           ; |303| 
    2228 00000cb8 023CC2F6             STW     .D2T2   B4,*+SP(24)       ; |303| 
    2229 00000cbc 00002000             NOP             2
    2230                            .dwpsn  "_iic.c",303,16
    2231 00000cc0 023D4286             LDHU    .D2T2   *+SP(20),B4       ; |303| 
    2232 00000cc4 02BCC2E6             LDW     .D2T2   *+SP(24),B5       ; |303| 
    2233 00000cc8 00006000             NOP             4
    2234 00000ccc 0010AAFA             CMPLT   .L2     B5,B4,B0          ; |303| 
    2235 00000cd0 2FD3A120     [ B0]   BNOP    .S1     L63,5             ; |303| 
    2236                               ; BRANCHCC OCCURS {L63}           ; |303| 
    2237                    DW$L$__IIC_read_rev$12$E:
    2238                    ;** --------------------------------------------------------------------------*
    2239                    L68:    
    2240                            .dwpsn  "_iic.c",310,5
    2241 00000cd4 01800028!            MVKL    .S1     _I2C_sendStop,A3  ; |310| 
    2242 00000cd8 01800068!            MVKH    .S1     _I2C_sendStop,A3  ; |310| 
    2243 00000cdc 000C1362             CALL    .S2X    A3                ; |310| 
    2244 00000ce0 023C22E4             LDW     .D2T1   *+SP(4),A4        ; |310| 
    2245 00000ce4 01826162             ADDKPC  .S2     RL48,B3,3         ; |310| 
    2246                    RL48:      ; CALL OCCURS {_I2C_sendStop}     ; |310| 
    2247                    
    2248                    DW$172  .dwtag  DW_TAG_lexical_block, DW_AT_low_pc(0x00), DW_AT_high_pc(0x00)
    2249                    DW$173  .dwtag  DW_TAG_variable, DW_AT_name("j"), DW_AT_symbol_name("_j")
    2250                            .dwattr DW$173, DW_AT_type(*DW$T$42)
    2251                            .dwattr DW$173, DW_AT_location[DW_OP_breg31 60]
    2252                            .dwpsn  "_iic.c",312,5
    2253 00000ce8 0200A35A             ZERO    .L2     B4                ; |312| 
    2254 00000cec 023DE2F6             STW     .D2T2   B4,*+SP(60)       ; |312| 
    2255 00000cf0 023DE2E6             LDW     .D2T2   *+SP(60),B4       ; |312| 
TMS320C6x COFF Assembler PC v5.1.0 Fri Jan 07 14:23:25 2011

Tools Copyright (c) 1996-2005 Texas Instruments Incorporated
C:\DOCUME~1\yqhe\LOCALS~1\Temp\TI3722                                PAGE   42

    2256 00000cf4 00004000             NOP             3
    2257 00000cf8 0281F42A             MVK     .S2     1000,B5           ; |312| 
    2258 00000cfc 00148AFA             CMPLT   .L2     B4,B5,B0          ; |312| 
    2259 00000d00 3009A120     [!B0]   BNOP    .S1     L70,5             ; |312| 
    2260                               ; BRANCHCC OCCURS {L70}           ; |312| 
    2261                    ;*----------------------------------------------------------------------------*
    2262                    ;*   SOFTWARE PIPELINE INFORMATION
    2263                    ;*      Disqualified loop: Software pipelining disabled
    2264                    ;*----------------------------------------------------------------------------*
    2265 00000d04           L69:    
    2266 00000d04           DW$L$__IIC_read_rev$14$B:
    2267 00000d04 023DE2E6             LDW     .D2T2   *+SP(60),B4       ; |312| 
    2268 00000d08 00006000             NOP             4
    2269 00000d0c 0210205A             ADD     .L2     1,B4,B4           ; |312| 
    2270 00000d10 023DE2F6             STW     .D2T2   B4,*+SP(60)       ; |312| 
    2271 00000d14 023DE2E6             LDW     .D2T2   *+SP(60),B4       ; |312| 
    2272 00000d18 00006000             NOP             4
    2273 00000d1c 00148AFA             CMPLT   .L2     B4,B5,B0          ; |312| 
    2274 00000d20 2FF9A120     [ B0]   BNOP    .S1     L69,5             ; |312| 
    2275                               ; BRANCHCC OCCURS {L69}           ; |312| 
    2276                    DW$L$__IIC_read_rev$14$E:
    2277                    ;** --------------------------------------------------------------------------*
    2278                    L70:    
    2279                            .dwendtag DW$172
    2280                    
    2281                            .dwpsn  "_iic.c",314,5
    2282 00000d24 0200002A!            MVKL    .S2     _I2C_bb,B4        ; |314| 
    2283 00000d28 0200006A!            MVKH    .S2     _I2C_bb,B4        ; |314| 
    2284 00000d2c 00100362             CALL    .S2     B4                ; |314| 
    2285 00000d30 023C22E4             LDW     .D2T1   *+SP(4),A4        ; |314| 
    2286 00000d34 01866162             ADDKPC  .S2     RL49,B3,3         ; |314| 
    2287 00000d38           RL49:      ; CALL OCCURS {_I2C_bb}           ; |314| 
    2288 00000d38 00100FD8             MV      .L1     A4,A0             ; |314| 
    2289 00000d3c D00FA120     [!A0]   BNOP    .S1     L72,5             ; |314| 
    2290                               ; BRANCHCC OCCURS {L72}           ; |314| 
    2291                    ;*----------------------------------------------------------------------------*
    2292                    ;*   SOFTWARE PIPELINE INFORMATION
    2293                    ;*      Disqualified loop: Software pipelining disabled
    2294                    ;*----------------------------------------------------------------------------*
    2295 00000d40           L71:    
    2296 00000d40           DW$L$__IIC_read_rev$16$B:
    2297 00000d40 0200002A!            MVKL    .S2     _I2C_bb,B4        ; |314| 
    2298 00000d44 0200006A!            MVKH    .S2     _I2C_bb,B4        ; |314| 
    2299 00000d48 00100362             CALL    .S2     B4                ; |314| 
    2300 00000d4c 023C22E4             LDW     .D2T1   *+SP(4),A4        ; |314| 
    2301 00000d50 01856162             ADDKPC  .S2     RL50,B3,3         ; |314| 
    2302 00000d54           RL50:      ; CALL OCCURS {_I2C_bb}           ; |314| 
    2303 00000d54 00100FD8             MV      .L1     A4,A0             ; |314| 
    2304 00000d58 C000A120     [ A0]   BNOP    .S1     L71,5             ; |314| 
    2305                               ; BRANCHCC OCCURS {L71}           ; |314| 
    2306                    DW$L$__IIC_read_rev$16$E:
    2307                    ;** --------------------------------------------------------------------------*
    2308                    L72:    
    2309                    
    2310                    DW$174  .dwtag  DW_TAG_lexical_block, DW_AT_low_pc(0x00), DW_AT_high_pc(0x00)
TMS320C6x COFF Assembler PC v5.1.0 Fri Jan 07 14:23:25 2011

Tools Copyright (c) 1996-2005 Texas Instruments Incorporated
C:\DOCUME~1\yqhe\LOCALS~1\Temp\TI3722                                PAGE   43

    2311                    DW$175  .dwtag  DW_TAG_variable, DW_AT_name("j"), DW_AT_symbol_name("_j")
    2312                            .dwattr DW$175, DW_AT_type(*DW$T$42)
    2313                            .dwattr DW$175, DW_AT_location[DW_OP_breg31 60]
    2314                            .dwpsn  "_iic.c",316,5
    2315 00000d5c 0200A35A             ZERO    .L2     B4                ; |316| 
    2316 00000d60 023DE2F6             STW     .D2T2   B4,*+SP(60)       ; |316| 
    2317 00000d64 023DE2E6             LDW     .D2T2   *+SP(60),B4       ; |316| 
    2318 00000d68 00004000             NOP             3
    2319 00000d6c 0281F42A             MVK     .S2     1000,B5           ; |316| 
    2320 00000d70 00148AFA             CMPLT   .L2     B4,B5,B0          ; |316| 
    2321 00000d74 300EA120     [!B0]   BNOP    .S1     L74,5             ; |316| 
    2322                               ; BRANCHCC OCCURS {L74}           ; |316| 
    2323                    ;*----------------------------------------------------------------------------*
    2324                    ;*   SOFTWARE PIPELINE INFORMATION
    2325                    ;*      Disqualified loop: Software pipelining disabled
    2326                    ;*----------------------------------------------------------------------------*
    2327 00000d78           L73:    
    2328 00000d78           DW$L$__IIC_read_rev$18$B:
    2329 00000d78 023DE2E6             LDW     .D2T2   *+SP(60),B4       ; |316| 
    2330 00000d7c 00006000             NOP             4
    2331 00000d80 0210205A             ADD     .L2     1,B4,B4           ; |316| 
    2332 00000d84 023DE2F6             STW     .D2T2   B4,*+SP(60)       ; |316| 
    2333 00000d88 023DE2E6             LDW     .D2T2   *+SP(60),B4       ; |316| 
    2334 00000d8c 00006000             NOP             4
    2335 00000d90 00148AFA             CMPLT   .L2     B4,B5,B0          ; |316| 
    2336 00000d94 2FFEA120     [ B0]   BNOP    .S1     L73,5             ; |316| 
    2337                               ; BRANCHCC OCCURS {L73}           ; |316| 
    2338                    DW$L$__IIC_read_rev$18$E:
    2339                    ;** --------------------------------------------------------------------------*
    2340                    L74:    
    2341                            .dwendtag DW$174
    2342                    
    2343                            .dwpsn  "_iic.c",320,5
    2344 00000d98 01800028!            MVKL    .S1     _I2C_config,A3    ; |320| 
    2345 00000d9c 01800068!            MVKH    .S1     _I2C_config,A3    ; |320| 
    2346 00000da0 000C1362             CALL    .S2X    A3                ; |320| 
    2347 00000da4 023C22E4             LDW     .D2T1   *+SP(4),A4        ; |320| 
    2348 00000da8 01844162             ADDKPC  .S2     RL51,B3,2         ; |320| 
    2349 00000dac 023F8942             ADD     .D2     SP,28,B4          ; |320| 
    2350                    RL51:      ; CALL OCCURS {_I2C_config}       ; |320| 
    2351                    
    2352                    DW$176  .dwtag  DW_TAG_lexical_block, DW_AT_low_pc(0x00), DW_AT_high_pc(0x00)
    2353                    DW$177  .dwtag  DW_TAG_variable, DW_AT_name("j"), DW_AT_symbol_name("_j")
    2354                            .dwattr DW$177, DW_AT_type(*DW$T$42)
    2355                            .dwattr DW$177, DW_AT_location[DW_OP_breg31 60]
    2356                            .dwpsn  "_iic.c",322,5
    2357 00000db0 0200A35A             ZERO    .L2     B4                ; |322| 
    2358 00000db4 023DE2F6             STW     .D2T2   B4,*+SP(60)       ; |322| 
    2359 00000db8 02BDE2E6             LDW     .D2T2   *+SP(60),B5       ; |322| 
    2360 00000dbc 00004000             NOP             3
    2361 00000dc0 0F81F42A             MVK     .S2     1000,B31          ; |322| 
    2362 00000dc4 007CAAFA             CMPLT   .L2     B5,B31,B0         ; |322| 
    2363 00000dc8 300CA120     [!B0]   BNOP    .S1     L76,5             ; |322| 
    2364                               ; BRANCHCC OCCURS {L76}           ; |322| 
    2365                    ;*----------------------------------------------------------------------------*
TMS320C6x COFF Assembler PC v5.1.0 Fri Jan 07 14:23:25 2011

Tools Copyright (c) 1996-2005 Texas Instruments Incorporated
C:\DOCUME~1\yqhe\LOCALS~1\Temp\TI3722                                PAGE   44

    2366                    ;*   SOFTWARE PIPELINE INFORMATION
    2367                    ;*      Disqualified loop: Software pipelining disabled
    2368                    ;*----------------------------------------------------------------------------*
    2369 00000dcc           L75:    
    2370 00000dcc           DW$L$__IIC_read_rev$20$B:
    2371 00000dcc 023DE2E6             LDW     .D2T2   *+SP(60),B4       ; |322| 
    2372 00000dd0 00004000             NOP             3
    2373 00000dd4 0281F42A             MVK     .S2     1000,B5           ; |322| 
    2374 00000dd8 0210205A             ADD     .L2     1,B4,B4           ; |322| 
    2375 00000ddc 023DE2F6             STW     .D2T2   B4,*+SP(60)       ; |322| 
    2376 00000de0 023DE2E6             LDW     .D2T2   *+SP(60),B4       ; |322| 
    2377 00000de4 00006000             NOP             4
    2378 00000de8 00148AFA             CMPLT   .L2     B4,B5,B0          ; |322| 
    2379 00000dec 2FFBA120     [ B0]   BNOP    .S1     L75,5             ; |322| 
    2380                               ; BRANCHCC OCCURS {L75}           ; |322| 
    2381                    DW$L$__IIC_read_rev$20$E:
    2382                    ;** --------------------------------------------------------------------------*
    2383                            .dwendtag DW$176
    2384                    
    2385                    ;** --------------------------------------------------------------------------*
    2386                    L76:    
    2387                            .dwpsn  "_iic.c",323,1
    2388 00000df0 01BE12E6             LDW     .D2T2   *++SP(64),B3      ; |323| 
    2389 00000df4 00006000             NOP             4
    2390                            .dwcfa  0xc0, 19
    2391                            .dwcfa  0x0e, 0
    2392 00000df8 008CA362             RETNOP  .S2     B3,5              ; |323| 
    2393                               ; BRANCH OCCURS {B3}              ; |323| 
    2394                    
    2395                    DW$178  .dwtag  DW_TAG_loop
    2396                            .dwattr DW$178, DW_AT_name("C:\DOCUME~1\yqhe\LOCALS~1\Temp\TI3722:L75:1:1294381405")
    2397                            .dwattr DW$178, DW_AT_begin_file("_iic.c")
    2398                            .dwattr DW$178, DW_AT_begin_line(0x142)
    2399                            .dwattr DW$178, DW_AT_end_line(0x142)
    2400                    DW$179  .dwtag  DW_TAG_loop_range
    2401                            .dwattr DW$179, DW_AT_low_pc(DW$L$__IIC_read_rev$20$B)
    2402                            .dwattr DW$179, DW_AT_high_pc(DW$L$__IIC_read_rev$20$E)
    2403                            .dwendtag DW$178
    2404                    
    2405                    
    2406                    DW$180  .dwtag  DW_TAG_loop
    2407                            .dwattr DW$180, DW_AT_name("C:\DOCUME~1\yqhe\LOCALS~1\Temp\TI3722:L73:1:1294381405")
    2408                            .dwattr DW$180, DW_AT_begin_file("_iic.c")
    2409                            .dwattr DW$180, DW_AT_begin_line(0x13c)
    2410                            .dwattr DW$180, DW_AT_end_line(0x13c)
    2411                    DW$181  .dwtag  DW_TAG_loop_range
    2412                            .dwattr DW$181, DW_AT_low_pc(DW$L$__IIC_read_rev$18$B)
    2413                            .dwattr DW$181, DW_AT_high_pc(DW$L$__IIC_read_rev$18$E)
    2414                            .dwendtag DW$180
    2415                    
    2416                    
    2417                    DW$182  .dwtag  DW_TAG_loop
    2418                            .dwattr DW$182, DW_AT_name("C:\DOCUME~1\yqhe\LOCALS~1\Temp\TI3722:L71:1:1294381405")
    2419                            .dwattr DW$182, DW_AT_begin_file("_iic.c")
    2420                            .dwattr DW$182, DW_AT_begin_line(0x13a)
TMS320C6x COFF Assembler PC v5.1.0 Fri Jan 07 14:23:25 2011

Tools Copyright (c) 1996-2005 Texas Instruments Incorporated
C:\DOCUME~1\yqhe\LOCALS~1\Temp\TI3722                                PAGE   45

    2421                            .dwattr DW$182, DW_AT_end_line(0x13a)
    2422                    DW$183  .dwtag  DW_TAG_loop_range
    2423                            .dwattr DW$183, DW_AT_low_pc(DW$L$__IIC_read_rev$16$B)
    2424                            .dwattr DW$183, DW_AT_high_pc(DW$L$__IIC_read_rev$16$E)
    2425                            .dwendtag DW$182
    2426                    
    2427                    
    2428                    DW$184  .dwtag  DW_TAG_loop
    2429                            .dwattr DW$184, DW_AT_name("C:\DOCUME~1\yqhe\LOCALS~1\Temp\TI3722:L69:1:1294381405")
    2430                            .dwattr DW$184, DW_AT_begin_file("_iic.c")
    2431                            .dwattr DW$184, DW_AT_begin_line(0x138)
    2432                            .dwattr DW$184, DW_AT_end_line(0x138)
    2433                    DW$185  .dwtag  DW_TAG_loop_range
    2434                            .dwattr DW$185, DW_AT_low_pc(DW$L$__IIC_read_rev$14$B)
    2435                            .dwattr DW$185, DW_AT_high_pc(DW$L$__IIC_read_rev$14$E)
    2436                            .dwendtag DW$184
    2437                    
    2438                    
    2439                    DW$186  .dwtag  DW_TAG_loop
    2440                            .dwattr DW$186, DW_AT_name("C:\DOCUME~1\yqhe\LOCALS~1\Temp\TI3722:L63:1:1294381405")
    2441                            .dwattr DW$186, DW_AT_begin_file("_iic.c")
    2442                            .dwattr DW$186, DW_AT_begin_line(0x12f)
    2443                            .dwattr DW$186, DW_AT_end_line(0x133)
    2444                    DW$187  .dwtag  DW_TAG_loop_range
    2445                            .dwattr DW$187, DW_AT_low_pc(DW$L$__IIC_read_rev$8$B)
    2446                            .dwattr DW$187, DW_AT_high_pc(DW$L$__IIC_read_rev$8$E)
    2447                    DW$188  .dwtag  DW_TAG_loop_range
    2448                            .dwattr DW$188, DW_AT_low_pc(DW$L$__IIC_read_rev$10$B)
    2449                            .dwattr DW$188, DW_AT_high_pc(DW$L$__IIC_read_rev$10$E)
    2450                    DW$189  .dwtag  DW_TAG_loop_range
    2451                            .dwattr DW$189, DW_AT_low_pc(DW$L$__IIC_read_rev$12$B)
    2452                            .dwattr DW$189, DW_AT_high_pc(DW$L$__IIC_read_rev$12$E)
    2453                    
    2454                    DW$190  .dwtag  DW_TAG_loop
    2455                            .dwattr DW$190, DW_AT_name("C:\DOCUME~1\yqhe\LOCALS~1\Temp\TI3722:L64:2:1294381405")
    2456                            .dwattr DW$190, DW_AT_begin_file("_iic.c")
    2457                            .dwattr DW$190, DW_AT_begin_line(0x130)
    2458                            .dwattr DW$190, DW_AT_end_line(0x130)
    2459                    DW$191  .dwtag  DW_TAG_loop_range
    2460                            .dwattr DW$191, DW_AT_low_pc(DW$L$__IIC_read_rev$9$B)
    2461                            .dwattr DW$191, DW_AT_high_pc(DW$L$__IIC_read_rev$9$E)
    2462                            .dwendtag DW$190
    2463                    
    2464                    
    2465                    DW$192  .dwtag  DW_TAG_loop
    2466                            .dwattr DW$192, DW_AT_name("C:\DOCUME~1\yqhe\LOCALS~1\Temp\TI3722:L66:2:1294381405")
    2467                            .dwattr DW$192, DW_AT_begin_file("_iic.c")
    2468                            .dwattr DW$192, DW_AT_begin_line(0x132)
    2469                            .dwattr DW$192, DW_AT_end_line(0x132)
    2470                    DW$193  .dwtag  DW_TAG_loop_range
    2471                            .dwattr DW$193, DW_AT_low_pc(DW$L$__IIC_read_rev$11$B)
    2472                            .dwattr DW$193, DW_AT_high_pc(DW$L$__IIC_read_rev$11$E)
    2473                            .dwendtag DW$192
    2474                    
    2475                            .dwendtag DW$186
TMS320C6x COFF Assembler PC v5.1.0 Fri Jan 07 14:23:25 2011

Tools Copyright (c) 1996-2005 Texas Instruments Incorporated
C:\DOCUME~1\yqhe\LOCALS~1\Temp\TI3722                                PAGE   46

    2476                    
    2477                    
    2478                    DW$194  .dwtag  DW_TAG_loop
    2479                            .dwattr DW$194, DW_AT_name("C:\DOCUME~1\yqhe\LOCALS~1\Temp\TI3722:L61:1:1294381405")
    2480                            .dwattr DW$194, DW_AT_begin_file("_iic.c")
    2481                            .dwattr DW$194, DW_AT_begin_line(0x12b)
    2482                            .dwattr DW$194, DW_AT_end_line(0x12b)
    2483                    DW$195  .dwtag  DW_TAG_loop_range
    2484                            .dwattr DW$195, DW_AT_low_pc(DW$L$__IIC_read_rev$6$B)
    2485                            .dwattr DW$195, DW_AT_high_pc(DW$L$__IIC_read_rev$6$E)
    2486                            .dwendtag DW$194
    2487                    
    2488                    
    2489                    DW$196  .dwtag  DW_TAG_loop
    2490                            .dwattr DW$196, DW_AT_name("C:\DOCUME~1\yqhe\LOCALS~1\Temp\TI3722:L59:1:1294381405")
    2491                            .dwattr DW$196, DW_AT_begin_file("_iic.c")
    2492                            .dwattr DW$196, DW_AT_begin_line(0x120)
    2493                            .dwattr DW$196, DW_AT_end_line(0x120)
    2494                    DW$197  .dwtag  DW_TAG_loop_range
    2495                            .dwattr DW$197, DW_AT_low_pc(DW$L$__IIC_read_rev$4$B)
    2496                            .dwattr DW$197, DW_AT_high_pc(DW$L$__IIC_read_rev$4$E)
    2497                            .dwendtag DW$196
    2498                    
    2499                    
    2500                    DW$198  .dwtag  DW_TAG_loop
    2501                            .dwattr DW$198, DW_AT_name("C:\DOCUME~1\yqhe\LOCALS~1\Temp\TI3722:L57:1:1294381405")
    2502                            .dwattr DW$198, DW_AT_begin_file("_iic.c")
    2503                            .dwattr DW$198, DW_AT_begin_line(0x114)
    2504                            .dwattr DW$198, DW_AT_end_line(0x114)
    2505                    DW$199  .dwtag  DW_TAG_loop_range
    2506                            .dwattr DW$199, DW_AT_low_pc(DW$L$__IIC_read_rev$2$B)
    2507                            .dwattr DW$199, DW_AT_high_pc(DW$L$__IIC_read_rev$2$E)
    2508                            .dwendtag DW$198
    2509                    
    2510                            .dwattr DW$155, DW_AT_end_file("_iic.c")
    2511                            .dwattr DW$155, DW_AT_end_line(0x143)
    2512                            .dwattr DW$155, DW_AT_end_column(0x01)
    2513                            .dwendentry
    2514                            .dwendtag DW$155
    2515                    
    2516                    ;******************************************************************************
    2517                    ;* UNDEFINED EXTERNAL REFERENCES                                              *
    2518                    ;******************************************************************************
    2519                            .global _I2C_rrdy
    2520                            .global _I2C_xrdy
    2521                            .global _I2C_bb
    2522                            .global _I2C_writeByte
    2523                            .global _I2C_readByte
    2524                            .global _I2C_sendStop
    2525                            .global _I2C_start
    2526                            .global _I2C_config
    2527                            .global _I2C_getConfig
    2528                    
    2529                    ;******************************************************************************
    2530                    ;* TYPE INFORMATION                                                           *
TMS320C6x COFF Assembler PC v5.1.0 Fri Jan 07 14:23:25 2011

Tools Copyright (c) 1996-2005 Texas Instruments Incorporated
C:\DOCUME~1\yqhe\LOCALS~1\Temp\TI3722                                PAGE   47

    2531                    ;******************************************************************************
    2532                    
    2533                    DW$T$27 .dwtag  DW_TAG_subroutine_type
    2534                            .dwattr DW$T$27, DW_AT_language(DW_LANG_C)
    2535                    DW$200  .dwtag  DW_TAG_formal_parameter, DW_AT_type(*DW$T$25)
    2536                    DW$201  .dwtag  DW_TAG_formal_parameter, DW_AT_type(*DW$T$26)
    2537                            .dwendtag DW$T$27
    2538                    
    2539                    
    2540                    DW$T$29 .dwtag  DW_TAG_subroutine_type
    2541                            .dwattr DW$T$29, DW_AT_language(DW_LANG_C)
    2542                    DW$202  .dwtag  DW_TAG_formal_parameter, DW_AT_type(*DW$T$25)
    2543                            .dwendtag DW$T$29
    2544                    
    2545                    
    2546                    DW$T$33 .dwtag  DW_TAG_subroutine_type
    2547                            .dwattr DW$T$33, DW_AT_language(DW_LANG_C)
    2548                    DW$203  .dwtag  DW_TAG_formal_parameter, DW_AT_type(*DW$T$25)
    2549                    DW$204  .dwtag  DW_TAG_formal_parameter, DW_AT_type(*DW$T$32)
    2550                            .dwendtag DW$T$33
    2551                    
    2552                    
    2553                    DW$T$37 .dwtag  DW_TAG_subroutine_type
    2554                            .dwattr DW$T$37, DW_AT_language(DW_LANG_C)
    2555                    DW$205  .dwtag  DW_TAG_formal_parameter, DW_AT_type(*DW$T$25)
    2556                    DW$206  .dwtag  DW_TAG_formal_parameter, DW_AT_type(*DW$T$26)
    2557                    DW$207  .dwtag  DW_TAG_formal_parameter, DW_AT_type(*DW$T$19)
    2558                    DW$208  .dwtag  DW_TAG_formal_parameter, DW_AT_type(*DW$T$35)
    2559                    DW$209  .dwtag  DW_TAG_formal_parameter, DW_AT_type(*DW$T$36)
    2560                            .dwendtag DW$T$37
    2561                    
    2562                    DW$T$26 .dwtag  DW_TAG_typedef, DW_AT_name("Uint8"), DW_AT_type(*DW$T$6)
    2563                            .dwattr DW$T$26, DW_AT_language(DW_LANG_C)
    2564                    DW$T$35 .dwtag  DW_TAG_pointer_type, DW_AT_type(*DW$T$26)
    2565                            .dwattr DW$T$35, DW_AT_address_class(0x20)
    2566                    
    2567                    DW$T$39 .dwtag  DW_TAG_subroutine_type, DW_AT_type(*DW$T$26)
    2568                            .dwattr DW$T$39, DW_AT_language(DW_LANG_C)
    2569                    DW$210  .dwtag  DW_TAG_formal_parameter, DW_AT_type(*DW$T$25)
    2570                            .dwendtag DW$T$39
    2571                    
    2572                    DW$T$36 .dwtag  DW_TAG_typedef, DW_AT_name("Uint16"), DW_AT_type(*DW$T$9)
    2573                            .dwattr DW$T$36, DW_AT_language(DW_LANG_C)
    2574                    DW$T$41 .dwtag  DW_TAG_typedef, DW_AT_name("Int"), DW_AT_type(*DW$T$10)
    2575                            .dwattr DW$T$41, DW_AT_language(DW_LANG_C)
    2576                    DW$T$42 .dwtag  DW_TAG_volatile_type
    2577                            .dwattr DW$T$42, DW_AT_type(*DW$T$41)
    2578                    DW$T$19 .dwtag  DW_TAG_typedef, DW_AT_name("Uint32"), DW_AT_type(*DW$T$11)
    2579                            .dwattr DW$T$19, DW_AT_language(DW_LANG_C)
    2580                    
    2581                    DW$T$43 .dwtag  DW_TAG_subroutine_type, DW_AT_type(*DW$T$19)
    2582                            .dwattr DW$T$43, DW_AT_language(DW_LANG_C)
    2583                    DW$211  .dwtag  DW_TAG_formal_parameter, DW_AT_type(*DW$T$25)
    2584                            .dwendtag DW$T$43
    2585                    
TMS320C6x COFF Assembler PC v5.1.0 Fri Jan 07 14:23:25 2011

Tools Copyright (c) 1996-2005 Texas Instruments Incorporated
C:\DOCUME~1\yqhe\LOCALS~1\Temp\TI3722                                PAGE   48

    2586                    DW$T$25 .dwtag  DW_TAG_typedef, DW_AT_name("I2C_Handle"), DW_AT_type(*DW$T$24)
    2587                            .dwattr DW$T$25, DW_AT_language(DW_LANG_C)
    2588                    DW$T$31 .dwtag  DW_TAG_typedef, DW_AT_name("I2C_Config"), DW_AT_type(*DW$T$23)
    2589                            .dwattr DW$T$31, DW_AT_language(DW_LANG_C)
    2590                    DW$T$32 .dwtag  DW_TAG_pointer_type, DW_AT_type(*DW$T$31)
    2591                            .dwattr DW$T$32, DW_AT_address_class(0x20)
    2592                    DW$T$46 .dwtag  DW_TAG_const_type
    2593                            .dwattr DW$T$46, DW_AT_type(*DW$T$31)
    2594                    DW$T$6  .dwtag  DW_TAG_base_type, DW_AT_name("unsigned char")
    2595                            .dwattr DW$T$6, DW_AT_encoding(DW_ATE_unsigned_char)
    2596                            .dwattr DW$T$6, DW_AT_byte_size(0x01)
    2597                    DW$T$9  .dwtag  DW_TAG_base_type, DW_AT_name("unsigned short")
    2598                            .dwattr DW$T$9, DW_AT_encoding(DW_ATE_unsigned)
    2599                            .dwattr DW$T$9, DW_AT_byte_size(0x02)
    2600                    DW$T$10 .dwtag  DW_TAG_base_type, DW_AT_name("int")
    2601                            .dwattr DW$T$10, DW_AT_encoding(DW_ATE_signed)
    2602                            .dwattr DW$T$10, DW_AT_byte_size(0x04)
    2603                    DW$T$11 .dwtag  DW_TAG_base_type, DW_AT_name("unsigned int")
    2604                            .dwattr DW$T$11, DW_AT_encoding(DW_ATE_unsigned)
    2605                            .dwattr DW$T$11, DW_AT_byte_size(0x04)
    2606                    DW$T$24 .dwtag  DW_TAG_pointer_type, DW_AT_type(*DW$T$22)
    2607                            .dwattr DW$T$24, DW_AT_address_class(0x20)
    2608                    
    2609                    DW$T$23 .dwtag  DW_TAG_structure_type
    2610                            .dwattr DW$T$23, DW_AT_byte_size(0x20)
    2611                    DW$212  .dwtag  DW_TAG_member, DW_AT_type(*DW$T$19)
    2612                            .dwattr DW$212, DW_AT_name("i2coar"), DW_AT_symbol_name("_i2coar")
    2613                            .dwattr DW$212, DW_AT_data_member_location[DW_OP_plus_uconst 0x0]
    2614                            .dwattr DW$212, DW_AT_accessibility(DW_ACCESS_public)
    2615                    DW$213  .dwtag  DW_TAG_member, DW_AT_type(*DW$T$19)
    2616                            .dwattr DW$213, DW_AT_name("i2cier"), DW_AT_symbol_name("_i2cier")
    2617                            .dwattr DW$213, DW_AT_data_member_location[DW_OP_plus_uconst 0x4]
    2618                            .dwattr DW$213, DW_AT_accessibility(DW_ACCESS_public)
    2619                    DW$214  .dwtag  DW_TAG_member, DW_AT_type(*DW$T$19)
    2620                            .dwattr DW$214, DW_AT_name("i2cclkl"), DW_AT_symbol_name("_i2cclkl")
    2621                            .dwattr DW$214, DW_AT_data_member_location[DW_OP_plus_uconst 0x8]
    2622                            .dwattr DW$214, DW_AT_accessibility(DW_ACCESS_public)
    2623                    DW$215  .dwtag  DW_TAG_member, DW_AT_type(*DW$T$19)
    2624                            .dwattr DW$215, DW_AT_name("i2cclkh"), DW_AT_symbol_name("_i2cclkh")
    2625                            .dwattr DW$215, DW_AT_data_member_location[DW_OP_plus_uconst 0xc]
    2626                            .dwattr DW$215, DW_AT_accessibility(DW_ACCESS_public)
    2627                    DW$216  .dwtag  DW_TAG_member, DW_AT_type(*DW$T$19)
    2628                            .dwattr DW$216, DW_AT_name("i2ccnt"), DW_AT_symbol_name("_i2ccnt")
    2629                            .dwattr DW$216, DW_AT_data_member_location[DW_OP_plus_uconst 0x10]
    2630                            .dwattr DW$216, DW_AT_accessibility(DW_ACCESS_public)
    2631                    DW$217  .dwtag  DW_TAG_member, DW_AT_type(*DW$T$19)
    2632                            .dwattr DW$217, DW_AT_name("i2csar"), DW_AT_symbol_name("_i2csar")
    2633                            .dwattr DW$217, DW_AT_data_member_location[DW_OP_plus_uconst 0x14]
    2634                            .dwattr DW$217, DW_AT_accessibility(DW_ACCESS_public)
    2635                    DW$218  .dwtag  DW_TAG_member, DW_AT_type(*DW$T$19)
    2636                            .dwattr DW$218, DW_AT_name("i2cmdr"), DW_AT_symbol_name("_i2cmdr")
    2637                            .dwattr DW$218, DW_AT_data_member_location[DW_OP_plus_uconst 0x18]
    2638                            .dwattr DW$218, DW_AT_accessibility(DW_ACCESS_public)
    2639                    DW$219  .dwtag  DW_TAG_member, DW_AT_type(*DW$T$19)
    2640                            .dwattr DW$219, DW_AT_name("i2cpsc"), DW_AT_symbol_name("_i2cpsc")
TMS320C6x COFF Assembler PC v5.1.0 Fri Jan 07 14:23:25 2011

Tools Copyright (c) 1996-2005 Texas Instruments Incorporated
C:\DOCUME~1\yqhe\LOCALS~1\Temp\TI3722                                PAGE   49

    2641                            .dwattr DW$219, DW_AT_data_member_location[DW_OP_plus_uconst 0x1c]
    2642                            .dwattr DW$219, DW_AT_accessibility(DW_ACCESS_public)
    2643                            .dwendtag DW$T$23
    2644                    
    2645                    
    2646                    DW$T$22 .dwtag  DW_TAG_structure_type
    2647                            .dwattr DW$T$22, DW_AT_byte_size(0x14)
    2648                    DW$220  .dwtag  DW_TAG_member, DW_AT_type(*DW$T$19)
    2649                            .dwattr DW$220, DW_AT_name("allocated"), DW_AT_symbol_name("_allocated")
    2650                            .dwattr DW$220, DW_AT_data_member_location[DW_OP_plus_uconst 0x0]
    2651                            .dwattr DW$220, DW_AT_accessibility(DW_ACCESS_public)
    2652                    DW$221  .dwtag  DW_TAG_member, DW_AT_type(*DW$T$19)
    2653                            .dwattr DW$221, DW_AT_name("eventId"), DW_AT_symbol_name("_eventId")
    2654                            .dwattr DW$221, DW_AT_data_member_location[DW_OP_plus_uconst 0x4]
    2655                            .dwattr DW$221, DW_AT_accessibility(DW_ACCESS_public)
    2656                    DW$222  .dwtag  DW_TAG_member, DW_AT_type(*DW$T$21)
    2657                            .dwattr DW$222, DW_AT_name("baseAddr"), DW_AT_symbol_name("_baseAddr")
    2658                            .dwattr DW$222, DW_AT_data_member_location[DW_OP_plus_uconst 0x8]
    2659                            .dwattr DW$222, DW_AT_accessibility(DW_ACCESS_public)
    2660                    DW$223  .dwtag  DW_TAG_member, DW_AT_type(*DW$T$19)
    2661                            .dwattr DW$223, DW_AT_name("i2cdrrAddr"), DW_AT_symbol_name("_i2cdrrAddr")
    2662                            .dwattr DW$223, DW_AT_data_member_location[DW_OP_plus_uconst 0xc]
    2663                            .dwattr DW$223, DW_AT_accessibility(DW_ACCESS_public)
    2664                    DW$224  .dwtag  DW_TAG_member, DW_AT_type(*DW$T$19)
    2665                            .dwattr DW$224, DW_AT_name("i2cdxrAddr"), DW_AT_symbol_name("_i2cdxrAddr")
    2666                            .dwattr DW$224, DW_AT_data_member_location[DW_OP_plus_uconst 0x10]
    2667                            .dwattr DW$224, DW_AT_accessibility(DW_ACCESS_public)
    2668                            .dwendtag DW$T$22
    2669                    
    2670                    DW$T$21 .dwtag  DW_TAG_pointer_type, DW_AT_type(*DW$T$20)
    2671                            .dwattr DW$T$21, DW_AT_address_class(0x20)
    2672                    DW$T$20 .dwtag  DW_TAG_volatile_type
    2673                            .dwattr DW$T$20, DW_AT_type(*DW$T$19)
    2674                    
    2675                            .dwattr DW$67, DW_AT_external(0x01)
    2676                            .dwattr DW$155, DW_AT_external(0x01)
    2677                            .dwattr DW$24, DW_AT_external(0x01)
    2678                            .dwattr DW$112, DW_AT_external(0x01)
    2679                            .dwattr DW$CU, DW_AT_language(DW_LANG_C)
    2680                    
    2681                    ;***************************************************************
    2682                    ;* DWARF CIE ENTRIES                                           *
    2683                    ;***************************************************************
    2684                    
    2685                    DW$CIE  .dwcie 1, 126
    2686                            .dwcfa  0x0c, 31, 0
    2687                            .dwcfa  0x07, 0
    2688                            .dwcfa  0x07, 1
    2689                            .dwcfa  0x07, 2
    2690                            .dwcfa  0x07, 3
    2691                            .dwcfa  0x07, 4
    2692                            .dwcfa  0x07, 5
    2693                            .dwcfa  0x07, 6
    2694                            .dwcfa  0x07, 7
    2695                            .dwcfa  0x07, 8
TMS320C6x COFF Assembler PC v5.1.0 Fri Jan 07 14:23:25 2011

Tools Copyright (c) 1996-2005 Texas Instruments Incorporated
C:\DOCUME~1\yqhe\LOCALS~1\Temp\TI3722                                PAGE   50

    2696                            .dwcfa  0x07, 9
    2697                            .dwcfa  0x08, 10
    2698                            .dwcfa  0x08, 11
    2699                            .dwcfa  0x08, 12
    2700                            .dwcfa  0x08, 13
    2701                            .dwcfa  0x08, 14
    2702                            .dwcfa  0x08, 15
    2703                            .dwcfa  0x07, 16
    2704                            .dwcfa  0x07, 17
    2705                            .dwcfa  0x07, 18
    2706                            .dwcfa  0x07, 19
    2707                            .dwcfa  0x07, 20
    2708                            .dwcfa  0x07, 21
    2709                            .dwcfa  0x07, 22
    2710                            .dwcfa  0x07, 23
    2711                            .dwcfa  0x07, 24
    2712                            .dwcfa  0x07, 25
    2713                            .dwcfa  0x08, 26
    2714                            .dwcfa  0x08, 27
    2715                            .dwcfa  0x08, 28
    2716                            .dwcfa  0x08, 29
    2717                            .dwcfa  0x08, 30
    2718                            .dwcfa  0x08, 31
    2719                            .dwcfa  0x08, 32
    2720                            .dwcfa  0x07, 33
    2721                            .dwcfa  0x07, 34
    2722                            .dwcfa  0x07, 35
    2723                            .dwcfa  0x07, 36
    2724                            .dwcfa  0x07, 37
    2725                            .dwcfa  0x07, 38
    2726                            .dwcfa  0x07, 39
    2727                            .dwcfa  0x07, 40
    2728                            .dwcfa  0x07, 41
    2729                            .dwcfa  0x07, 42
    2730                            .dwcfa  0x07, 43
    2731                            .dwcfa  0x07, 44
    2732                            .dwcfa  0x07, 45
    2733                            .dwcfa  0x07, 46
    2734                            .dwcfa  0x07, 47
    2735                            .dwcfa  0x07, 48
    2736                            .dwcfa  0x07, 49
    2737                            .dwcfa  0x07, 50
    2738                            .dwcfa  0x07, 51
    2739                            .dwcfa  0x07, 52
    2740                            .dwcfa  0x07, 53
    2741                            .dwcfa  0x07, 54
    2742                            .dwcfa  0x07, 55
    2743                            .dwcfa  0x07, 56
    2744                            .dwcfa  0x07, 57
    2745                            .dwcfa  0x07, 58
    2746                            .dwcfa  0x07, 59
    2747                            .dwcfa  0x07, 60
    2748                            .dwcfa  0x07, 61
    2749                            .dwcfa  0x07, 62
    2750                            .dwcfa  0x07, 63
TMS320C6x COFF Assembler PC v5.1.0 Fri Jan 07 14:23:25 2011

Tools Copyright (c) 1996-2005 Texas Instruments Incorporated
C:\DOCUME~1\yqhe\LOCALS~1\Temp\TI3722                                PAGE   51

    2751                            .dwcfa  0x07, 64
    2752                            .dwcfa  0x07, 65
    2753                            .dwcfa  0x07, 66
    2754                            .dwcfa  0x07, 67
    2755                            .dwcfa  0x07, 68
    2756                            .dwcfa  0x07, 69
    2757                            .dwcfa  0x07, 70
    2758                            .dwcfa  0x07, 71
    2759                            .dwcfa  0x07, 72
    2760                            .dwcfa  0x07, 73
    2761                            .dwcfa  0x07, 74
    2762                            .dwcfa  0x07, 75
    2763                            .dwcfa  0x07, 76
    2764                            .dwcfa  0x07, 77
    2765                            .dwcfa  0x07, 78
    2766                            .dwcfa  0x07, 79
    2767                            .dwcfa  0x07, 80
    2768                            .dwcfa  0x07, 81
    2769                            .dwcfa  0x07, 82
    2770                            .dwcfa  0x07, 83
    2771                            .dwcfa  0x07, 84
    2772                            .dwcfa  0x07, 85
    2773                            .dwcfa  0x07, 86
    2774                            .dwcfa  0x07, 87
    2775                            .dwcfa  0x07, 88
    2776                            .dwcfa  0x07, 89
    2777                            .dwcfa  0x07, 90
    2778                            .dwcfa  0x07, 91
    2779                            .dwcfa  0x07, 92
    2780                            .dwcfa  0x07, 93
    2781                            .dwcfa  0x07, 94
    2782                            .dwcfa  0x07, 95
    2783                            .dwcfa  0x07, 96
    2784                            .dwcfa  0x07, 97
    2785                            .dwcfa  0x07, 98
    2786                            .dwcfa  0x07, 99
    2787                            .dwcfa  0x07, 100
    2788                            .dwcfa  0x07, 101
    2789                            .dwcfa  0x07, 102
    2790                            .dwcfa  0x07, 103
    2791                            .dwcfa  0x07, 104
    2792                            .dwcfa  0x07, 105
    2793                            .dwcfa  0x07, 106
    2794                            .dwcfa  0x07, 107
    2795                            .dwcfa  0x07, 108
    2796                            .dwcfa  0x07, 109
    2797                            .dwcfa  0x07, 110
    2798                            .dwcfa  0x07, 111
    2799                            .dwcfa  0x07, 112
    2800                            .dwcfa  0x07, 113
    2801                            .dwcfa  0x07, 114
    2802                            .dwcfa  0x07, 115
    2803                            .dwcfa  0x07, 116
    2804                            .dwcfa  0x07, 117
    2805                            .dwcfa  0x07, 118
TMS320C6x COFF Assembler PC v5.1.0 Fri Jan 07 14:23:25 2011

Tools Copyright (c) 1996-2005 Texas Instruments Incorporated
C:\DOCUME~1\yqhe\LOCALS~1\Temp\TI3722                                PAGE   52

    2806                            .dwcfa  0x07, 119
    2807                            .dwcfa  0x07, 120
    2808                            .dwcfa  0x07, 121
    2809                            .dwcfa  0x07, 122
    2810                            .dwcfa  0x07, 123
    2811                            .dwcfa  0x07, 124
    2812                            .dwcfa  0x07, 125
    2813                            .dwcfa  0x07, 126
    2814                    
    2815                    ;***************************************************************
    2816                    ;* DWARF REGISTER MAP                                          *
    2817                    ;***************************************************************
    2818                    
    2819                    DW$225  .dwtag  DW_TAG_assign_register, DW_AT_name("A0")
    2820                            .dwattr DW$225, DW_AT_location[DW_OP_reg0]
    2821                    DW$226  .dwtag  DW_TAG_assign_register, DW_AT_name("A1")
    2822                            .dwattr DW$226, DW_AT_location[DW_OP_reg1]
    2823                    DW$227  .dwtag  DW_TAG_assign_register, DW_AT_name("A2")
    2824                            .dwattr DW$227, DW_AT_location[DW_OP_reg2]
    2825                    DW$228  .dwtag  DW_TAG_assign_register, DW_AT_name("A3")
    2826                            .dwattr DW$228, DW_AT_location[DW_OP_reg3]
    2827                    DW$229  .dwtag  DW_TAG_assign_register, DW_AT_name("A4")
    2828                            .dwattr DW$229, DW_AT_location[DW_OP_reg4]
    2829                    DW$230  .dwtag  DW_TAG_assign_register, DW_AT_name("A5")
    2830                            .dwattr DW$230, DW_AT_location[DW_OP_reg5]
    2831                    DW$231  .dwtag  DW_TAG_assign_register, DW_AT_name("A6")
    2832                            .dwattr DW$231, DW_AT_location[DW_OP_reg6]
    2833                    DW$232  .dwtag  DW_TAG_assign_register, DW_AT_name("A7")
    2834                            .dwattr DW$232, DW_AT_location[DW_OP_reg7]
    2835                    DW$233  .dwtag  DW_TAG_assign_register, DW_AT_name("A8")
    2836                            .dwattr DW$233, DW_AT_location[DW_OP_reg8]
    2837                    DW$234  .dwtag  DW_TAG_assign_register, DW_AT_name("A9")
    2838                            .dwattr DW$234, DW_AT_location[DW_OP_reg9]
    2839                    DW$235  .dwtag  DW_TAG_assign_register, DW_AT_name("A10")
    2840                            .dwattr DW$235, DW_AT_location[DW_OP_reg10]
    2841                    DW$236  .dwtag  DW_TAG_assign_register, DW_AT_name("A11")
    2842                            .dwattr DW$236, DW_AT_location[DW_OP_reg11]
    2843                    DW$237  .dwtag  DW_TAG_assign_register, DW_AT_name("A12")
    2844                            .dwattr DW$237, DW_AT_location[DW_OP_reg12]
    2845                    DW$238  .dwtag  DW_TAG_assign_register, DW_AT_name("A13")
    2846                            .dwattr DW$238, DW_AT_location[DW_OP_reg13]
    2847                    DW$239  .dwtag  DW_TAG_assign_register, DW_AT_name("A14")
    2848                            .dwattr DW$239, DW_AT_location[DW_OP_reg14]
    2849                    DW$240  .dwtag  DW_TAG_assign_register, DW_AT_name("A15")
    2850                            .dwattr DW$240, DW_AT_location[DW_OP_reg15]
    2851                    DW$241  .dwtag  DW_TAG_assign_register, DW_AT_name("B0")
    2852                            .dwattr DW$241, DW_AT_location[DW_OP_reg16]
    2853                    DW$242  .dwtag  DW_TAG_assign_register, DW_AT_name("B1")
    2854                            .dwattr DW$242, DW_AT_location[DW_OP_reg17]
    2855                    DW$243  .dwtag  DW_TAG_assign_register, DW_AT_name("B2")
    2856                            .dwattr DW$243, DW_AT_location[DW_OP_reg18]
    2857                    DW$244  .dwtag  DW_TAG_assign_register, DW_AT_name("B3")
    2858                            .dwattr DW$244, DW_AT_location[DW_OP_reg19]
    2859                    DW$245  .dwtag  DW_TAG_assign_register, DW_AT_name("B4")
    2860                            .dwattr DW$245, DW_AT_location[DW_OP_reg20]
TMS320C6x COFF Assembler PC v5.1.0 Fri Jan 07 14:23:25 2011

Tools Copyright (c) 1996-2005 Texas Instruments Incorporated
C:\DOCUME~1\yqhe\LOCALS~1\Temp\TI3722                                PAGE   53

    2861                    DW$246  .dwtag  DW_TAG_assign_register, DW_AT_name("B5")
    2862                            .dwattr DW$246, DW_AT_location[DW_OP_reg21]
    2863                    DW$247  .dwtag  DW_TAG_assign_register, DW_AT_name("B6")
    2864                            .dwattr DW$247, DW_AT_location[DW_OP_reg22]
    2865                    DW$248  .dwtag  DW_TAG_assign_register, DW_AT_name("B7")
    2866                            .dwattr DW$248, DW_AT_location[DW_OP_reg23]
    2867                    DW$249  .dwtag  DW_TAG_assign_register, DW_AT_name("B8")
    2868                            .dwattr DW$249, DW_AT_location[DW_OP_reg24]
    2869                    DW$250  .dwtag  DW_TAG_assign_register, DW_AT_name("B9")
    2870                            .dwattr DW$250, DW_AT_location[DW_OP_reg25]
    2871                    DW$251  .dwtag  DW_TAG_assign_register, DW_AT_name("B10")
    2872                            .dwattr DW$251, DW_AT_location[DW_OP_reg26]
    2873                    DW$252  .dwtag  DW_TAG_assign_register, DW_AT_name("B11")
    2874                            .dwattr DW$252, DW_AT_location[DW_OP_reg27]
    2875                    DW$253  .dwtag  DW_TAG_assign_register, DW_AT_name("B12")
    2876                            .dwattr DW$253, DW_AT_location[DW_OP_reg28]
    2877                    DW$254  .dwtag  DW_TAG_assign_register, DW_AT_name("B13")
    2878                            .dwattr DW$254, DW_AT_location[DW_OP_reg29]
    2879                    DW$255  .dwtag  DW_TAG_assign_register, DW_AT_name("DP")
    2880                            .dwattr DW$255, DW_AT_location[DW_OP_reg30]
    2881                    DW$256  .dwtag  DW_TAG_assign_register, DW_AT_name("SP")
    2882                            .dwattr DW$256, DW_AT_location[DW_OP_reg31]
    2883                    DW$257  .dwtag  DW_TAG_assign_register, DW_AT_name("FP")
    2884                            .dwattr DW$257, DW_AT_location[DW_OP_regx 0x20]
    2885                    DW$258  .dwtag  DW_TAG_assign_register, DW_AT_name("PC")
    2886                            .dwattr DW$258, DW_AT_location[DW_OP_regx 0x21]
    2887                    DW$259  .dwtag  DW_TAG_assign_register, DW_AT_name("IRP")
    2888                            .dwattr DW$259, DW_AT_location[DW_OP_regx 0x22]
    2889                    DW$260  .dwtag  DW_TAG_assign_register, DW_AT_name("IFR")
    2890                            .dwattr DW$260, DW_AT_location[DW_OP_regx 0x23]
    2891                    DW$261  .dwtag  DW_TAG_assign_register, DW_AT_name("NRP")
    2892                            .dwattr DW$261, DW_AT_location[DW_OP_regx 0x24]
    2893                    DW$262  .dwtag  DW_TAG_assign_register, DW_AT_name("A16")
    2894                            .dwattr DW$262, DW_AT_location[DW_OP_regx 0x25]
    2895                    DW$263  .dwtag  DW_TAG_assign_register, DW_AT_name("A17")
    2896                            .dwattr DW$263, DW_AT_location[DW_OP_regx 0x26]
    2897                    DW$264  .dwtag  DW_TAG_assign_register, DW_AT_name("A18")
    2898                            .dwattr DW$264, DW_AT_location[DW_OP_regx 0x27]
    2899                    DW$265  .dwtag  DW_TAG_assign_register, DW_AT_name("A19")
    2900                            .dwattr DW$265, DW_AT_location[DW_OP_regx 0x28]
    2901                    DW$266  .dwtag  DW_TAG_assign_register, DW_AT_name("A20")
    2902                            .dwattr DW$266, DW_AT_location[DW_OP_regx 0x29]
    2903                    DW$267  .dwtag  DW_TAG_assign_register, DW_AT_name("A21")
    2904                            .dwattr DW$267, DW_AT_location[DW_OP_regx 0x2a]
    2905                    DW$268  .dwtag  DW_TAG_assign_register, DW_AT_name("A22")
    2906                            .dwattr DW$268, DW_AT_location[DW_OP_regx 0x2b]
    2907                    DW$269  .dwtag  DW_TAG_assign_register, DW_AT_name("A23")
    2908                            .dwattr DW$269, DW_AT_location[DW_OP_regx 0x2c]
    2909                    DW$270  .dwtag  DW_TAG_assign_register, DW_AT_name("A24")
    2910                            .dwattr DW$270, DW_AT_location[DW_OP_regx 0x2d]
    2911                    DW$271  .dwtag  DW_TAG_assign_register, DW_AT_name("A25")
    2912                            .dwattr DW$271, DW_AT_location[DW_OP_regx 0x2e]
    2913                    DW$272  .dwtag  DW_TAG_assign_register, DW_AT_name("A26")
    2914                            .dwattr DW$272, DW_AT_location[DW_OP_regx 0x2f]
    2915                    DW$273  .dwtag  DW_TAG_assign_register, DW_AT_name("A27")
TMS320C6x COFF Assembler PC v5.1.0 Fri Jan 07 14:23:25 2011

Tools Copyright (c) 1996-2005 Texas Instruments Incorporated
C:\DOCUME~1\yqhe\LOCALS~1\Temp\TI3722                                PAGE   54

    2916                            .dwattr DW$273, DW_AT_location[DW_OP_regx 0x30]
    2917                    DW$274  .dwtag  DW_TAG_assign_register, DW_AT_name("A28")
    2918                            .dwattr DW$274, DW_AT_location[DW_OP_regx 0x31]
    2919                    DW$275  .dwtag  DW_TAG_assign_register, DW_AT_name("A29")
    2920                            .dwattr DW$275, DW_AT_location[DW_OP_regx 0x32]
    2921                    DW$276  .dwtag  DW_TAG_assign_register, DW_AT_name("A30")
    2922                            .dwattr DW$276, DW_AT_location[DW_OP_regx 0x33]
    2923                    DW$277  .dwtag  DW_TAG_assign_register, DW_AT_name("A31")
    2924                            .dwattr DW$277, DW_AT_location[DW_OP_regx 0x34]
    2925                    DW$278  .dwtag  DW_TAG_assign_register, DW_AT_name("B16")
    2926                            .dwattr DW$278, DW_AT_location[DW_OP_regx 0x35]
    2927                    DW$279  .dwtag  DW_TAG_assign_register, DW_AT_name("B17")
    2928                            .dwattr DW$279, DW_AT_location[DW_OP_regx 0x36]
    2929                    DW$280  .dwtag  DW_TAG_assign_register, DW_AT_name("B18")
    2930                            .dwattr DW$280, DW_AT_location[DW_OP_regx 0x37]
    2931                    DW$281  .dwtag  DW_TAG_assign_register, DW_AT_name("B19")
    2932                            .dwattr DW$281, DW_AT_location[DW_OP_regx 0x38]
    2933                    DW$282  .dwtag  DW_TAG_assign_register, DW_AT_name("B20")
    2934                            .dwattr DW$282, DW_AT_location[DW_OP_regx 0x39]
    2935                    DW$283  .dwtag  DW_TAG_assign_register, DW_AT_name("B21")
    2936                            .dwattr DW$283, DW_AT_location[DW_OP_regx 0x3a]
    2937                    DW$284  .dwtag  DW_TAG_assign_register, DW_AT_name("B22")
    2938                            .dwattr DW$284, DW_AT_location[DW_OP_regx 0x3b]
    2939                    DW$285  .dwtag  DW_TAG_assign_register, DW_AT_name("B23")
    2940                            .dwattr DW$285, DW_AT_location[DW_OP_regx 0x3c]
    2941                    DW$286  .dwtag  DW_TAG_assign_register, DW_AT_name("B24")
    2942                            .dwattr DW$286, DW_AT_location[DW_OP_regx 0x3d]
    2943                    DW$287  .dwtag  DW_TAG_assign_register, DW_AT_name("B25")
    2944                            .dwattr DW$287, DW_AT_location[DW_OP_regx 0x3e]
    2945                    DW$288  .dwtag  DW_TAG_assign_register, DW_AT_name("B26")
    2946                            .dwattr DW$288, DW_AT_location[DW_OP_regx 0x3f]
    2947                    DW$289  .dwtag  DW_TAG_assign_register, DW_AT_name("B27")
    2948                            .dwattr DW$289, DW_AT_location[DW_OP_regx 0x40]
    2949                    DW$290  .dwtag  DW_TAG_assign_register, DW_AT_name("B28")
    2950                            .dwattr DW$290, DW_AT_location[DW_OP_regx 0x41]
    2951                    DW$291  .dwtag  DW_TAG_assign_register, DW_AT_name("B29")
    2952                            .dwattr DW$291, DW_AT_location[DW_OP_regx 0x42]
    2953                    DW$292  .dwtag  DW_TAG_assign_register, DW_AT_name("B30")
    2954                            .dwattr DW$292, DW_AT_location[DW_OP_regx 0x43]
    2955                    DW$293  .dwtag  DW_TAG_assign_register, DW_AT_name("B31")
    2956                            .dwattr DW$293, DW_AT_location[DW_OP_regx 0x44]
    2957                    DW$294  .dwtag  DW_TAG_assign_register, DW_AT_name("AMR")
    2958                            .dwattr DW$294, DW_AT_location[DW_OP_regx 0x45]
    2959                    DW$295  .dwtag  DW_TAG_assign_register, DW_AT_name("CSR")
    2960                            .dwattr DW$295, DW_AT_location[DW_OP_regx 0x46]
    2961                    DW$296  .dwtag  DW_TAG_assign_register, DW_AT_name("ISR")
    2962                            .dwattr DW$296, DW_AT_location[DW_OP_regx 0x47]
    2963                    DW$297  .dwtag  DW_TAG_assign_register, DW_AT_name("ICR")
    2964                            .dwattr DW$297, DW_AT_location[DW_OP_regx 0x48]
    2965                    DW$298  .dwtag  DW_TAG_assign_register, DW_AT_name("IER")
    2966                            .dwattr DW$298, DW_AT_location[DW_OP_regx 0x49]
    2967                    DW$299  .dwtag  DW_TAG_assign_register, DW_AT_name("ISTP")
    2968                            .dwattr DW$299, DW_AT_location[DW_OP_regx 0x4a]
    2969                    DW$300  .dwtag  DW_TAG_assign_register, DW_AT_name("IN")
    2970                            .dwattr DW$300, DW_AT_location[DW_OP_regx 0x4b]
TMS320C6x COFF Assembler PC v5.1.0 Fri Jan 07 14:23:25 2011

Tools Copyright (c) 1996-2005 Texas Instruments Incorporated
C:\DOCUME~1\yqhe\LOCALS~1\Temp\TI3722                                PAGE   55

    2971                    DW$301  .dwtag  DW_TAG_assign_register, DW_AT_name("OUT")
    2972                            .dwattr DW$301, DW_AT_location[DW_OP_regx 0x4c]
    2973                    DW$302  .dwtag  DW_TAG_assign_register, DW_AT_name("ACR")
    2974                            .dwattr DW$302, DW_AT_location[DW_OP_regx 0x4d]
    2975                    DW$303  .dwtag  DW_TAG_assign_register, DW_AT_name("ADR")
    2976                            .dwattr DW$303, DW_AT_location[DW_OP_regx 0x4e]
    2977                    DW$304  .dwtag  DW_TAG_assign_register, DW_AT_name("FADCR")
    2978                            .dwattr DW$304, DW_AT_location[DW_OP_regx 0x4f]
    2979                    DW$305  .dwtag  DW_TAG_assign_register, DW_AT_name("FAUCR")
    2980                            .dwattr DW$305, DW_AT_location[DW_OP_regx 0x50]
    2981                    DW$306  .dwtag  DW_TAG_assign_register, DW_AT_name("FMCR")
    2982                            .dwattr DW$306, DW_AT_location[DW_OP_regx 0x51]
    2983                    DW$307  .dwtag  DW_TAG_assign_register, DW_AT_name("GFPGFR")
    2984                            .dwattr DW$307, DW_AT_location[DW_OP_regx 0x52]
    2985                    DW$308  .dwtag  DW_TAG_assign_register, DW_AT_name("DIER")
    2986                            .dwattr DW$308, DW_AT_location[DW_OP_regx 0x53]
    2987                    DW$309  .dwtag  DW_TAG_assign_register, DW_AT_name("REP")
    2988                            .dwattr DW$309, DW_AT_location[DW_OP_regx 0x54]
    2989                    DW$310  .dwtag  DW_TAG_assign_register, DW_AT_name("TSCL")
    2990                            .dwattr DW$310, DW_AT_location[DW_OP_regx 0x55]
    2991                    DW$311  .dwtag  DW_TAG_assign_register, DW_AT_name("TSCH")
    2992                            .dwattr DW$311, DW_AT_location[DW_OP_regx 0x56]
    2993                    DW$312  .dwtag  DW_TAG_assign_register, DW_AT_name("ARP")
    2994                            .dwattr DW$312, DW_AT_location[DW_OP_regx 0x57]
    2995                    DW$313  .dwtag  DW_TAG_assign_register, DW_AT_name("ILC")
    2996                            .dwattr DW$313, DW_AT_location[DW_OP_regx 0x58]
    2997                    DW$314  .dwtag  DW_TAG_assign_register, DW_AT_name("RILC")
    2998                            .dwattr DW$314, DW_AT_location[DW_OP_regx 0x59]
    2999                    DW$315  .dwtag  DW_TAG_assign_register, DW_AT_name("DNUM")
    3000                            .dwattr DW$315, DW_AT_location[DW_OP_regx 0x5a]
    3001                    DW$316  .dwtag  DW_TAG_assign_register, DW_AT_name("SSR")
    3002                            .dwattr DW$316, DW_AT_location[DW_OP_regx 0x5b]
    3003                    DW$317  .dwtag  DW_TAG_assign_register, DW_AT_name("GPLYA")
    3004                            .dwattr DW$317, DW_AT_location[DW_OP_regx 0x5c]
    3005                    DW$318  .dwtag  DW_TAG_assign_register, DW_AT_name("GPLYB")
    3006                            .dwattr DW$318, DW_AT_location[DW_OP_regx 0x5d]
    3007                    DW$319  .dwtag  DW_TAG_assign_register, DW_AT_name("TSR")
    3008                            .dwattr DW$319, DW_AT_location[DW_OP_regx 0x5e]
    3009                    DW$320  .dwtag  DW_TAG_assign_register, DW_AT_name("ITSR")
    3010                            .dwattr DW$320, DW_AT_location[DW_OP_regx 0x5f]
    3011                    DW$321  .dwtag  DW_TAG_assign_register, DW_AT_name("NTSR")
    3012                            .dwattr DW$321, DW_AT_location[DW_OP_regx 0x60]
    3013                    DW$322  .dwtag  DW_TAG_assign_register, DW_AT_name("EFR")
    3014                            .dwattr DW$322, DW_AT_location[DW_OP_regx 0x61]
    3015                    DW$323  .dwtag  DW_TAG_assign_register, DW_AT_name("ECR")
    3016                            .dwattr DW$323, DW_AT_location[DW_OP_regx 0x62]
    3017                    DW$324  .dwtag  DW_TAG_assign_register, DW_AT_name("IERR")
    3018                            .dwattr DW$324, DW_AT_location[DW_OP_regx 0x63]
    3019                    DW$325  .dwtag  DW_TAG_assign_register, DW_AT_name("DMSG")
    3020                            .dwattr DW$325, DW_AT_location[DW_OP_regx 0x64]
    3021                    DW$326  .dwtag  DW_TAG_assign_register, DW_AT_name("CMSG")
    3022                            .dwattr DW$326, DW_AT_location[DW_OP_regx 0x65]
    3023                    DW$327  .dwtag  DW_TAG_assign_register, DW_AT_name("DT_DMA_ADDR")
    3024                            .dwattr DW$327, DW_AT_location[DW_OP_regx 0x66]
    3025                    DW$328  .dwtag  DW_TAG_assign_register, DW_AT_name("DT_DMA_DATA")
TMS320C6x COFF Assembler PC v5.1.0 Fri Jan 07 14:23:25 2011

Tools Copyright (c) 1996-2005 Texas Instruments Incorporated
C:\DOCUME~1\yqhe\LOCALS~1\Temp\TI3722                                PAGE   56

    3026                            .dwattr DW$328, DW_AT_location[DW_OP_regx 0x67]
    3027                    DW$329  .dwtag  DW_TAG_assign_register, DW_AT_name("DT_DMA_CNTL")
    3028                            .dwattr DW$329, DW_AT_location[DW_OP_regx 0x68]
    3029                    DW$330  .dwtag  DW_TAG_assign_register, DW_AT_name("TCU_CNTL")
    3030                            .dwattr DW$330, DW_AT_location[DW_OP_regx 0x69]
    3031                    DW$331  .dwtag  DW_TAG_assign_register, DW_AT_name("RTDX_REC_CNTL")
    3032                            .dwattr DW$331, DW_AT_location[DW_OP_regx 0x6a]
    3033                    DW$332  .dwtag  DW_TAG_assign_register, DW_AT_name("RTDX_XMT_CNTL")
    3034                            .dwattr DW$332, DW_AT_location[DW_OP_regx 0x6b]
    3035                    DW$333  .dwtag  DW_TAG_assign_register, DW_AT_name("RTDX_CFG")
    3036                            .dwattr DW$333, DW_AT_location[DW_OP_regx 0x6c]
    3037                    DW$334  .dwtag  DW_TAG_assign_register, DW_AT_name("RTDX_RDATA")
    3038                            .dwattr DW$334, DW_AT_location[DW_OP_regx 0x6d]
    3039                    DW$335  .dwtag  DW_TAG_assign_register, DW_AT_name("RTDX_WDATA")
    3040                            .dwattr DW$335, DW_AT_location[DW_OP_regx 0x6e]
    3041                    DW$336  .dwtag  DW_TAG_assign_register, DW_AT_name("RTDX_RADDR")
    3042                            .dwattr DW$336, DW_AT_location[DW_OP_regx 0x6f]
    3043                    DW$337  .dwtag  DW_TAG_assign_register, DW_AT_name("RTDX_WADDR")
    3044                            .dwattr DW$337, DW_AT_location[DW_OP_regx 0x70]
    3045                    DW$338  .dwtag  DW_TAG_assign_register, DW_AT_name("MFREG0")
    3046                            .dwattr DW$338, DW_AT_location[DW_OP_regx 0x71]
    3047                    DW$339  .dwtag  DW_TAG_assign_register, DW_AT_name("DBG_STAT")
    3048                            .dwattr DW$339, DW_AT_location[DW_OP_regx 0x72]
    3049                    DW$340  .dwtag  DW_TAG_assign_register, DW_AT_name("BRK_EN")
    3050                            .dwattr DW$340, DW_AT_location[DW_OP_regx 0x73]
    3051                    DW$341  .dwtag  DW_TAG_assign_register, DW_AT_name("HWBP0_CNT")
    3052                            .dwattr DW$341, DW_AT_location[DW_OP_regx 0x74]
    3053                    DW$342  .dwtag  DW_TAG_assign_register, DW_AT_name("HWBP0")
    3054                            .dwattr DW$342, DW_AT_location[DW_OP_regx 0x75]
    3055                    DW$343  .dwtag  DW_TAG_assign_register, DW_AT_name("HWBP1")
    3056                            .dwattr DW$343, DW_AT_location[DW_OP_regx 0x76]
    3057                    DW$344  .dwtag  DW_TAG_assign_register, DW_AT_name("HWBP2")
    3058                            .dwattr DW$344, DW_AT_location[DW_OP_regx 0x77]
    3059                    DW$345  .dwtag  DW_TAG_assign_register, DW_AT_name("HWBP3")
    3060                            .dwattr DW$345, DW_AT_location[DW_OP_regx 0x78]
    3061                    DW$346  .dwtag  DW_TAG_assign_register, DW_AT_name("OVERLAY")
    3062                            .dwattr DW$346, DW_AT_location[DW_OP_regx 0x79]
    3063                    DW$347  .dwtag  DW_TAG_assign_register, DW_AT_name("PC_PROF")
    3064                            .dwattr DW$347, DW_AT_location[DW_OP_regx 0x7a]
    3065                    DW$348  .dwtag  DW_TAG_assign_register, DW_AT_name("ATSR")
    3066                            .dwattr DW$348, DW_AT_location[DW_OP_regx 0x7b]
    3067                    DW$349  .dwtag  DW_TAG_assign_register, DW_AT_name("TRR")
    3068                            .dwattr DW$349, DW_AT_location[DW_OP_regx 0x7c]
    3069                    DW$350  .dwtag  DW_TAG_assign_register, DW_AT_name("TCRR")
    3070                            .dwattr DW$350, DW_AT_location[DW_OP_regx 0x7d]
    3071                    DW$351  .dwtag  DW_TAG_assign_register, DW_AT_name("CIE_RETA")
    3072                            .dwattr DW$351, DW_AT_location[DW_OP_regx 0x7e]
    3073                            .dwendtag DW$CU
    3074                    

No Assembly Errors, No Assembly Warnings
