TMS320C6x COFF Assembler PC v5.1.0 Fri Mar 25 16:51:07 2011

Tools Copyright (c) 1996-2005 Texas Instruments Incorporated
C:\DOCUME~1\yqhe\LOCALS~1\Temp\TI2522                                PAGE    1

       1                    ;******************************************************************************
       2                    ;* TMS320C6x C/C++ Codegen                                          PC v5.1.0 *
       3                    ;* Date/Time created: Fri Mar 25 16:51:06 2011                                *
       4                    ;******************************************************************************
       5                            .compiler_opts --endian=little --mem_model:code=near --mem_model:data=far --quiet --silicon_ve
       6                    
       7                    ;******************************************************************************
       8                    ;* GLOBAL FILE PARAMETERS                                                     *
       9                    ;*                                                                            *
      10                    ;*   Architecture      : TMS320C64xx                                          *
      11                    ;*   Optimization      : Disabled                                             *
      12                    ;*   Optimizing for    : Compile time, Ease of Development                    *
      13                    ;*                       Based on options: no -o, -ms2                        *
      14                    ;*   Endian            : Little                                               *
      15                    ;*   Interrupt Thrshld : Disabled                                             *
      16                    ;*   Data Access Model : Far                                                  *
      17                    ;*   Pipelining        : Disabled                                             *
      18                    ;*   Memory Aliases    : Presume are aliases (pessimistic)                    *
      19                    ;*   Debug Info        : DWARF Debug                                          *
      20                    ;*                                                                            *
      21                    ;******************************************************************************
      22                    
      23                            .asg    A15, FP
      24                            .asg    B14, DP
      25                            .asg    B15, SP
      26                            .global $bss
      27                    
      28                    
      29                    DW$CU   .dwtag  DW_TAG_compile_unit
      30                            .dwattr DW$CU, DW_AT_name("VideoInput2.c")
      31                            .dwattr DW$CU, DW_AT_producer("TMS320C6x C/C++ Codegen PC v5.1.0 Copyright (c) 1996-2005 Texas
      32                            .dwattr DW$CU, DW_AT_stmt_list(0x00)
      33                            .dwattr DW$CU, DW_AT_TI_VERSION(0x01)
      34                    ;*****************************************************************************
      35                    ;* CINIT RECORDS                                                             *
      36                    ;*****************************************************************************
      37 00000000                   .sect   ".cinit"
      38                            .align  8
      39 00000000 00000004          .field          4,32
      40 00000004 00000014-         .field          _img_ptr_l+0,32
      41 00000008 00000000          .field          0,32                    ; _img_ptr_l @ 0
      42                    
      43 0000000c                   .sect   ".cinit"
      44                            .align  8
      45 00000010 00000004          .field          4,32
      46 00000014 00000018-         .field          _img_ptr_r+0,32
      47 00000018 00000000          .field          0,32                    ; _img_ptr_r @ 0
      48                    
      49 0000001c                   .sect   ".cinit"
      50                            .align  8
      51 00000020 00000004          .field          4,32
      52 00000024 00000020-         .field          _copyimg_ptr_l+0,32
      53 00000028 00000000          .field          0,32                    ; _copyimg_ptr_l @ 0
      54                    
      55 0000002c                   .sect   ".cinit"
TMS320C6x COFF Assembler PC v5.1.0 Fri Mar 25 16:51:07 2011

Tools Copyright (c) 1996-2005 Texas Instruments Incorporated
C:\DOCUME~1\yqhe\LOCALS~1\Temp\TI2522                                PAGE    2

      56                            .align  8
      57 00000030 00000004          .field          4,32
      58 00000034 00000024-         .field          _copyimg_ptr_r+0,32
      59 00000038 00000000          .field          0,32                    ; _copyimg_ptr_r @ 0
      60                    
      61 0000003c                   .sect   ".cinit"
      62                            .align  8
      63 00000040 00000004          .field          4,32
      64 00000044 0000002C-         .field          _capframe_ptr_l+0,32
      65 00000048 00000000          .field          0,32                    ; _capframe_ptr_l @ 0
      66                    
      67 0000004c                   .sect   ".cinit"
      68                            .align  8
      69 00000050 00000004          .field          4,32
      70 00000054 00000030-         .field          _capframe_ptr_r+0,32
      71 00000058 00000000          .field          0,32                    ; _capframe_ptr_r @ 0
      72                    
      73 0000005c                   .sect   ".cinit"
      74                            .align  8
      75 00000060 00000004          .field          4,32
      76 00000064 000000FC-         .field          _switch_test+0,32
      77 00000068 00000001          .field          1,32                    ; _switch_test @ 0
      78                    
      79 0000006c                   .sect   ".cinit"
      80                            .align  8
      81 00000070 00000004          .field          4,32
      82 00000074 00000100-         .field          _switch_count+0,32
      83 00000078 00000000          .field          0,32                    ; _switch_count @ 0
      84                    
      85 0000007c                   .sect   ".cinit"
      86                            .align  8
      87 00000080 00000004          .field          4,32
      88 00000084 00000104-         .field          _test_count+0,32
      89 00000088 00000000          .field          0,32                    ; _test_count @ 0
      90                    
      91 0000008c                   .sect   ".cinit"
      92                            .align  8
      93 00000090 00000004          .field          4,32
      94 00000094 00000108-         .field          _cur_ccd_val+0,32
      95 00000098 00000000          .field          0,32                    ; _cur_ccd_val @ 0
      96                    
      97                    
      98                    DW$1    .dwtag  DW_TAG_subprogram, DW_AT_name("memcpy"), DW_AT_symbol_name("_memcpy")
      99                            .dwattr DW$1, DW_AT_type(*DW$T$3)
     100                            .dwattr DW$1, DW_AT_declaration(0x01)
     101                            .dwattr DW$1, DW_AT_external(0x01)
     102                    DW$2    .dwtag  DW_TAG_formal_parameter, DW_AT_type(*DW$T$3)
     103                    DW$3    .dwtag  DW_TAG_formal_parameter, DW_AT_type(*DW$T$148)
     104                    DW$4    .dwtag  DW_TAG_formal_parameter, DW_AT_type(*DW$T$11)
     105                            .dwendtag DW$1
     106                    
     107                    
     108                    DW$5    .dwtag  DW_TAG_subprogram, DW_AT_name("CACHE_flush"), DW_AT_symbol_name("_CACHE_flush")
     109                            .dwattr DW$5, DW_AT_declaration(0x01)
     110                            .dwattr DW$5, DW_AT_external(0x01)
TMS320C6x COFF Assembler PC v5.1.0 Fri Mar 25 16:51:07 2011

Tools Copyright (c) 1996-2005 Texas Instruments Incorporated
C:\DOCUME~1\yqhe\LOCALS~1\Temp\TI2522                                PAGE    3

     111                    DW$6    .dwtag  DW_TAG_formal_parameter, DW_AT_type(*DW$T$157)
     112                    DW$7    .dwtag  DW_TAG_formal_parameter, DW_AT_type(*DW$T$3)
     113                    DW$8    .dwtag  DW_TAG_formal_parameter, DW_AT_type(*DW$T$19)
     114                            .dwendtag DW$5
     115                    
     116                    
     117                    DW$9    .dwtag  DW_TAG_subprogram, DW_AT_name("CACHE_invL2"), DW_AT_symbol_name("_CACHE_invL2")
     118                            .dwattr DW$9, DW_AT_declaration(0x01)
     119                            .dwattr DW$9, DW_AT_external(0x01)
     120                    DW$10   .dwtag  DW_TAG_formal_parameter, DW_AT_type(*DW$T$3)
     121                    DW$11   .dwtag  DW_TAG_formal_parameter, DW_AT_type(*DW$T$19)
     122                    DW$12   .dwtag  DW_TAG_formal_parameter, DW_AT_type(*DW$T$161)
     123                            .dwendtag DW$9
     124                    
     125                    
     126                    DW$13   .dwtag  DW_TAG_subprogram, DW_AT_name("GPIO_pinWrite"), DW_AT_symbol_name("_GPIO_pinWrite")
     127                            .dwattr DW$13, DW_AT_declaration(0x01)
     128                            .dwattr DW$13, DW_AT_external(0x01)
     129                    DW$14   .dwtag  DW_TAG_formal_parameter, DW_AT_type(*DW$T$165)
     130                    DW$15   .dwtag  DW_TAG_formal_parameter, DW_AT_type(*DW$T$19)
     131                    DW$16   .dwtag  DW_TAG_formal_parameter, DW_AT_type(*DW$T$19)
     132                            .dwendtag DW$13
     133                    
     134                    
     135                    DW$17   .dwtag  DW_TAG_subprogram, DW_AT_name("MEM_alloc"), DW_AT_symbol_name("_MEM_alloc")
     136                            .dwattr DW$17, DW_AT_type(*DW$T$26)
     137                            .dwattr DW$17, DW_AT_declaration(0x01)
     138                            .dwattr DW$17, DW_AT_external(0x01)
     139                    DW$18   .dwtag  DW_TAG_formal_parameter, DW_AT_type(*DW$T$28)
     140                    DW$19   .dwtag  DW_TAG_formal_parameter, DW_AT_type(*DW$T$27)
     141                    DW$20   .dwtag  DW_TAG_formal_parameter, DW_AT_type(*DW$T$27)
     142                            .dwendtag DW$17
     143                    
     144                    
     145                    DW$21   .dwtag  DW_TAG_subprogram, DW_AT_name("SYS_abort"), DW_AT_symbol_name("_SYS_abort")
     146                            .dwattr DW$21, DW_AT_declaration(0x01)
     147                            .dwattr DW$21, DW_AT_external(0x01)
     148                    DW$22   .dwtag  DW_TAG_formal_parameter, DW_AT_type(*DW$T$43)
     149                    DW$23   .dwtag  DW_TAG_unspecified_parameters
     150                            .dwendtag DW$21
     151                    
     152                    
     153                    DW$24   .dwtag  DW_TAG_subprogram, DW_AT_name("GIO_control"), DW_AT_symbol_name("_GIO_control")
     154                            .dwattr DW$24, DW_AT_type(*DW$T$28)
     155                            .dwattr DW$24, DW_AT_declaration(0x01)
     156                            .dwattr DW$24, DW_AT_external(0x01)
     157                    DW$25   .dwtag  DW_TAG_formal_parameter, DW_AT_type(*DW$T$202)
     158                    DW$26   .dwtag  DW_TAG_formal_parameter, DW_AT_type(*DW$T$27)
     159                    DW$27   .dwtag  DW_TAG_formal_parameter, DW_AT_type(*DW$T$26)
     160                            .dwendtag DW$24
     161                    
     162                    
     163                    DW$28   .dwtag  DW_TAG_subprogram, DW_AT_name("GIO_create"), DW_AT_symbol_name("_GIO_create")
     164                            .dwattr DW$28, DW_AT_type(*DW$T$202)
     165                            .dwattr DW$28, DW_AT_declaration(0x01)
TMS320C6x COFF Assembler PC v5.1.0 Fri Mar 25 16:51:07 2011

Tools Copyright (c) 1996-2005 Texas Instruments Incorporated
C:\DOCUME~1\yqhe\LOCALS~1\Temp\TI2522                                PAGE    4

     166                            .dwattr DW$28, DW_AT_external(0x01)
     167                    DW$29   .dwtag  DW_TAG_formal_parameter, DW_AT_type(*DW$T$43)
     168                    DW$30   .dwtag  DW_TAG_formal_parameter, DW_AT_type(*DW$T$28)
     169                    DW$31   .dwtag  DW_TAG_formal_parameter, DW_AT_type(*DW$T$205)
     170                    DW$32   .dwtag  DW_TAG_formal_parameter, DW_AT_type(*DW$T$26)
     171                    DW$33   .dwtag  DW_TAG_formal_parameter, DW_AT_type(*DW$T$237)
     172                            .dwendtag DW$28
     173                    
     174                    
     175                    DW$34   .dwtag  DW_TAG_subprogram, DW_AT_name("GIO_submit"), DW_AT_symbol_name("_GIO_submit")
     176                            .dwattr DW$34, DW_AT_type(*DW$T$28)
     177                            .dwattr DW$34, DW_AT_declaration(0x01)
     178                            .dwattr DW$34, DW_AT_external(0x01)
     179                    DW$35   .dwtag  DW_TAG_formal_parameter, DW_AT_type(*DW$T$202)
     180                    DW$36   .dwtag  DW_TAG_formal_parameter, DW_AT_type(*DW$T$27)
     181                    DW$37   .dwtag  DW_TAG_formal_parameter, DW_AT_type(*DW$T$26)
     182                    DW$38   .dwtag  DW_TAG_formal_parameter, DW_AT_type(*DW$T$206)
     183                    DW$39   .dwtag  DW_TAG_formal_parameter, DW_AT_type(*DW$T$208)
     184                            .dwendtag DW$34
     185                    
     186                    
     187                    DW$40   .dwtag  DW_TAG_subprogram, DW_AT_name("sprintf"), DW_AT_symbol_name("_sprintf")
     188                            .dwattr DW$40, DW_AT_type(*DW$T$10)
     189                            .dwattr DW$40, DW_AT_declaration(0x01)
     190                            .dwattr DW$40, DW_AT_external(0x01)
     191                    DW$41   .dwtag  DW_TAG_formal_parameter, DW_AT_type(*DW$T$42)
     192                    DW$42   .dwtag  DW_TAG_formal_parameter, DW_AT_type(*DW$T$212)
     193                    DW$43   .dwtag  DW_TAG_unspecified_parameters
     194                            .dwendtag DW$40
     195                    
     196                    
     197                    DW$44   .dwtag  DW_TAG_subprogram, DW_AT_name("disp_init"), DW_AT_symbol_name("_disp_init")
     198                            .dwattr DW$44, DW_AT_declaration(0x01)
     199                            .dwattr DW$44, DW_AT_external(0x01)
     200                    
     201                    DW$45   .dwtag  DW_TAG_subprogram, DW_AT_name("disp_set_stamp"), DW_AT_symbol_name("_disp_set_stamp")
     202                            .dwattr DW$45, DW_AT_declaration(0x01)
     203                            .dwattr DW$45, DW_AT_external(0x01)
     204                    DW$46   .dwtag  DW_TAG_formal_parameter, DW_AT_type(*DW$T$172)
     205                    DW$47   .dwtag  DW_TAG_formal_parameter, DW_AT_type(*DW$T$70)
     206                    DW$48   .dwtag  DW_TAG_formal_parameter, DW_AT_type(*DW$T$10)
     207                    DW$49   .dwtag  DW_TAG_formal_parameter, DW_AT_type(*DW$T$10)
     208                    DW$50   .dwtag  DW_TAG_formal_parameter, DW_AT_type(*DW$T$10)
     209                    DW$51   .dwtag  DW_TAG_formal_parameter, DW_AT_type(*DW$T$10)
     210                            .dwendtag DW$45
     211                    
     212                    
     213                    DW$52   .dwtag  DW_TAG_subprogram, DW_AT_name("disp_rgb565"), DW_AT_symbol_name("_disp_rgb565")
     214                            .dwattr DW$52, DW_AT_type(*DW$T$10)
     215                            .dwattr DW$52, DW_AT_declaration(0x01)
     216                            .dwattr DW$52, DW_AT_external(0x01)
     217                    DW$53   .dwtag  DW_TAG_formal_parameter, DW_AT_type(*DW$T$70)
     218                    DW$54   .dwtag  DW_TAG_formal_parameter, DW_AT_type(*DW$T$70)
     219                    DW$55   .dwtag  DW_TAG_formal_parameter, DW_AT_type(*DW$T$200)
     220                    DW$56   .dwtag  DW_TAG_formal_parameter, DW_AT_type(*DW$T$10)
TMS320C6x COFF Assembler PC v5.1.0 Fri Mar 25 16:51:07 2011

Tools Copyright (c) 1996-2005 Texas Instruments Incorporated
C:\DOCUME~1\yqhe\LOCALS~1\Temp\TI2522                                PAGE    5

     221                            .dwendtag DW$52
     222                    
     223                    
     224                    DW$57   .dwtag  DW_TAG_subprogram, DW_AT_name("disp_draw_half_frame"), DW_AT_symbol_name("_disp_draw_h
     225                            .dwattr DW$57, DW_AT_type(*DW$T$10)
     226                            .dwattr DW$57, DW_AT_declaration(0x01)
     227                            .dwattr DW$57, DW_AT_external(0x01)
     228                    DW$58   .dwtag  DW_TAG_formal_parameter, DW_AT_type(*DW$T$200)
     229                            .dwendtag DW$57
     230                    
     231                    
     232                    DW$59   .dwtag  DW_TAG_subprogram, DW_AT_name("disp_set_cb"), DW_AT_symbol_name("_disp_set_cb")
     233                            .dwattr DW$59, DW_AT_type(*DW$T$10)
     234                            .dwattr DW$59, DW_AT_declaration(0x01)
     235                            .dwattr DW$59, DW_AT_external(0x01)
     236                    DW$60   .dwtag  DW_TAG_formal_parameter, DW_AT_type(*DW$T$10)
     237                    DW$61   .dwtag  DW_TAG_formal_parameter, DW_AT_type(*DW$T$10)
     238                    DW$62   .dwtag  DW_TAG_formal_parameter, DW_AT_type(*DW$T$10)
     239                    DW$63   .dwtag  DW_TAG_formal_parameter, DW_AT_type(*DW$T$10)
     240                    DW$64   .dwtag  DW_TAG_formal_parameter, DW_AT_type(*DW$T$10)
     241                    DW$65   .dwtag  DW_TAG_formal_parameter, DW_AT_type(*DW$T$10)
     242                    DW$66   .dwtag  DW_TAG_formal_parameter, DW_AT_type(*DW$T$10)
     243                            .dwendtag DW$59
     244                    
     245                    
     246                    DW$67   .dwtag  DW_TAG_subprogram, DW_AT_name("dbg_output"), DW_AT_symbol_name("_dbg_output")
     247                            .dwattr DW$67, DW_AT_type(*DW$T$10)
     248                            .dwattr DW$67, DW_AT_declaration(0x01)
     249                            .dwattr DW$67, DW_AT_external(0x01)
     250                    DW$68   .dwtag  DW_TAG_formal_parameter, DW_AT_type(*DW$T$42)
     251                    DW$69   .dwtag  DW_TAG_unspecified_parameters
     252                            .dwendtag DW$67
     253                    
     254                    
     255                    DW$70   .dwtag  DW_TAG_subprogram, DW_AT_name("dsp_newalg_data_init"), DW_AT_symbol_name("_dsp_newalg_
     256                            .dwattr DW$70, DW_AT_declaration(0x01)
     257                            .dwattr DW$70, DW_AT_external(0x01)
     258                    
     259                    DW$71   .dwtag  DW_TAG_subprogram, DW_AT_name("_tvp5150_i2c_addr"), DW_AT_symbol_name("__tvp5150_i2c_a
     260                            .dwattr DW$71, DW_AT_type(*DW$T$10)
     261                            .dwattr DW$71, DW_AT_declaration(0x01)
     262                            .dwattr DW$71, DW_AT_external(0x01)
     263                    
     264                    DW$72   .dwtag  DW_TAG_subprogram, DW_AT_name("_IIC_write"), DW_AT_symbol_name("__IIC_write")
     265                            .dwattr DW$72, DW_AT_type(*DW$T$10)
     266                            .dwattr DW$72, DW_AT_declaration(0x01)
     267                            .dwattr DW$72, DW_AT_external(0x01)
     268                    
     269                    DW$73   .dwtag  DW_TAG_subprogram, DW_AT_name("_IIC_read"), DW_AT_symbol_name("__IIC_read")
     270                            .dwattr DW$73, DW_AT_type(*DW$T$10)
     271                            .dwattr DW$73, DW_AT_declaration(0x01)
     272                            .dwattr DW$73, DW_AT_external(0x01)
     273                    
     274                    DW$74   .dwtag  DW_TAG_subprogram, DW_AT_name("BUF_alloc"), DW_AT_symbol_name("_BUF_alloc")
     275                            .dwattr DW$74, DW_AT_type(*DW$T$26)
TMS320C6x COFF Assembler PC v5.1.0 Fri Mar 25 16:51:07 2011

Tools Copyright (c) 1996-2005 Texas Instruments Incorporated
C:\DOCUME~1\yqhe\LOCALS~1\Temp\TI2522                                PAGE    6

     276                            .dwattr DW$74, DW_AT_declaration(0x01)
     277                            .dwattr DW$74, DW_AT_external(0x01)
     278                    DW$75   .dwtag  DW_TAG_formal_parameter, DW_AT_type(*DW$T$153)
     279                            .dwendtag DW$74
     280                    
     281                    
     282                    DW$76   .dwtag  DW_TAG_subprogram, DW_AT_name("FillBmpHeader"), DW_AT_symbol_name("_FillBmpHeader")
     283                            .dwattr DW$76, DW_AT_type(*DW$T$10)
     284                            .dwattr DW$76, DW_AT_declaration(0x01)
     285                            .dwattr DW$76, DW_AT_external(0x01)
     286                    DW$77   .dwtag  DW_TAG_formal_parameter, DW_AT_type(*DW$T$19)
     287                    DW$78   .dwtag  DW_TAG_formal_parameter, DW_AT_type(*DW$T$10)
     288                    DW$79   .dwtag  DW_TAG_formal_parameter, DW_AT_type(*DW$T$10)
     289                            .dwendtag DW$76
     290                    
     291                    
     292                    DW$80   .dwtag  DW_TAG_subprogram, DW_AT_name("fill_checksum"), DW_AT_symbol_name("_fill_checksum")
     293                            .dwattr DW$80, DW_AT_declaration(0x01)
     294                            .dwattr DW$80, DW_AT_external(0x01)
     295                    DW$81   .dwtag  DW_TAG_formal_parameter, DW_AT_type(*DW$T$183)
     296                    DW$82   .dwtag  DW_TAG_formal_parameter, DW_AT_type(*DW$T$10)
     297                            .dwendtag DW$80
     298                    
     299                    
     300                    DW$83   .dwtag  DW_TAG_subprogram, DW_AT_name("ProcessFlag"), DW_AT_symbol_name("_ProcessFlag")
     301                            .dwattr DW$83, DW_AT_type(*DW$T$10)
     302                            .dwattr DW$83, DW_AT_declaration(0x01)
     303                            .dwattr DW$83, DW_AT_external(0x01)
     304                    DW$84   .dwtag  DW_TAG_formal_parameter, DW_AT_type(*DW$T$187)
     305                            .dwendtag DW$83
     306                    
     307                    
     308                    DW$85   .dwtag  DW_TAG_subprogram, DW_AT_name("ProcessImg"), DW_AT_symbol_name("_ProcessImg")
     309                            .dwattr DW$85, DW_AT_type(*DW$T$10)
     310                            .dwattr DW$85, DW_AT_declaration(0x01)
     311                            .dwattr DW$85, DW_AT_external(0x01)
     312                    DW$86   .dwtag  DW_TAG_formal_parameter, DW_AT_type(*DW$T$187)
     313                            .dwendtag DW$85
     314                    
     315                    
     316                    DW$87   .dwtag  DW_TAG_subprogram, DW_AT_name("CLK_getltime"), DW_AT_symbol_name("_CLK_getltime")
     317                            .dwattr DW$87, DW_AT_type(*DW$T$10)
     318                            .dwattr DW$87, DW_AT_declaration(0x01)
     319                            .dwattr DW$87, DW_AT_external(0x01)
     320                    
     321                    DW$88   .dwtag  DW_TAG_subprogram, DW_AT_name("CLK_getprd"), DW_AT_symbol_name("_CLK_getprd")
     322                            .dwattr DW$88, DW_AT_type(*DW$T$10)
     323                            .dwattr DW$88, DW_AT_declaration(0x01)
     324                            .dwattr DW$88, DW_AT_external(0x01)
     325                    
     326                    DW$89   .dwtag  DW_TAG_subprogram, DW_AT_name("CLK_countspms"), DW_AT_symbol_name("_CLK_countspms")
     327                            .dwattr DW$89, DW_AT_type(*DW$T$10)
     328                            .dwattr DW$89, DW_AT_declaration(0x01)
     329                            .dwattr DW$89, DW_AT_external(0x01)
     330                    
TMS320C6x COFF Assembler PC v5.1.0 Fri Mar 25 16:51:07 2011

Tools Copyright (c) 1996-2005 Texas Instruments Incorporated
C:\DOCUME~1\yqhe\LOCALS~1\Temp\TI2522                                PAGE    7

     331                    DW$90   .dwtag  DW_TAG_subprogram, DW_AT_name("memset"), DW_AT_symbol_name("_memset")
     332                            .dwattr DW$90, DW_AT_type(*DW$T$10)
     333                            .dwattr DW$90, DW_AT_declaration(0x01)
     334                            .dwattr DW$90, DW_AT_external(0x01)
     335                    
     336                    DW$91   .dwtag  DW_TAG_subprogram, DW_AT_name("CalcCurFeatureNum"), DW_AT_symbol_name("_CalcCurFeature
     337                            .dwattr DW$91, DW_AT_type(*DW$T$10)
     338                            .dwattr DW$91, DW_AT_declaration(0x01)
     339                            .dwattr DW$91, DW_AT_external(0x01)
     340                    DW$92   .dwtag  DW_TAG_variable, DW_AT_name("KNL_curtime"), DW_AT_symbol_name("_KNL_curtime")
     341                            .dwattr DW$92, DW_AT_type(*DW$T$231)
     342                            .dwattr DW$92, DW_AT_declaration(0x01)
     343                            .dwattr DW$92, DW_AT_external(0x01)
     344                    DW$93   .dwtag  DW_TAG_variable, DW_AT_name("EMB_vCapParamsChan"), DW_AT_symbol_name("_EMB_vCapParamsC
     345                            .dwattr DW$93, DW_AT_type(*DW$T$242)
     346                            .dwattr DW$93, DW_AT_declaration(0x01)
     347                            .dwattr DW$93, DW_AT_external(0x01)
     348                    DW$94   .dwtag  DW_TAG_variable, DW_AT_name("EMBGPIO_handle"), DW_AT_symbol_name("_EMBGPIO_handle")
     349                            .dwattr DW$94, DW_AT_type(*DW$T$165)
     350                            .dwattr DW$94, DW_AT_declaration(0x01)
     351                            .dwattr DW$94, DW_AT_external(0x01)
     352                            .global _capChan1
     353 00000000           _capChan1:      .usect  ".far",4,4
     354                    DW$95   .dwtag  DW_TAG_variable, DW_AT_name("capChan1"), DW_AT_symbol_name("_capChan1")
     355                            .dwattr DW$95, DW_AT_location[DW_OP_addr _capChan1]
     356                            .dwattr DW$95, DW_AT_type(*DW$T$240)
     357                            .dwattr DW$95, DW_AT_external(0x01)
     358                            .global _capChan2
     359 00000004           _capChan2:      .usect  ".far",4,4
     360                    DW$96   .dwtag  DW_TAG_variable, DW_AT_name("capChan2"), DW_AT_symbol_name("_capChan2")
     361                            .dwattr DW$96, DW_AT_location[DW_OP_addr _capChan2]
     362                            .dwattr DW$96, DW_AT_type(*DW$T$240)
     363                            .dwattr DW$96, DW_AT_external(0x01)
     364                            .global _capFrameBuf1
     365 00000008           _capFrameBuf1:  .usect  ".far",4,4
     366                    DW$97   .dwtag  DW_TAG_variable, DW_AT_name("capFrameBuf1"), DW_AT_symbol_name("_capFrameBuf1")
     367                            .dwattr DW$97, DW_AT_location[DW_OP_addr _capFrameBuf1]
     368                            .dwattr DW$97, DW_AT_type(*DW$T$245)
     369                            .dwattr DW$97, DW_AT_external(0x01)
     370                            .global _capFrameBuf2
     371 0000000c           _capFrameBuf2:  .usect  ".far",4,4
     372                    DW$98   .dwtag  DW_TAG_variable, DW_AT_name("capFrameBuf2"), DW_AT_symbol_name("_capFrameBuf2")
     373                            .dwattr DW$98, DW_AT_location[DW_OP_addr _capFrameBuf2]
     374                            .dwattr DW$98, DW_AT_type(*DW$T$245)
     375                            .dwattr DW$98, DW_AT_external(0x01)
     376                    DW$99   .dwtag  DW_TAG_variable, DW_AT_name("vdis_buf"), DW_AT_symbol_name("_vdis_buf")
     377                            .dwattr DW$99, DW_AT_type(*DW$T$172)
     378                            .dwattr DW$99, DW_AT_declaration(0x01)
     379                            .dwattr DW$99, DW_AT_external(0x01)
     380                    DW$100  .dwtag  DW_TAG_variable, DW_AT_name("BUF_imgPool"), DW_AT_symbol_name("_BUF_imgPool")
     381                            .dwattr DW$100, DW_AT_type(*DW$T$241)
     382                            .dwattr DW$100, DW_AT_declaration(0x01)
     383                            .dwattr DW$100, DW_AT_external(0x01)
     384                            .global _buffPoolHandle
     385 00000010           _buffPoolHandle:        .usect  ".far",4,4
TMS320C6x COFF Assembler PC v5.1.0 Fri Mar 25 16:51:07 2011

Tools Copyright (c) 1996-2005 Texas Instruments Incorporated
C:\DOCUME~1\yqhe\LOCALS~1\Temp\TI2522                                PAGE    8

     386                    DW$101  .dwtag  DW_TAG_variable, DW_AT_name("buffPoolHandle"), DW_AT_symbol_name("_buffPoolHandle")
     387                            .dwattr DW$101, DW_AT_location[DW_OP_addr _buffPoolHandle]
     388                            .dwattr DW$101, DW_AT_type(*DW$T$153)
     389                            .dwattr DW$101, DW_AT_external(0x01)
     390                            .global _img_ptr_l
     391 00000014           _img_ptr_l:     .usect  ".far",4,4
     392                    DW$102  .dwtag  DW_TAG_variable, DW_AT_name("img_ptr_l"), DW_AT_symbol_name("_img_ptr_l")
     393                            .dwattr DW$102, DW_AT_location[DW_OP_addr _img_ptr_l]
     394                            .dwattr DW$102, DW_AT_type(*DW$T$70)
     395                            .dwattr DW$102, DW_AT_external(0x01)
     396                            .global _img_ptr_r
     397 00000018           _img_ptr_r:     .usect  ".far",4,4
     398                    DW$103  .dwtag  DW_TAG_variable, DW_AT_name("img_ptr_r"), DW_AT_symbol_name("_img_ptr_r")
     399                            .dwattr DW$103, DW_AT_location[DW_OP_addr _img_ptr_r]
     400                            .dwattr DW$103, DW_AT_type(*DW$T$70)
     401                            .dwattr DW$103, DW_AT_external(0x01)
     402                    DW$104  .dwtag  DW_TAG_variable, DW_AT_name("BUF_copyPool"), DW_AT_symbol_name("_BUF_copyPool")
     403                            .dwattr DW$104, DW_AT_type(*DW$T$241)
     404                            .dwattr DW$104, DW_AT_declaration(0x01)
     405                            .dwattr DW$104, DW_AT_external(0x01)
     406                            .global _buffCopyPoolHandle
     407 0000001c           _buffCopyPoolHandle:    .usect  ".far",4,4
     408                    DW$105  .dwtag  DW_TAG_variable, DW_AT_name("buffCopyPoolHandle"), DW_AT_symbol_name("_buffCopyPoolHan
     409                            .dwattr DW$105, DW_AT_location[DW_OP_addr _buffCopyPoolHandle]
     410                            .dwattr DW$105, DW_AT_type(*DW$T$153)
     411                            .dwattr DW$105, DW_AT_external(0x01)
     412                            .global _copyimg_ptr_l
     413 00000020           _copyimg_ptr_l: .usect  ".far",4,4
     414                    DW$106  .dwtag  DW_TAG_variable, DW_AT_name("copyimg_ptr_l"), DW_AT_symbol_name("_copyimg_ptr_l")
     415                            .dwattr DW$106, DW_AT_location[DW_OP_addr _copyimg_ptr_l]
     416                            .dwattr DW$106, DW_AT_type(*DW$T$70)
     417                            .dwattr DW$106, DW_AT_external(0x01)
     418                            .global _copyimg_ptr_r
     419 00000024           _copyimg_ptr_r: .usect  ".far",4,4
     420                    DW$107  .dwtag  DW_TAG_variable, DW_AT_name("copyimg_ptr_r"), DW_AT_symbol_name("_copyimg_ptr_r")
     421                            .dwattr DW$107, DW_AT_location[DW_OP_addr _copyimg_ptr_r]
     422                            .dwattr DW$107, DW_AT_type(*DW$T$70)
     423                            .dwattr DW$107, DW_AT_external(0x01)
     424                    DW$108  .dwtag  DW_TAG_variable, DW_AT_name("BUF_capFrame"), DW_AT_symbol_name("_BUF_capFrame")
     425                            .dwattr DW$108, DW_AT_type(*DW$T$241)
     426                            .dwattr DW$108, DW_AT_declaration(0x01)
     427                            .dwattr DW$108, DW_AT_external(0x01)
     428                            .global _buffFramePoolHandle
     429 00000028           _buffFramePoolHandle:   .usect  ".far",4,4
     430                    DW$109  .dwtag  DW_TAG_variable, DW_AT_name("buffFramePoolHandle"), DW_AT_symbol_name("_buffFramePoolH
     431                            .dwattr DW$109, DW_AT_location[DW_OP_addr _buffFramePoolHandle]
     432                            .dwattr DW$109, DW_AT_type(*DW$T$153)
     433                            .dwattr DW$109, DW_AT_external(0x01)
     434                            .global _capframe_ptr_l
     435 0000002c           _capframe_ptr_l:        .usect  ".far",4,4
     436                    DW$110  .dwtag  DW_TAG_variable, DW_AT_name("capframe_ptr_l"), DW_AT_symbol_name("_capframe_ptr_l")
     437                            .dwattr DW$110, DW_AT_location[DW_OP_addr _capframe_ptr_l]
     438                            .dwattr DW$110, DW_AT_type(*DW$T$70)
     439                            .dwattr DW$110, DW_AT_external(0x01)
     440                            .global _capframe_ptr_r
TMS320C6x COFF Assembler PC v5.1.0 Fri Mar 25 16:51:07 2011

Tools Copyright (c) 1996-2005 Texas Instruments Incorporated
C:\DOCUME~1\yqhe\LOCALS~1\Temp\TI2522                                PAGE    9

     441 00000030           _capframe_ptr_r:        .usect  ".far",4,4
     442                    DW$111  .dwtag  DW_TAG_variable, DW_AT_name("capframe_ptr_r"), DW_AT_symbol_name("_capframe_ptr_r")
     443                            .dwattr DW$111, DW_AT_location[DW_OP_addr _capframe_ptr_r]
     444                            .dwattr DW$111, DW_AT_type(*DW$T$70)
     445                            .dwattr DW$111, DW_AT_external(0x01)
     446                    DW$112  .dwtag  DW_TAG_variable, DW_AT_name("BUF_imgCap"), DW_AT_symbol_name("_BUF_imgCap")
     447                            .dwattr DW$112, DW_AT_type(*DW$T$241)
     448                            .dwattr DW$112, DW_AT_declaration(0x01)
     449                            .dwattr DW$112, DW_AT_external(0x01)
     450                            .global _PoolHandle
     451 00000034           _PoolHandle:    .usect  ".far",4,4
     452                    DW$113  .dwtag  DW_TAG_variable, DW_AT_name("PoolHandle"), DW_AT_symbol_name("_PoolHandle")
     453                            .dwattr DW$113, DW_AT_location[DW_OP_addr _PoolHandle]
     454                            .dwattr DW$113, DW_AT_type(*DW$T$153)
     455                            .dwattr DW$113, DW_AT_external(0x01)
     456                            .global _tmp_buf_l
     457 00000038           _tmp_buf_l:     .usect  ".far",4,4
     458                    DW$114  .dwtag  DW_TAG_variable, DW_AT_name("tmp_buf_l"), DW_AT_symbol_name("_tmp_buf_l")
     459                            .dwattr DW$114, DW_AT_location[DW_OP_addr _tmp_buf_l]
     460                            .dwattr DW$114, DW_AT_type(*DW$T$70)
     461                            .dwattr DW$114, DW_AT_external(0x01)
     462                            .global _tmp_buf_r
     463 0000003c           _tmp_buf_r:     .usect  ".far",4,4
     464                    DW$115  .dwtag  DW_TAG_variable, DW_AT_name("tmp_buf_r"), DW_AT_symbol_name("_tmp_buf_r")
     465                            .dwattr DW$115, DW_AT_location[DW_OP_addr _tmp_buf_r]
     466                            .dwattr DW$115, DW_AT_type(*DW$T$70)
     467                            .dwattr DW$115, DW_AT_external(0x01)
     468                            .global _tsk_used_reg
     469 00000040           _tsk_used_reg:  .usect  ".far",4,4
     470                    DW$116  .dwtag  DW_TAG_variable, DW_AT_name("tsk_used_reg"), DW_AT_symbol_name("_tsk_used_reg")
     471                            .dwattr DW$116, DW_AT_location[DW_OP_addr _tsk_used_reg]
     472                            .dwattr DW$116, DW_AT_type(*DW$T$248)
     473                            .dwattr DW$116, DW_AT_external(0x01)
     474                            .global _dsp_used_reg
     475 00000044           _dsp_used_reg:  .usect  ".far",180,4
     476                    DW$117  .dwtag  DW_TAG_variable, DW_AT_name("dsp_used_reg"), DW_AT_symbol_name("_dsp_used_reg")
     477                            .dwattr DW$117, DW_AT_location[DW_OP_addr _dsp_used_reg]
     478                            .dwattr DW$117, DW_AT_type(*DW$T$249)
     479                            .dwattr DW$117, DW_AT_external(0x01)
     480                            .global _match_msg
     481 000000f8           _match_msg:     .usect  ".far",4,4
     482                    DW$118  .dwtag  DW_TAG_variable, DW_AT_name("match_msg"), DW_AT_symbol_name("_match_msg")
     483                            .dwattr DW$118, DW_AT_location[DW_OP_addr _match_msg]
     484                            .dwattr DW$118, DW_AT_type(*DW$T$252)
     485                            .dwattr DW$118, DW_AT_external(0x01)
     486                            .global _switch_test
     487 000000fc           _switch_test:   .usect  ".far",4,4
     488                    DW$119  .dwtag  DW_TAG_variable, DW_AT_name("switch_test"), DW_AT_symbol_name("_switch_test")
     489                            .dwattr DW$119, DW_AT_location[DW_OP_addr _switch_test]
     490                            .dwattr DW$119, DW_AT_type(*DW$T$10)
     491                            .dwattr DW$119, DW_AT_external(0x01)
     492                            .global _switch_count
     493 00000100           _switch_count:  .usect  ".far",4,4
     494                    DW$120  .dwtag  DW_TAG_variable, DW_AT_name("switch_count"), DW_AT_symbol_name("_switch_count")
     495                            .dwattr DW$120, DW_AT_location[DW_OP_addr _switch_count]
TMS320C6x COFF Assembler PC v5.1.0 Fri Mar 25 16:51:07 2011

Tools Copyright (c) 1996-2005 Texas Instruments Incorporated
C:\DOCUME~1\yqhe\LOCALS~1\Temp\TI2522                                PAGE   10

     496                            .dwattr DW$120, DW_AT_type(*DW$T$10)
     497                            .dwattr DW$120, DW_AT_external(0x01)
     498                            .global _test_count
     499 00000104           _test_count:    .usect  ".far",4,4
     500                    DW$121  .dwtag  DW_TAG_variable, DW_AT_name("test_count"), DW_AT_symbol_name("_test_count")
     501                            .dwattr DW$121, DW_AT_location[DW_OP_addr _test_count]
     502                            .dwattr DW$121, DW_AT_type(*DW$T$10)
     503                            .dwattr DW$121, DW_AT_external(0x01)
     504                            .global _cur_ccd_val
     505 00000108           _cur_ccd_val:   .usect  ".far",4,4
     506                    DW$122  .dwtag  DW_TAG_variable, DW_AT_name("cur_ccd_val"), DW_AT_symbol_name("_cur_ccd_val")
     507                            .dwattr DW$122, DW_AT_location[DW_OP_addr _cur_ccd_val]
     508                            .dwattr DW$122, DW_AT_type(*DW$T$19)
     509                            .dwattr DW$122, DW_AT_external(0x01)
     510                            .global _ENROLL_RESULT_ADDR
     511 0000010c           _ENROLL_RESULT_ADDR:    .usect  ".far",4,4
     512                    DW$123  .dwtag  DW_TAG_variable, DW_AT_name("ENROLL_RESULT_ADDR"), DW_AT_symbol_name("_ENROLL_RESULT_A
     513                            .dwattr DW$123, DW_AT_location[DW_OP_addr _ENROLL_RESULT_ADDR]
     514                            .dwattr DW$123, DW_AT_type(*DW$T$232)
     515                            .dwattr DW$123, DW_AT_external(0x01)
     516                            .global _ENROLL_LEFT_STRUCT_ADDR1
     517 00000110           _ENROLL_LEFT_STRUCT_ADDR1:      .usect  ".far",4,4
     518                    DW$124  .dwtag  DW_TAG_variable, DW_AT_name("ENROLL_LEFT_STRUCT_ADDR1"), DW_AT_symbol_name("_ENROLL_LE
     519                            .dwattr DW$124, DW_AT_location[DW_OP_addr _ENROLL_LEFT_STRUCT_ADDR1]
     520                            .dwattr DW$124, DW_AT_type(*DW$T$232)
     521                            .dwattr DW$124, DW_AT_external(0x01)
     522                            .global _ENROLL_RIGHT_STRUCT_ADDR1
     523 00000114           _ENROLL_RIGHT_STRUCT_ADDR1:     .usect  ".far",4,4
     524                    DW$125  .dwtag  DW_TAG_variable, DW_AT_name("ENROLL_RIGHT_STRUCT_ADDR1"), DW_AT_symbol_name("_ENROLL_R
     525                            .dwattr DW$125, DW_AT_location[DW_OP_addr _ENROLL_RIGHT_STRUCT_ADDR1]
     526                            .dwattr DW$125, DW_AT_type(*DW$T$232)
     527                            .dwattr DW$125, DW_AT_external(0x01)
     528                            .global _ENROLL_RESULT_TOTAL_LEN
     529 00000118           _ENROLL_RESULT_TOTAL_LEN:       .usect  ".far",4,4
     530                    DW$126  .dwtag  DW_TAG_variable, DW_AT_name("ENROLL_RESULT_TOTAL_LEN"), DW_AT_symbol_name("_ENROLL_RES
     531                            .dwattr DW$126, DW_AT_location[DW_OP_addr _ENROLL_RESULT_TOTAL_LEN]
     532                            .dwattr DW$126, DW_AT_type(*DW$T$232)
     533                            .dwattr DW$126, DW_AT_external(0x01)
     534                            .global _ENROLL_RESULT_MAX_LEN
     535 0000011c           _ENROLL_RESULT_MAX_LEN: .usect  ".far",4,4
     536                    DW$127  .dwtag  DW_TAG_variable, DW_AT_name("ENROLL_RESULT_MAX_LEN"), DW_AT_symbol_name("_ENROLL_RESUL
     537                            .dwattr DW$127, DW_AT_location[DW_OP_addr _ENROLL_RESULT_MAX_LEN]
     538                            .dwattr DW$127, DW_AT_type(*DW$T$232)
     539                            .dwattr DW$127, DW_AT_external(0x01)
     540                            .global _ENROLL_FEATURE_STRUCT_OFFSET
     541 00000120           _ENROLL_FEATURE_STRUCT_OFFSET:  .usect  ".far",4,4
     542                    DW$128  .dwtag  DW_TAG_variable, DW_AT_name("ENROLL_FEATURE_STRUCT_OFFSET"), DW_AT_symbol_name("_ENROL
     543                            .dwattr DW$128, DW_AT_location[DW_OP_addr _ENROLL_FEATURE_STRUCT_OFFSET]
     544                            .dwattr DW$128, DW_AT_type(*DW$T$232)
     545                            .dwattr DW$128, DW_AT_external(0x01)
     546                            .global _ENROLL_FEATURE_DATA_OFFSET
     547 00000124           _ENROLL_FEATURE_DATA_OFFSET:    .usect  ".far",4,4
     548                    DW$129  .dwtag  DW_TAG_variable, DW_AT_name("ENROLL_FEATURE_DATA_OFFSET"), DW_AT_symbol_name("_ENROLL_
     549                            .dwattr DW$129, DW_AT_location[DW_OP_addr _ENROLL_FEATURE_DATA_OFFSET]
     550                            .dwattr DW$129, DW_AT_type(*DW$T$232)
TMS320C6x COFF Assembler PC v5.1.0 Fri Mar 25 16:51:07 2011

Tools Copyright (c) 1996-2005 Texas Instruments Incorporated
C:\DOCUME~1\yqhe\LOCALS~1\Temp\TI2522                                PAGE   11

     551                            .dwattr DW$129, DW_AT_external(0x01)
     552                            .global _ENROLL_IMAGE_STRUCT_OFFSET
     553 00000128           _ENROLL_IMAGE_STRUCT_OFFSET:    .usect  ".far",4,4
     554                    DW$130  .dwtag  DW_TAG_variable, DW_AT_name("ENROLL_IMAGE_STRUCT_OFFSET"), DW_AT_symbol_name("_ENROLL_
     555                            .dwattr DW$130, DW_AT_location[DW_OP_addr _ENROLL_IMAGE_STRUCT_OFFSET]
     556                            .dwattr DW$130, DW_AT_type(*DW$T$232)
     557                            .dwattr DW$130, DW_AT_external(0x01)
     558                            .global _ENROLL_BMPHEAD_DATA_OFFSET
     559 0000012c           _ENROLL_BMPHEAD_DATA_OFFSET:    .usect  ".far",4,4
     560                    DW$131  .dwtag  DW_TAG_variable, DW_AT_name("ENROLL_BMPHEAD_DATA_OFFSET"), DW_AT_symbol_name("_ENROLL_
     561                            .dwattr DW$131, DW_AT_location[DW_OP_addr _ENROLL_BMPHEAD_DATA_OFFSET]
     562                            .dwattr DW$131, DW_AT_type(*DW$T$232)
     563                            .dwattr DW$131, DW_AT_external(0x01)
     564                            .global _ENROLL_IMAGE_DATA_OFFSET
     565 00000130           _ENROLL_IMAGE_DATA_OFFSET:      .usect  ".far",4,4
     566                    DW$132  .dwtag  DW_TAG_variable, DW_AT_name("ENROLL_IMAGE_DATA_OFFSET"), DW_AT_symbol_name("_ENROLL_IM
     567                            .dwattr DW$132, DW_AT_location[DW_OP_addr _ENROLL_IMAGE_DATA_OFFSET]
     568                            .dwattr DW$132, DW_AT_type(*DW$T$232)
     569                            .dwattr DW$132, DW_AT_external(0x01)
     570                            .global _IMG_ICON_START_ADDR
     571 00000134           _IMG_ICON_START_ADDR:   .usect  ".far",4,4
     572                    DW$133  .dwtag  DW_TAG_variable, DW_AT_name("IMG_ICON_START_ADDR"), DW_AT_symbol_name("_IMG_ICON_START
     573                            .dwattr DW$133, DW_AT_location[DW_OP_addr _IMG_ICON_START_ADDR]
     574                            .dwattr DW$133, DW_AT_type(*DW$T$232)
     575                            .dwattr DW$133, DW_AT_external(0x01)
     576                            .global _IMG_ICON_MASK_START_ADDR
     577 00000138           _IMG_ICON_MASK_START_ADDR:      .usect  ".far",4,4
     578                    DW$134  .dwtag  DW_TAG_variable, DW_AT_name("IMG_ICON_MASK_START_ADDR"), DW_AT_symbol_name("_IMG_ICON_
     579                            .dwattr DW$134, DW_AT_location[DW_OP_addr _IMG_ICON_MASK_START_ADDR]
     580                            .dwattr DW$134, DW_AT_type(*DW$T$232)
     581                            .dwattr DW$134, DW_AT_external(0x01)
     582                            .global _IMG_FEATURE_COUNT
     583 0000013c           _IMG_FEATURE_COUNT:     .usect  ".far",4,4
     584                    DW$135  .dwtag  DW_TAG_variable, DW_AT_name("IMG_FEATURE_COUNT"), DW_AT_symbol_name("_IMG_FEATURE_COUN
     585                            .dwattr DW$135, DW_AT_location[DW_OP_addr _IMG_FEATURE_COUNT]
     586                            .dwattr DW$135, DW_AT_type(*DW$T$232)
     587                            .dwattr DW$135, DW_AT_external(0x01)
     588                            .global _IMG_FEATURE_STRUCT_TOTALSIZE
     589 00000140           _IMG_FEATURE_STRUCT_TOTALSIZE:  .usect  ".far",4,4
     590                    DW$136  .dwtag  DW_TAG_variable, DW_AT_name("IMG_FEATURE_STRUCT_TOTALSIZE"), DW_AT_symbol_name("_IMG_F
     591                            .dwattr DW$136, DW_AT_location[DW_OP_addr _IMG_FEATURE_STRUCT_TOTALSIZE]
     592                            .dwattr DW$136, DW_AT_type(*DW$T$232)
     593                            .dwattr DW$136, DW_AT_external(0x01)
     594                            .global _IMG_FEATURE_LEFT_STRUCT_ADDR
     595 00000144           _IMG_FEATURE_LEFT_STRUCT_ADDR:  .usect  ".far",4,4
     596                    DW$137  .dwtag  DW_TAG_variable, DW_AT_name("IMG_FEATURE_LEFT_STRUCT_ADDR"), DW_AT_symbol_name("_IMG_F
     597                            .dwattr DW$137, DW_AT_location[DW_OP_addr _IMG_FEATURE_LEFT_STRUCT_ADDR]
     598                            .dwattr DW$137, DW_AT_type(*DW$T$232)
     599                            .dwattr DW$137, DW_AT_external(0x01)
     600                            .global _IMG_FEATURE_LEFT_ADDR
     601 00000148           _IMG_FEATURE_LEFT_ADDR: .usect  ".far",4,4
     602                    DW$138  .dwtag  DW_TAG_variable, DW_AT_name("IMG_FEATURE_LEFT_ADDR"), DW_AT_symbol_name("_IMG_FEATURE_
     603                            .dwattr DW$138, DW_AT_location[DW_OP_addr _IMG_FEATURE_LEFT_ADDR]
     604                            .dwattr DW$138, DW_AT_type(*DW$T$232)
     605                            .dwattr DW$138, DW_AT_external(0x01)
TMS320C6x COFF Assembler PC v5.1.0 Fri Mar 25 16:51:07 2011

Tools Copyright (c) 1996-2005 Texas Instruments Incorporated
C:\DOCUME~1\yqhe\LOCALS~1\Temp\TI2522                                PAGE   12

     606                            .global _IMG_FEATURE_RIGHT_STRUCT_ADDR
     607 0000014c           _IMG_FEATURE_RIGHT_STRUCT_ADDR: .usect  ".far",4,4
     608                    DW$139  .dwtag  DW_TAG_variable, DW_AT_name("IMG_FEATURE_RIGHT_STRUCT_ADDR"), DW_AT_symbol_name("_IMG_
     609                            .dwattr DW$139, DW_AT_location[DW_OP_addr _IMG_FEATURE_RIGHT_STRUCT_ADDR]
     610                            .dwattr DW$139, DW_AT_type(*DW$T$232)
     611                            .dwattr DW$139, DW_AT_external(0x01)
     612                            .global _IMG_FEATURE_RIGHT_ADDR
     613 00000150           _IMG_FEATURE_RIGHT_ADDR:        .usect  ".far",4,4
     614                    DW$140  .dwtag  DW_TAG_variable, DW_AT_name("IMG_FEATURE_RIGHT_ADDR"), DW_AT_symbol_name("_IMG_FEATURE
     615                            .dwattr DW$140, DW_AT_location[DW_OP_addr _IMG_FEATURE_RIGHT_ADDR]
     616                            .dwattr DW$140, DW_AT_type(*DW$T$232)
     617                            .dwattr DW$140, DW_AT_external(0x01)
     618                            .global _IMG_FEATURE_DATA_OFFSET
     619 00000154           _IMG_FEATURE_DATA_OFFSET:       .usect  ".far",4,4
     620                    DW$141  .dwtag  DW_TAG_variable, DW_AT_name("IMG_FEATURE_DATA_OFFSET"), DW_AT_symbol_name("_IMG_FEATUR
     621                            .dwattr DW$141, DW_AT_location[DW_OP_addr _IMG_FEATURE_DATA_OFFSET]
     622                            .dwattr DW$141, DW_AT_type(*DW$T$232)
     623                            .dwattr DW$141, DW_AT_external(0x01)
     624                    ;       E:\CCStudio_v3.1\C6000\cgtools\bin\acp6x.exe -@C:\DOCUME~1\yqhe\LOCALS~1\Temp\TI2524 
     625 00000000                   .sect   ".text"
     626                            .global _CACHE_inv_area
     627                    
     628                    DW$142  .dwtag  DW_TAG_subprogram, DW_AT_name("CACHE_inv_area"), DW_AT_symbol_name("_CACHE_inv_area")
     629                            .dwattr DW$142, DW_AT_low_pc(_CACHE_inv_area)
     630                            .dwattr DW$142, DW_AT_high_pc(0x00)
     631                            .dwattr DW$142, DW_AT_begin_file("VideoInput2.c")
     632                            .dwattr DW$142, DW_AT_begin_line(0x23)
     633                            .dwattr DW$142, DW_AT_begin_column(0x06)
     634                            .dwpsn  "VideoInput2.c",36,1
     635                    
     636                            .dwfde DW$CIE
     637                    
     638                    ;******************************************************************************
     639                    ;* FUNCTION NAME: _CACHE_inv_area                                             *
     640                    ;*                                                                            *
     641                    ;*   Regs Modified     : A0,A1,A2,A3,A4,A5,A6,A7,A8,A9,B0,B1,B2,B3,B4,B5,B6,  *
     642                    ;*                           B7,B8,B9,SP,A16,A17,A18,A19,A20,A21,A22,A23,A24, *
     643                    ;*                           A25,A26,A27,A28,A29,A30,A31,B16,B17,B18,B19,B20, *
     644                    ;*                           B21,B22,B23,B24,B25,B26,B27,B28,B29,B30,B31      *
     645                    ;*   Regs Used         : A0,A1,A2,A3,A4,A5,A6,A7,A8,A9,B0,B1,B2,B3,B4,B5,B6,  *
     646                    ;*                           B7,B8,B9,SP,A16,A17,A18,A19,A20,A21,A22,A23,A24, *
     647                    ;*                           A25,A26,A27,A28,A29,A30,A31,B16,B17,B18,B19,B20, *
     648                    ;*                           B21,B22,B23,B24,B25,B26,B27,B28,B29,B30,B31      *
     649                    ;*   Local Frame Size  : 0 Args + 12 Auto + 4 Save = 16 byte                  *
     650                    ;******************************************************************************
     651                    _CACHE_inv_area:
     652                    ;** --------------------------------------------------------------------------*
     653                            .dwcfa  0x0e, 0
     654                            .dwcfa  0x09, 126, 19
     655 00000000 01BC94F6             STW     .D2T2   B3,*SP--(16)      ; |36| 
     656 00000004 00002000             NOP             2
     657                            .dwcfa  0x0e, 16
     658                            .dwcfa  0x80, 19, 0
     659                    DW$143  .dwtag  DW_TAG_formal_parameter, DW_AT_name("ptr"), DW_AT_symbol_name("_ptr")
     660                            .dwattr DW$143, DW_AT_type(*DW$T$42)
TMS320C6x COFF Assembler PC v5.1.0 Fri Mar 25 16:51:07 2011

Tools Copyright (c) 1996-2005 Texas Instruments Incorporated
C:\DOCUME~1\yqhe\LOCALS~1\Temp\TI2522                                PAGE   13

     661                            .dwattr DW$143, DW_AT_location[DW_OP_reg4]
     662                    DW$144  .dwtag  DW_TAG_formal_parameter, DW_AT_name("size"), DW_AT_symbol_name("_size")
     663                            .dwattr DW$144, DW_AT_type(*DW$T$10)
     664                            .dwattr DW$144, DW_AT_location[DW_OP_reg20]
     665                    DW$145  .dwtag  DW_TAG_variable, DW_AT_name("ptr"), DW_AT_symbol_name("_ptr")
     666                            .dwattr DW$145, DW_AT_type(*DW$T$42)
     667                            .dwattr DW$145, DW_AT_location[DW_OP_breg31 4]
     668                    DW$146  .dwtag  DW_TAG_variable, DW_AT_name("size"), DW_AT_symbol_name("_size")
     669                            .dwattr DW$146, DW_AT_type(*DW$T$10)
     670                            .dwattr DW$146, DW_AT_location[DW_OP_breg31 8]
     671                    DW$147  .dwtag  DW_TAG_variable, DW_AT_name("max"), DW_AT_symbol_name("_max")
     672                            .dwattr DW$147, DW_AT_type(*DW$T$10)
     673                            .dwattr DW$147, DW_AT_location[DW_OP_breg31 12]
     674 00000008 023C42F6             STW     .D2T2   B4,*+SP(8)        ; |36| 
     675 0000000c 023C22F4             STW     .D2T1   A4,*+SP(4)        ; |36| 
     676 00000010 00002000             NOP             2
     677                            .dwpsn  "VideoInput2.c",37,6
     678 00000014 0180A358             ZERO    .L1     A3                ; |37| 
     679 00000018 018001E8             MVKH    .S1     0x30000,A3        ; |37| 
     680 0000001c 01BC62F4             STW     .D2T1   A3,*+SP(12)       ; |37| 
     681 00000020 00000000             NOP             1
     682                            .dwpsn  "VideoInput2.c",38,8
     683                    ;*----------------------------------------------------------------------------*
     684                    ;*   SOFTWARE PIPELINE INFORMATION
     685                    ;*      Disqualified loop: Software pipelining disabled
     686                    ;*----------------------------------------------------------------------------*
     687                    L1:    
     688                    DW$L$_CACHE_inv_area$2$B:
     689                            .dwpsn  "VideoInput2.c",40,3
     690 00000024 023C62E6             LDW     .D2T2   *+SP(12),B4       ; |40| 
     691 00000028 02BC42E6             LDW     .D2T2   *+SP(8),B5        ; |40| 
     692 0000002c 00006000             NOP             4
     693 00000030 0010A8FA             CMPGT   .L2     B5,B4,B0          ; |40| 
     694 00000034 301AA120     [!B0]   BNOP    .S1     L2,5              ; |40| 
     695                               ; BRANCHCC OCCURS {L2}            ; |40| 
     696                    DW$L$_CACHE_inv_area$2$E:
     697                    ;** --------------------------------------------------------------------------*
     698                    DW$L$_CACHE_inv_area$3$B:
     699                            .dwpsn  "VideoInput2.c",42,4
     700 00000038 01800028!            MVKL    .S1     _CACHE_invL2,A3   ; |42| 
     701 0000003c 01800068!            MVKH    .S1     _CACHE_invL2,A3   ; |42| 
     702                    
     703 00000040 000C1363             CALL    .S2X    A3                ; |42| 
     704 00000044 023C22E4  ||         LDW     .D2T1   *+SP(4),A4        ; |42| 
     705                    
     706 00000048 023C62E6             LDW     .D2T2   *+SP(12),B4       ; |42| 
     707 0000004c 01854162             ADDKPC  .S2     RL0,B3,2          ; |42| 
     708 00000050 0300A358             ZERO    .L1     A6                ; |42| 
     709                    RL0:       ; CALL OCCURS {_CACHE_invL2}      ; |42| 
     710                            .dwpsn  "VideoInput2.c",43,4
     711 00000054 02BC42E6             LDW     .D2T2   *+SP(8),B5        ; |43| 
     712 00000058 023C62E6             LDW     .D2T2   *+SP(12),B4       ; |43| 
     713 0000005c 00006000             NOP             4
     714 00000060 0210A0FA             SUB     .L2     B5,B4,B4          ; |43| 
     715 00000064 023C42F6             STW     .D2T2   B4,*+SP(8)        ; |43| 
TMS320C6x COFF Assembler PC v5.1.0 Fri Mar 25 16:51:07 2011

Tools Copyright (c) 1996-2005 Texas Instruments Incorporated
C:\DOCUME~1\yqhe\LOCALS~1\Temp\TI2522                                PAGE   14

     716 00000068 00002000             NOP             2
     717                            .dwpsn  "VideoInput2.c",44,4
     718 0000006c 023C22E6             LDW     .D2T2   *+SP(4),B4        ; |44| 
     719 00000070 02BC62E6             LDW     .D2T2   *+SP(12),B5       ; |44| 
     720 00000074 00006000             NOP             4
     721 00000078 0210A07A             ADD     .L2     B5,B4,B4          ; |44| 
     722 0000007c 023C22F6             STW     .D2T2   B4,*+SP(4)        ; |44| 
     723 00000080 00002000             NOP             2
     724                            .dwpsn  "VideoInput2.c",45,3
     725 00000084 0FE9A120             BNOP    .S1     L1,5              ; |45| 
     726                               ; BRANCH OCCURS {L1}              ; |45| 
     727                    DW$L$_CACHE_inv_area$3$E:
     728                    ;** --------------------------------------------------------------------------*
     729                    L2:    
     730                            .dwpsn  "VideoInput2.c",48,4
     731 00000088 01800028!            MVKL    .S1     _CACHE_invL2,A3   ; |48| 
     732 0000008c 01800068!            MVKH    .S1     _CACHE_invL2,A3   ; |48| 
     733                    
     734 00000090 000C1363             CALL    .S2X    A3                ; |48| 
     735 00000094 023C22E4  ||         LDW     .D2T1   *+SP(4),A4        ; |48| 
     736                    
     737 00000098 023C42E6             LDW     .D2T2   *+SP(8),B4        ; |48| 
     738 0000009c 01894162             ADDKPC  .S2     RL1,B3,2          ; |48| 
     739 000000a0 0304A358             MVK     .L1     0x1,A6            ; |48| 
     740                    RL1:       ; CALL OCCURS {_CACHE_invL2}      ; |48| 
     741                            .dwpsn  "VideoInput2.c",49,4
     742 000000a4 0002A120             BNOP    .S1     L3,5              ; |49| 
     743                               ; BRANCH OCCURS {L3}              ; |49| 
     744                    ;** --------------------------------------------------------------------------*
     745                    ;** --------------------------------------------------------------------------*
     746                    L3:    
     747                            .dwpsn  "VideoInput2.c",52,1
     748 000000a8 01BC92E6             LDW     .D2T2   *++SP(16),B3      ; |52| 
     749 000000ac 00006000             NOP             4
     750                            .dwcfa  0xc0, 19
     751                            .dwcfa  0x0e, 0
     752 000000b0 008CA362             RETNOP  .S2     B3,5              ; |52| 
     753                               ; BRANCH OCCURS {B3}              ; |52| 
     754                    
     755                    DW$148  .dwtag  DW_TAG_loop
     756                            .dwattr DW$148, DW_AT_name("C:\DOCUME~1\yqhe\LOCALS~1\Temp\TI2522:L1:1:1301043066")
     757                            .dwattr DW$148, DW_AT_begin_file("VideoInput2.c")
     758                            .dwattr DW$148, DW_AT_begin_line(0x26)
     759                            .dwattr DW$148, DW_AT_end_line(0x33)
     760                    DW$149  .dwtag  DW_TAG_loop_range
     761                            .dwattr DW$149, DW_AT_low_pc(DW$L$_CACHE_inv_area$2$B)
     762                            .dwattr DW$149, DW_AT_high_pc(DW$L$_CACHE_inv_area$2$E)
     763                    DW$150  .dwtag  DW_TAG_loop_range
     764                            .dwattr DW$150, DW_AT_low_pc(DW$L$_CACHE_inv_area$3$B)
     765                            .dwattr DW$150, DW_AT_high_pc(DW$L$_CACHE_inv_area$3$E)
     766                            .dwendtag DW$148
     767                    
     768                            .dwattr DW$142, DW_AT_end_file("VideoInput2.c")
     769                            .dwattr DW$142, DW_AT_end_line(0x34)
     770                            .dwattr DW$142, DW_AT_end_column(0x01)
TMS320C6x COFF Assembler PC v5.1.0 Fri Mar 25 16:51:07 2011

Tools Copyright (c) 1996-2005 Texas Instruments Incorporated
C:\DOCUME~1\yqhe\LOCALS~1\Temp\TI2522                                PAGE   15

     771                            .dwendentry
     772                            .dwendtag DW$142
     773                    
     774 000000b4                   .sect   ".text"
     775                            .global _TVP5150_config
     776                    
     777                    DW$151  .dwtag  DW_TAG_subprogram, DW_AT_name("TVP5150_config"), DW_AT_symbol_name("_TVP5150_config")
     778                            .dwattr DW$151, DW_AT_low_pc(_TVP5150_config)
     779                            .dwattr DW$151, DW_AT_high_pc(0x00)
     780                            .dwattr DW$151, DW_AT_begin_file("VideoInput2.c")
     781                            .dwattr DW$151, DW_AT_begin_line(0x42)
     782                            .dwattr DW$151, DW_AT_begin_column(0x06)
     783                            .dwpsn  "VideoInput2.c",67,1
     784                    
     785                            .dwfde DW$CIE
     786                    
     787                    ;******************************************************************************
     788                    ;* FUNCTION NAME: _TVP5150_config                                             *
     789                    ;*                                                                            *
     790                    ;*   Regs Modified     : A0,A1,A2,A3,A4,A5,A6,A7,A8,A9,B0,B1,B2,B3,B4,B5,B6,  *
     791                    ;*                           B7,B8,B9,SP,A16,A17,A18,A19,A20,A21,A22,A23,A24, *
     792                    ;*                           A25,A26,A27,A28,A29,A30,A31,B16,B17,B18,B19,B20, *
     793                    ;*                           B21,B22,B23,B24,B25,B26,B27,B28,B29,B30,B31      *
     794                    ;*   Regs Used         : A0,A1,A2,A3,A4,A5,A6,A7,A8,A9,B0,B1,B2,B3,B4,B5,B6,  *
     795                    ;*                           B7,B8,B9,SP,A16,A17,A18,A19,A20,A21,A22,A23,A24, *
     796                    ;*                           A25,A26,A27,A28,A29,A30,A31,B16,B17,B18,B19,B20, *
     797                    ;*                           B21,B22,B23,B24,B25,B26,B27,B28,B29,B30,B31      *
     798                    ;*   Local Frame Size  : 0 Args + 16 Auto + 4 Save = 20 byte                  *
     799                    ;******************************************************************************
     800                    _TVP5150_config:
     801                    ;** --------------------------------------------------------------------------*
     802                            .dwcfa  0x0e, 0
     803                            .dwcfa  0x09, 126, 19
     804 000000b4 01BCD4F6             STW     .D2T2   B3,*SP--(24)      ; |67| 
     805 000000b8 00002000             NOP             2
     806                            .dwcfa  0x0e, 24
     807                            .dwcfa  0x80, 19, 0
     808                    DW$152  .dwtag  DW_TAG_formal_parameter, DW_AT_name("hI2C"), DW_AT_symbol_name("_hI2C")
     809                            .dwattr DW$152, DW_AT_type(*DW$T$180)
     810                            .dwattr DW$152, DW_AT_location[DW_OP_reg4]
     811                    DW$153  .dwtag  DW_TAG_formal_parameter, DW_AT_name("channel"), DW_AT_symbol_name("_channel")
     812                            .dwattr DW$153, DW_AT_type(*DW$T$10)
     813                            .dwattr DW$153, DW_AT_location[DW_OP_reg20]
     814                    DW$154  .dwtag  DW_TAG_variable, DW_AT_name("hI2C"), DW_AT_symbol_name("_hI2C")
     815                            .dwattr DW$154, DW_AT_type(*DW$T$180)
     816                            .dwattr DW$154, DW_AT_location[DW_OP_breg31 4]
     817                    DW$155  .dwtag  DW_TAG_variable, DW_AT_name("channel"), DW_AT_symbol_name("_channel")
     818                            .dwattr DW$155, DW_AT_type(*DW$T$10)
     819                            .dwattr DW$155, DW_AT_location[DW_OP_breg31 8]
     820                    DW$156  .dwtag  DW_TAG_variable, DW_AT_name("i2c_addr"), DW_AT_symbol_name("_i2c_addr")
     821                            .dwattr DW$156, DW_AT_type(*DW$T$10)
     822                            .dwattr DW$156, DW_AT_location[DW_OP_breg31 12]
     823                    DW$157  .dwtag  DW_TAG_variable, DW_AT_name("v"), DW_AT_symbol_name("_v")
     824                            .dwattr DW$157, DW_AT_type(*DW$T$10)
     825                            .dwattr DW$157, DW_AT_location[DW_OP_breg31 16]
TMS320C6x COFF Assembler PC v5.1.0 Fri Mar 25 16:51:07 2011

Tools Copyright (c) 1996-2005 Texas Instruments Incorporated
C:\DOCUME~1\yqhe\LOCALS~1\Temp\TI2522                                PAGE   16

     826                    
     827 000000bc 023C42F7             STW     .D2T2   B4,*+SP(8)        ; |67| 
     828 000000c0 02901FDA  ||         MV      .L2X    A4,B5             ; |67| 
     829                    
     830 000000c4 02BC22F6             STW     .D2T2   B5,*+SP(4)        ; |67| 
     831 000000c8 00002000             NOP             2
     832                            .dwpsn  "VideoInput2.c",68,6
     833 000000cc 0FFFE810!            CALL    .S1     __tvp5150_i2c_addr ; |68| 
     834 000000d0 01866162             ADDKPC  .S2     RL2,B3,3          ; |68| 
     835 000000d4 02101FD8             MV      .L1X    B4,A4             ; |68| 
     836 000000d8           RL2:       ; CALL OCCURS {__tvp5150_i2c_addr}  ; |68| 
     837 000000d8 023C62F4             STW     .D2T1   A4,*+SP(12)       ; |68| 
     838 000000dc 00002000             NOP             2
     839                            .dwpsn  "VideoInput2.c",73,3
     840 000000e0 0200482A             MVK     .S2     144,B4            ; |73| 
     841 000000e4 023C82F6             STW     .D2T2   B4,*+SP(16)       ; |73| 
     842 000000e8 00002000             NOP             2
     843                            .dwpsn  "VideoInput2.c",74,6
     844                    
     845 000000ec 0FFFE411!            CALL    .S1     __IIC_write       ; |74| 
     846 000000f0 023C22E4  ||         LDW     .D2T1   *+SP(4),A4        ; |74| 
     847                    
     848 000000f4 023C62E6             LDW     .D2T2   *+SP(12),B4       ; |74| 
     849 000000f8 018A0162             ADDKPC  .S2     RL3,B3,0          ; |74| 
     850 000000fc 033E0942             ADD     .D2     SP,16,B6          ; |74| 
     851 00000100 0404A358             MVK     .L1     0x1,A8            ; |74| 
     852 00000104 03000628             MVK     .S1     0xc,A6            ; |74| 
     853                    RL3:       ; CALL OCCURS {__IIC_write}       ; |74| 
     854                            .dwpsn  "VideoInput2.c",77,3
     855 00000108 0200282A             MVK     .S2     80,B4             ; |77| 
     856 0000010c 023C82F6             STW     .D2T2   B4,*+SP(16)       ; |77| 
     857 00000110 00002000             NOP             2
     858                            .dwpsn  "VideoInput2.c",78,6
     859                    
     860 00000114 0FFFE011!            CALL    .S1     __IIC_write       ; |78| 
     861 00000118 023C62E6  ||         LDW     .D2T2   *+SP(12),B4       ; |78| 
     862                    
     863 0000011c 023C22E4             LDW     .D2T1   *+SP(4),A4        ; |78| 
     864 00000120 01840162             ADDKPC  .S2     RL4,B3,0          ; |78| 
     865 00000124 033E0942             ADD     .D2     SP,16,B6          ; |78| 
     866 00000128 0404A358             MVK     .L1     0x1,A8            ; |78| 
     867 0000012c 030004A8             MVK     .S1     0x9,A6            ; |78| 
     868                    RL4:       ; CALL OCCURS {__IIC_write}       ; |78| 
     869                            .dwpsn  "VideoInput2.c",81,2
     870 00000130 0200A35A             ZERO    .L2     B4                ; |81| 
     871 00000134 023C82F6             STW     .D2T2   B4,*+SP(16)       ; |81| 
     872 00000138 00002000             NOP             2
     873                            .dwpsn  "VideoInput2.c",82,5
     874                    
     875 0000013c 0FFFDC11!            CALL    .S1     __IIC_write       ; |82| 
     876 00000140 023C62E6  ||         LDW     .D2T2   *+SP(12),B4       ; |82| 
     877                    
     878 00000144 023C22E4             LDW     .D2T1   *+SP(4),A4        ; |82| 
     879 00000148 01860162             ADDKPC  .S2     RL5,B3,0          ; |82| 
     880 0000014c 033E0942             ADD     .D2     SP,16,B6          ; |82| 
TMS320C6x COFF Assembler PC v5.1.0 Fri Mar 25 16:51:07 2011

Tools Copyright (c) 1996-2005 Texas Instruments Incorporated
C:\DOCUME~1\yqhe\LOCALS~1\Temp\TI2522                                PAGE   17

     881 00000150 0404A358             MVK     .L1     0x1,A8            ; |82| 
     882 00000154 030009A8             MVK     .S1     0x13,A6           ; |82| 
     883                    RL5:       ; CALL OCCURS {__IIC_write}       ; |82| 
     884                            .dwpsn  "VideoInput2.c",83,2
     885 00000158 0200A35A             ZERO    .L2     B4                ; |83| 
     886 0000015c 023C82F6             STW     .D2T2   B4,*+SP(16)       ; |83| 
     887 00000160 00002000             NOP             2
     888                            .dwpsn  "VideoInput2.c",84,5
     889                    
     890 00000164 0FFFD411!            CALL    .S1     __IIC_write       ; |84| 
     891 00000168 023C62E6  ||         LDW     .D2T2   *+SP(12),B4       ; |84| 
     892                    
     893 0000016c 023C22E4             LDW     .D2T1   *+SP(4),A4        ; |84| 
     894 00000170 01880162             ADDKPC  .S2     RL6,B3,0          ; |84| 
     895 00000174 033E0942             ADD     .D2     SP,16,B6          ; |84| 
     896 00000178 0404A358             MVK     .L1     0x1,A8            ; |84| 
     897 0000017c 03000A28             MVK     .S1     0x14,A6           ; |84| 
     898                    RL6:       ; CALL OCCURS {__IIC_write}       ; |84| 
     899                            .dwpsn  "VideoInput2.c",86,1
     900 00000180 01BCD2E6             LDW     .D2T2   *++SP(24),B3      ; |86| 
     901 00000184 00006000             NOP             4
     902                            .dwcfa  0xc0, 19
     903                            .dwcfa  0x0e, 0
     904 00000188 008CA362             RETNOP  .S2     B3,5              ; |86| 
     905                               ; BRANCH OCCURS {B3}              ; |86| 
     906                            .dwattr DW$151, DW_AT_end_file("VideoInput2.c")
     907                            .dwattr DW$151, DW_AT_end_line(0x56)
     908                            .dwattr DW$151, DW_AT_end_column(0x01)
     909                            .dwendentry
     910                            .dwendtag DW$151
     911                    
     912 0000018c                   .sect   ".text"
     913                            .global _TVP51XX_status
     914                    
     915                    DW$158  .dwtag  DW_TAG_subprogram, DW_AT_name("TVP51XX_status"), DW_AT_symbol_name("_TVP51XX_status")
     916                            .dwattr DW$158, DW_AT_low_pc(_TVP51XX_status)
     917                            .dwattr DW$158, DW_AT_high_pc(0x00)
     918                            .dwattr DW$158, DW_AT_begin_file("VideoInput2.c")
     919                            .dwattr DW$158, DW_AT_begin_line(0x59)
     920                            .dwattr DW$158, DW_AT_begin_column(0x06)
     921                            .dwpsn  "VideoInput2.c",90,1
     922                    
     923                            .dwfde DW$CIE
     924                    
     925                    ;******************************************************************************
     926                    ;* FUNCTION NAME: _TVP51XX_status                                             *
     927                    ;*                                                                            *
     928                    ;*   Regs Modified     : A0,A1,A2,A3,A4,A5,A6,A7,A8,A9,B0,B1,B2,B3,B4,B5,B6,  *
     929                    ;*                           B7,B8,B9,SP,A16,A17,A18,A19,A20,A21,A22,A23,A24, *
     930                    ;*                           A25,A26,A27,A28,A29,A30,A31,B16,B17,B18,B19,B20, *
     931                    ;*                           B21,B22,B23,B24,B25,B26,B27,B28,B29,B30,B31      *
     932                    ;*   Regs Used         : A0,A1,A2,A3,A4,A5,A6,A7,A8,A9,B0,B1,B2,B3,B4,B5,B6,  *
     933                    ;*                           B7,B8,B9,SP,A16,A17,A18,A19,A20,A21,A22,A23,A24, *
     934                    ;*                           A25,A26,A27,A28,A29,A30,A31,B16,B17,B18,B19,B20, *
     935                    ;*                           B21,B22,B23,B24,B25,B26,B27,B28,B29,B30,B31      *
TMS320C6x COFF Assembler PC v5.1.0 Fri Mar 25 16:51:07 2011

Tools Copyright (c) 1996-2005 Texas Instruments Incorporated
C:\DOCUME~1\yqhe\LOCALS~1\Temp\TI2522                                PAGE   18

     936                    ;*   Local Frame Size  : 0 Args + 12 Auto + 4 Save = 16 byte                  *
     937                    ;******************************************************************************
     938                    _TVP51XX_status:
     939                    ;** --------------------------------------------------------------------------*
     940                            .dwcfa  0x0e, 0
     941                            .dwcfa  0x09, 126, 19
     942 0000018c 01BC94F6             STW     .D2T2   B3,*SP--(16)      ; |90| 
     943 00000190 00002000             NOP             2
     944                            .dwcfa  0x0e, 16
     945                            .dwcfa  0x80, 19, 0
     946                    DW$159  .dwtag  DW_TAG_formal_parameter, DW_AT_name("hI2C"), DW_AT_symbol_name("_hI2C")
     947                            .dwattr DW$159, DW_AT_type(*DW$T$180)
     948                            .dwattr DW$159, DW_AT_location[DW_OP_reg4]
     949                    DW$160  .dwtag  DW_TAG_variable, DW_AT_name("hI2C"), DW_AT_symbol_name("_hI2C")
     950                            .dwattr DW$160, DW_AT_type(*DW$T$180)
     951                            .dwattr DW$160, DW_AT_location[DW_OP_breg31 4]
     952                    DW$161  .dwtag  DW_TAG_variable, DW_AT_name("s"), DW_AT_symbol_name("_s")
     953                            .dwattr DW$161, DW_AT_type(*DW$T$198)
     954                            .dwattr DW$161, DW_AT_location[DW_OP_breg31 8]
     955                    DW$162  .dwtag  DW_TAG_variable, DW_AT_name("i2c_addr"), DW_AT_symbol_name("_i2c_addr")
     956                            .dwattr DW$162, DW_AT_type(*DW$T$10)
     957                            .dwattr DW$162, DW_AT_location[DW_OP_breg31 12]
     958 00000194 023C22F4             STW     .D2T1   A4,*+SP(4)        ; |90| 
     959 00000198 00002000             NOP             2
     960                            .dwpsn  "VideoInput2.c",92,6
     961 0000019c 0FFFD010!            CALL    .S1     __tvp5150_i2c_addr ; |92| 
     962 000001a0 01826162             ADDKPC  .S2     RL7,B3,3          ; |92| 
     963 000001a4 0200A358             ZERO    .L1     A4                ; |92| 
     964 000001a8           RL7:       ; CALL OCCURS {__tvp5150_i2c_addr}  ; |92| 
     965 000001a8 023C62F4             STW     .D2T1   A4,*+SP(12)       ; |92| 
     966 000001ac 00002000             NOP             2
     967                            .dwpsn  "VideoInput2.c",95,5
     968                    
     969 000001b0 0FFFCC11!            CALL    .S1     __IIC_read        ; |95| 
     970 000001b4 023C22E4  ||         LDW     .D2T1   *+SP(4),A4        ; |95| 
     971                    
     972 000001b8 023C62E6             LDW     .D2T2   *+SP(12),B4       ; |95| 
     973 000001bc 018B0162             ADDKPC  .S2     RL8,B3,0          ; |95| 
     974 000001c0 033D005A             ADD     .L2     8,SP,B6           ; |95| 
     975 000001c4 0404A358             MVK     .L1     0x1,A8            ; |95| 
     976 000001c8 03004428             MVK     .S1     0x88,A6           ; |95| 
     977                    RL8:       ; CALL OCCURS {__IIC_read}        ; |95| 
     978                            .dwpsn  "VideoInput2.c",96,5
     979                    
     980 000001cc 0FFFC811!            CALL    .S1     __IIC_read        ; |96| 
     981 000001d0 023C62E6  ||         LDW     .D2T2   *+SP(12),B4       ; |96| 
     982                    
     983 000001d4 023C22E4             LDW     .D2T1   *+SP(4),A4        ; |96| 
     984 000001d8 018A0162             ADDKPC  .S2     RL9,B3,0          ; |96| 
     985 000001dc 033D205A             ADD     .L2     9,SP,B6           ; |96| 
     986 000001e0 0404A358             MVK     .L1     0x1,A8            ; |96| 
     987 000001e4 030044A8             MVK     .S1     0x89,A6           ; |96| 
     988                    RL9:       ; CALL OCCURS {__IIC_read}        ; |96| 
     989                            .dwpsn  "VideoInput2.c",97,5
     990                    
TMS320C6x COFF Assembler PC v5.1.0 Fri Mar 25 16:51:07 2011

Tools Copyright (c) 1996-2005 Texas Instruments Incorporated
C:\DOCUME~1\yqhe\LOCALS~1\Temp\TI2522                                PAGE   19

     991 000001e8 0FFFC411!            CALL    .S1     __IIC_read        ; |97| 
     992 000001ec 023C62E6  ||         LDW     .D2T2   *+SP(12),B4       ; |97| 
     993                    
     994 000001f0 023C22E4             LDW     .D2T1   *+SP(4),A4        ; |97| 
     995 000001f4 01890162             ADDKPC  .S2     RL10,B3,0         ; |97| 
     996 000001f8 033D405A             ADD     .L2     10,SP,B6          ; |97| 
     997 000001fc 0404A358             MVK     .L1     0x1,A8            ; |97| 
     998 00000200 03004528             MVK     .S1     0x8a,A6           ; |97| 
     999                    RL10:      ; CALL OCCURS {__IIC_read}        ; |97| 
    1000                            .dwpsn  "VideoInput2.c",98,5
    1001                    
    1002 00000204 0FFFC011!            CALL    .S1     __IIC_read        ; |98| 
    1003 00000208 023C62E6  ||         LDW     .D2T2   *+SP(12),B4       ; |98| 
    1004                    
    1005 0000020c 023C22E4             LDW     .D2T1   *+SP(4),A4        ; |98| 
    1006 00000210 01880162             ADDKPC  .S2     RL11,B3,0         ; |98| 
    1007 00000214 033D605A             ADD     .L2     11,SP,B6          ; |98| 
    1008 00000218 0404A358             MVK     .L1     0x1,A8            ; |98| 
    1009 0000021c 03004628             MVK     .S1     0x8c,A6           ; |98| 
    1010                    RL11:      ; CALL OCCURS {__IIC_read}        ; |98| 
    1011                            .dwpsn  "VideoInput2.c",99,2
    1012                            .dwpsn  "VideoInput2.c",100,1
    1013 00000220 01BC92E6             LDW     .D2T2   *++SP(16),B3      ; |100| 
    1014 00000224 00006000             NOP             4
    1015                            .dwcfa  0xc0, 19
    1016                            .dwcfa  0x0e, 0
    1017 00000228 008CA362             RETNOP  .S2     B3,5              ; |100| 
    1018                               ; BRANCH OCCURS {B3}              ; |100| 
    1019                            .dwattr DW$158, DW_AT_end_file("VideoInput2.c")
    1020                            .dwattr DW$158, DW_AT_end_line(0x64)
    1021                            .dwattr DW$158, DW_AT_end_column(0x01)
    1022                            .dwendentry
    1023                            .dwendtag DW$158
    1024                    
    1025 0000022c                   .sect   ".text"
    1026                            .global _VideoInputInit
    1027                    
    1028                    DW$163  .dwtag  DW_TAG_subprogram, DW_AT_name("VideoInputInit"), DW_AT_symbol_name("_VideoInputInit")
    1029                            .dwattr DW$163, DW_AT_low_pc(_VideoInputInit)
    1030                            .dwattr DW$163, DW_AT_high_pc(0x00)
    1031                            .dwattr DW$163, DW_AT_begin_file("VideoInput2.c")
    1032                            .dwattr DW$163, DW_AT_begin_line(0xeb)
    1033                            .dwattr DW$163, DW_AT_begin_column(0x06)
    1034                            .dwpsn  "VideoInput2.c",236,1
    1035                    
    1036                            .dwfde DW$CIE
    1037                    
    1038                    ;******************************************************************************
    1039                    ;* FUNCTION NAME: _VideoInputInit                                             *
    1040                    ;*                                                                            *
    1041                    ;*   Regs Modified     : A0,A1,A2,A3,A4,A5,A6,A7,A8,A9,B0,B1,B2,B3,B4,B5,B6,  *
    1042                    ;*                           B7,B8,B9,SP,A16,A17,A18,A19,A20,A21,A22,A23,A24, *
    1043                    ;*                           A25,A26,A27,A28,A29,A30,A31,B16,B17,B18,B19,B20, *
    1044                    ;*                           B21,B22,B23,B24,B25,B26,B27,B28,B29,B30,B31      *
    1045                    ;*   Regs Used         : A0,A1,A2,A3,A4,A5,A6,A7,A8,A9,B0,B1,B2,B3,B4,B5,B6,  *
TMS320C6x COFF Assembler PC v5.1.0 Fri Mar 25 16:51:07 2011

Tools Copyright (c) 1996-2005 Texas Instruments Incorporated
C:\DOCUME~1\yqhe\LOCALS~1\Temp\TI2522                                PAGE   20

    1046                    ;*                           B7,B8,B9,SP,A16,A17,A18,A19,A20,A21,A22,A23,A24, *
    1047                    ;*                           A25,A26,A27,A28,A29,A30,A31,B16,B17,B18,B19,B20, *
    1048                    ;*                           B21,B22,B23,B24,B25,B26,B27,B28,B29,B30,B31      *
    1049                    ;*   Local Frame Size  : 0 Args + 12 Auto + 4 Save = 16 byte                  *
    1050                    ;******************************************************************************
    1051                    _VideoInputInit:
    1052                    ;** --------------------------------------------------------------------------*
    1053                            .dwcfa  0x0e, 0
    1054                            .dwcfa  0x09, 126, 19
    1055 0000022c 01BC94F6             STW     .D2T2   B3,*SP--(16)      ; |236| 
    1056 00000230 00002000             NOP             2
    1057                            .dwcfa  0x0e, 16
    1058                            .dwcfa  0x80, 19, 0
    1059                    DW$164  .dwtag  DW_TAG_variable, DW_AT_name("status"), DW_AT_symbol_name("_status")
    1060                            .dwattr DW$164, DW_AT_type(*DW$T$10)
    1061                            .dwattr DW$164, DW_AT_location[DW_OP_breg31 4]
    1062                    DW$165  .dwtag  DW_TAG_variable, DW_AT_name("attrs"), DW_AT_symbol_name("_attrs")
    1063                            .dwattr DW$165, DW_AT_type(*DW$T$236)
    1064                            .dwattr DW$165, DW_AT_location[DW_OP_breg31 8]
    1065                            .dwpsn  "VideoInput2.c",240,2
    1066 00000234 0208A35A             MVK     .L2     2,B4              ; |240| 
    1067 00000238 023C42F6             STW     .D2T2   B4,*+SP(8)        ; |240| 
    1068 0000023c 00002000             NOP             2
    1069                            .dwpsn  "VideoInput2.c",241,2
    1070 00000240 027CA35A             MVK     .L2     -1,B4             ; |241| 
    1071 00000244 023C62F6             STW     .D2T2   B4,*+SP(12)       ; |241| 
    1072 00000248 00002000             NOP             2
    1073                            .dwpsn  "VideoInput2.c",243,5
    1074 0000024c 0FFFB810!            CALL    .S1     _GIO_create       ; |243| 
    1075 00000250 0300002A!            MVKL    .S2     _EMB_vCapParamsChan,B6 ; |243| 
    1076 00000254 0300006A!            MVKH    .S2     _EMB_vCapParamsChan,B6 ; |243| 
    1077 00000258 02000028+            MVKL    .S1     SL1+0,A4          ; |243| 
    1078 0000025c 018C0162             ADDKPC  .S2     RL12,B3,0         ; |243| 
    1079                    
    1080 00000260 033C9059             ADD     .L1X    4,SP,A6           ; |243| 
    1081 00000264 0204A35B  ||         MVK     .L2     0x1,B4            ; |243| 
    1082 00000268 02000069+ ||         MVKH    .S1     SL1+0,A4          ; |243| 
    1083 0000026c 04000040  ||         ZERO    .D1     A8                ; |243| 
    1084                    
    1085 00000270           RL12:      ; CALL OCCURS {_GIO_create}       ; |243| 
    1086 00000270 0200002A-            MVKL    .S2     _capChan1,B4      ; |243| 
    1087 00000274 0200006A-            MVKH    .S2     _capChan1,B4      ; |243| 
    1088 00000278 021002F4             STW     .D2T1   A4,*B4            ; |243| 
    1089 0000027c 00002000             NOP             2
    1090                            .dwpsn  "VideoInput2.c",248,5
    1091 00000280 0FFFB010!            CALL    .S1     _GIO_create       ; |248| 
    1092 00000284 01800028!            MVKL    .S1     _EMB_vCapParamsChan,A3 ; |248| 
    1093 00000288 01800068!            MVKH    .S1     _EMB_vCapParamsChan,A3 ; |248| 
    1094 0000028c 02000828+            MVKL    .S1     SL2+0,A4          ; |248| 
    1095 00000290 018A0162             ADDKPC  .S2     RL13,B3,0         ; |248| 
    1096                    
    1097 00000294 030C1FDB             MV      .L2X    A3,B6             ; |248| 
    1098 00000298 02000069+ ||         MVKH    .S1     SL2+0,A4          ; |248| 
    1099 0000029c 033C9059  ||         ADD     .L1X    4,SP,A6           ; |248| 
    1100 000002a0 04000041  ||         ZERO    .D1     A8                ; |248| 
TMS320C6x COFF Assembler PC v5.1.0 Fri Mar 25 16:51:07 2011

Tools Copyright (c) 1996-2005 Texas Instruments Incorporated
C:\DOCUME~1\yqhe\LOCALS~1\Temp\TI2522                                PAGE   21

    1101 000002a4 02002042  ||         MVK     .D2     0x1,B4            ; |248| 
    1102                    
    1103 000002a8           RL13:      ; CALL OCCURS {_GIO_create}       ; |248| 
    1104 000002a8 0200022A-            MVKL    .S2     _capChan2,B4      ; |248| 
    1105 000002ac 0200006A-            MVKH    .S2     _capChan2,B4      ; |248| 
    1106 000002b0 021002F4             STW     .D2T1   A4,*B4            ; |248| 
    1107 000002b4 00002000             NOP             2
    1108                            .dwpsn  "VideoInput2.c",251,1
    1109 000002b8 01BC92E6             LDW     .D2T2   *++SP(16),B3      ; |251| 
    1110 000002bc 00006000             NOP             4
    1111                            .dwcfa  0xc0, 19
    1112                            .dwcfa  0x0e, 0
    1113 000002c0 008CA362             RETNOP  .S2     B3,5              ; |251| 
    1114                               ; BRANCH OCCURS {B3}              ; |251| 
    1115                            .dwattr DW$163, DW_AT_end_file("VideoInput2.c")
    1116                            .dwattr DW$163, DW_AT_end_line(0xfb)
    1117                            .dwattr DW$163, DW_AT_end_column(0x01)
    1118                            .dwendentry
    1119                            .dwendtag DW$163
    1120                    
    1121 000002c4                   .sect   ".text"
    1122                            .global _VideoInputStart
    1123                    
    1124                    DW$166  .dwtag  DW_TAG_subprogram, DW_AT_name("VideoInputStart"), DW_AT_symbol_name("_VideoInputStart"
    1125                            .dwattr DW$166, DW_AT_low_pc(_VideoInputStart)
    1126                            .dwattr DW$166, DW_AT_high_pc(0x00)
    1127                            .dwattr DW$166, DW_AT_begin_file("VideoInput2.c")
    1128                            .dwattr DW$166, DW_AT_begin_line(0xfd)
    1129                            .dwattr DW$166, DW_AT_begin_column(0x06)
    1130                            .dwpsn  "VideoInput2.c",254,1
    1131                    
    1132                            .dwfde DW$CIE
    1133                    
    1134                    ;******************************************************************************
    1135                    ;* FUNCTION NAME: _VideoInputStart                                            *
    1136                    ;*                                                                            *
    1137                    ;*   Regs Modified     : A0,A1,A2,A3,A4,A5,A6,A7,A8,A9,B0,B1,B2,B3,B4,B5,B6,  *
    1138                    ;*                           B7,B8,B9,SP,A16,A17,A18,A19,A20,A21,A22,A23,A24, *
    1139                    ;*                           A25,A26,A27,A28,A29,A30,A31,B16,B17,B18,B19,B20, *
    1140                    ;*                           B21,B22,B23,B24,B25,B26,B27,B28,B29,B30,B31      *
    1141                    ;*   Regs Used         : A0,A1,A2,A3,A4,A5,A6,A7,A8,A9,B0,B1,B2,B3,B4,B5,B6,  *
    1142                    ;*                           B7,B8,B9,SP,A16,A17,A18,A19,A20,A21,A22,A23,A24, *
    1143                    ;*                           A25,A26,A27,A28,A29,A30,A31,B16,B17,B18,B19,B20, *
    1144                    ;*                           B21,B22,B23,B24,B25,B26,B27,B28,B29,B30,B31      *
    1145                    ;*   Local Frame Size  : 0 Args + 0 Auto + 4 Save = 4 byte                    *
    1146                    ;******************************************************************************
    1147                    _VideoInputStart:
    1148                    ;** --------------------------------------------------------------------------*
    1149                            .dwcfa  0x0e, 0
    1150                            .dwcfa  0x09, 126, 19
    1151 000002c4 01BC54F6             STW     .D2T2   B3,*SP--(8)       ; |254| 
    1152 000002c8 00002000             NOP             2
    1153                            .dwcfa  0x0e, 8
    1154                            .dwcfa  0x80, 19, 0
    1155                            .dwpsn  "VideoInput2.c",256,5
TMS320C6x COFF Assembler PC v5.1.0 Fri Mar 25 16:51:07 2011

Tools Copyright (c) 1996-2005 Texas Instruments Incorporated
C:\DOCUME~1\yqhe\LOCALS~1\Temp\TI2522                                PAGE   22

    1156 000002cc 0280002A-            MVKL    .S2     _capChan1,B5      ; |256| 
    1157                    
    1158 000002d0 0FFFA811!            CALL    .S1     _GIO_control      ; |256| 
    1159 000002d4 0280006A- ||         MVKH    .S2     _capChan1,B5      ; |256| 
    1160                    
    1161 000002d8 021402E4             LDW     .D2T1   *B5,A4            ; |256| 
    1162 000002dc 0200022A             MVKL    .S2     0x10000004,B4     ; |256| 
    1163 000002e0 0208006A             MVKH    .S2     0x10000004,B4     ; |256| 
    1164 000002e4 01830162             ADDKPC  .S2     RL14,B3,0         ; |256| 
    1165 000002e8 0300A358             ZERO    .L1     A6                ; |256| 
    1166                    RL14:      ; CALL OCCURS {_GIO_control}      ; |256| 
    1167                            .dwpsn  "VideoInput2.c",259,5
    1168 000002ec 01800228-            MVKL    .S1     _capChan2,A3      ; |259| 
    1169                    
    1170 000002f0 0FFFA413!            CALL    .S2     _GIO_control      ; |259| 
    1171 000002f4 01800068- ||         MVKH    .S1     _capChan2,A3      ; |259| 
    1172                    
    1173 000002f8 020C0264             LDW     .D1T1   *A3,A4            ; |259| 
    1174 000002fc 0200022A             MVKL    .S2     0x10000004,B4     ; |259| 
    1175 00000300 0208006A             MVKH    .S2     0x10000004,B4     ; |259| 
    1176 00000304 01830162             ADDKPC  .S2     RL15,B3,0         ; |259| 
    1177 00000308 0300A358             ZERO    .L1     A6                ; |259| 
    1178                    RL15:      ; CALL OCCURS {_GIO_control}      ; |259| 
    1179                            .dwpsn  "VideoInput2.c",261,1
    1180 0000030c 01BC52E6             LDW     .D2T2   *++SP(8),B3       ; |261| 
    1181 00000310 00006000             NOP             4
    1182                            .dwcfa  0xc0, 19
    1183                            .dwcfa  0x0e, 0
    1184 00000314 008CA362             RETNOP  .S2     B3,5              ; |261| 
    1185                               ; BRANCH OCCURS {B3}              ; |261| 
    1186                            .dwattr DW$166, DW_AT_end_file("VideoInput2.c")
    1187                            .dwattr DW$166, DW_AT_end_line(0x105)
    1188                            .dwattr DW$166, DW_AT_end_column(0x01)
    1189                            .dwendentry
    1190                            .dwendtag DW$166
    1191                    
    1192 00000318                   .sect   ".text"
    1193                            .global _tskVideoInput_SetParam
    1194                    
    1195                    DW$167  .dwtag  DW_TAG_subprogram, DW_AT_name("tskVideoInput_SetParam"), DW_AT_symbol_name("_tskVideoI
    1196                            .dwattr DW$167, DW_AT_low_pc(_tskVideoInput_SetParam)
    1197                            .dwattr DW$167, DW_AT_high_pc(0x00)
    1198                            .dwattr DW$167, DW_AT_begin_file("VideoInput2.c")
    1199                            .dwattr DW$167, DW_AT_begin_line(0x107)
    1200                            .dwattr DW$167, DW_AT_begin_column(0x06)
    1201                            .dwpsn  "VideoInput2.c",264,1
    1202                    
    1203                            .dwfde DW$CIE
    1204                    
    1205                    ;******************************************************************************
    1206                    ;* FUNCTION NAME: _tskVideoInput_SetParam                                     *
    1207                    ;*                                                                            *
    1208                    ;*   Regs Modified     : A0,A1,A2,A3,A4,A5,A6,A7,A8,A9,B0,B1,B2,B3,B4,B5,B6,  *
    1209                    ;*                           B7,B8,B9,SP,A16,A17,A18,A19,A20,A21,A22,A23,A24, *
    1210                    ;*                           A25,A26,A27,A28,A29,A30,A31,B16,B17,B18,B19,B20, *
TMS320C6x COFF Assembler PC v5.1.0 Fri Mar 25 16:51:07 2011

Tools Copyright (c) 1996-2005 Texas Instruments Incorporated
C:\DOCUME~1\yqhe\LOCALS~1\Temp\TI2522                                PAGE   23

    1211                    ;*                           B21,B22,B23,B24,B25,B26,B27,B28,B29,B30,B31      *
    1212                    ;*   Regs Used         : A0,A1,A2,A3,A4,A5,A6,A7,A8,A9,B0,B1,B2,B3,B4,B5,B6,  *
    1213                    ;*                           B7,B8,B9,SP,A16,A17,A18,A19,A20,A21,A22,A23,A24, *
    1214                    ;*                           A25,A26,A27,A28,A29,A30,A31,B16,B17,B18,B19,B20, *
    1215                    ;*                           B21,B22,B23,B24,B25,B26,B27,B28,B29,B30,B31      *
    1216                    ;*   Local Frame Size  : 8 Args + 4 Auto + 4 Save = 16 byte                   *
    1217                    ;******************************************************************************
    1218                    _tskVideoInput_SetParam:
    1219                    ;** --------------------------------------------------------------------------*
    1220                            .dwcfa  0x0e, 0
    1221                            .dwcfa  0x09, 126, 19
    1222 00000318 01BC94F6             STW     .D2T2   B3,*SP--(16)      ; |264| 
    1223 0000031c 00002000             NOP             2
    1224                            .dwcfa  0x0e, 16
    1225                            .dwcfa  0x80, 19, 0
    1226                    DW$168  .dwtag  DW_TAG_formal_parameter, DW_AT_name("param"), DW_AT_symbol_name("_param")
    1227                            .dwattr DW$168, DW_AT_type(*DW$T$187)
    1228                            .dwattr DW$168, DW_AT_location[DW_OP_reg4]
    1229                    DW$169  .dwtag  DW_TAG_variable, DW_AT_name("param"), DW_AT_symbol_name("_param")
    1230                            .dwattr DW$169, DW_AT_type(*DW$T$187)
    1231                            .dwattr DW$169, DW_AT_location[DW_OP_breg31 12]
    1232 00000320 023C62F4             STW     .D2T1   A4,*+SP(12)       ; |264| 
    1233 00000324 00002000             NOP             2
    1234                            .dwpsn  "VideoInput2.c",265,2
    1235 00000328 0FFF9C10!            CALL    .S1     _disp_init        ; |265| 
    1236 0000032c 01848162             ADDKPC  .S2     RL16,B3,4         ; |265| 
    1237                    RL16:      ; CALL OCCURS {_disp_init}        ; |265| 
    1238                            .dwpsn  "VideoInput2.c",267,2
    1239 00000330 01800028!            MVKL    .S1     _vdis_buf,A3      ; |267| 
    1240                    
    1241 00000334 0FFF9C13!            CALL    .S2     _disp_draw_half_frame ; |267| 
    1242 00000338 01800068! ||         MVKH    .S1     _vdis_buf,A3      ; |267| 
    1243                    
    1244 0000033c 020C0264             LDW     .D1T1   *A3,A4            ; |267| 
    1245 00000340 01816162             ADDKPC  .S2     RL17,B3,3         ; |267| 
    1246                    RL17:      ; CALL OCCURS {_disp_draw_half_frame}  ; |267| 
    1247                            .dwpsn  "VideoInput2.c",268,2
    1248 00000344 01800028!            MVKL    .S1     _CACHE_flush,A3   ; |268| 
    1249 00000348 01800068!            MVKH    .S1     _CACHE_flush,A3   ; |268| 
    1250 0000034c 000C1362             CALL    .S2X    A3                ; |268| 
    1251 00000350 01882162             ADDKPC  .S2     RL18,B3,1         ; |268| 
    1252 00000354 0300A358             ZERO    .L1     A6                ; |268| 
    1253 00000358 0200A35A             ZERO    .L2     B4                ; |268| 
    1254 0000035c 020000A8             MVK     .S1     0x1,A4            ; |268| 
    1255                    RL18:      ; CALL OCCURS {_CACHE_flush}      ; |268| 
    1256                            .dwpsn  "VideoInput2.c",271,5
    1257 00000360 01800028-            MVKL    .S1     _capChan1,A3      ; |271| 
    1258                    
    1259 00000364 0FFF9413!            CALL    .S2     _GIO_submit       ; |271| 
    1260 00000368 01800068- ||         MVKH    .S1     _capChan1,A3      ; |271| 
    1261                    
    1262 0000036c 020C0264             LDW     .D1T1   *A3,A4            ; |271| 
    1263 00000370 0280042A-            MVKL    .S2     _capFrameBuf1,B5  ; |271| 
    1264 00000374 0280006A-            MVKH    .S2     _capFrameBuf1,B5  ; |271| 
    1265 00000378 0200402A             MVK     .S2     0x80,B4           ; |271| 
TMS320C6x COFF Assembler PC v5.1.0 Fri Mar 25 16:51:07 2011

Tools Copyright (c) 1996-2005 Texas Instruments Incorporated
C:\DOCUME~1\yqhe\LOCALS~1\Temp\TI2522                                PAGE   24

    1266                    
    1267 0000037c 018B0163             ADDKPC  .S2     RL19,B3,0         ; |271| 
    1268 00000380 03141FD9  ||         MV      .L1X    B5,A6             ; |271| 
    1269 00000384 04000029  ||         ZERO    .S1     A8                ; |271| 
    1270 00000388 0300A35A  ||         ZERO    .L2     B6                ; |271| 
    1271                    
    1272                    RL19:      ; CALL OCCURS {_GIO_submit}       ; |271| 
    1273                            .dwpsn  "VideoInput2.c",275,5
    1274 0000038c 0200022A-            MVKL    .S2     _capChan2,B4      ; |275| 
    1275                    
    1276 00000390 0FFF9011!            CALL    .S1     _GIO_submit       ; |275| 
    1277 00000394 0200006A- ||         MVKH    .S2     _capChan2,B4      ; |275| 
    1278                    
    1279 00000398 021002E4             LDW     .D2T1   *B4,A4            ; |275| 
    1280 0000039c 0200402A             MVK     .S2     0x80,B4           ; |275| 
    1281 000003a0 03000628-            MVKL    .S1     _capFrameBuf2,A6  ; |275| 
    1282 000003a4 01850162             ADDKPC  .S2     RL20,B3,0         ; |275| 
    1283                    
    1284 000003a8 03000069-            MVKH    .S1     _capFrameBuf2,A6  ; |275| 
    1285 000003ac 0400A359  ||         ZERO    .L1     A8                ; |275| 
    1286 000003b0 0300A35A  ||         ZERO    .L2     B6                ; |275| 
    1287                    
    1288                    RL20:      ; CALL OCCURS {_GIO_submit}       ; |275| 
    1289                            .dwpsn  "VideoInput2.c",278,2
    1290                    
    1291 000003b4 01800029!            MVKL    .S1     _BUF_imgPool,A3   ; |278| 
    1292 000003b8 0200082A- ||         MVKL    .S2     _buffPoolHandle,B4 ; |278| 
    1293                    
    1294 000003bc 01800069!            MVKH    .S1     _BUF_imgPool,A3   ; |278| 
    1295 000003c0 0200006A- ||         MVKH    .S2     _buffPoolHandle,B4 ; |278| 
    1296                    
    1297 000003c4 019002F4             STW     .D2T1   A3,*B4            ; |278| 
    1298 000003c8 00002000             NOP             2
    1299                            .dwpsn  "VideoInput2.c",280,2
    1300 000003cc 0200082A-            MVKL    .S2     _buffPoolHandle,B4 ; |280| 
    1301                    
    1302 000003d0 0FFF8811!            CALL    .S1     _BUF_alloc        ; |280| 
    1303 000003d4 0200006A- ||         MVKH    .S2     _buffPoolHandle,B4 ; |280| 
    1304                    
    1305 000003d8 021002E4             LDW     .D2T1   *B4,A4            ; |280| 
    1306 000003dc 01886162             ADDKPC  .S2     RL21,B3,3         ; |280| 
    1307 000003e0           RL21:      ; CALL OCCURS {_BUF_alloc}        ; |280| 
    1308 000003e0 01800A28-            MVKL    .S1     _img_ptr_l,A3     ; |280| 
    1309                    
    1310 000003e4 02101FDB             MV      .L2X    A4,B4             ; |280| 
    1311 000003e8 01800068- ||         MVKH    .S1     _img_ptr_l,A3     ; |280| 
    1312                    
    1313 000003ec 020C0276             STW     .D1T2   B4,*A3            ; |280| 
    1314 000003f0 00002000             NOP             2
    1315                            .dwpsn  "VideoInput2.c",281,2
    1316 000003f4 01800828-            MVKL    .S1     _buffPoolHandle,A3 ; |281| 
    1317                    
    1318 000003f8 0FFF8413!            CALL    .S2     _BUF_alloc        ; |281| 
    1319 000003fc 01800068- ||         MVKH    .S1     _buffPoolHandle,A3 ; |281| 
    1320                    
TMS320C6x COFF Assembler PC v5.1.0 Fri Mar 25 16:51:07 2011

Tools Copyright (c) 1996-2005 Texas Instruments Incorporated
C:\DOCUME~1\yqhe\LOCALS~1\Temp\TI2522                                PAGE   25

    1321 00000400 020C0264             LDW     .D1T1   *A3,A4            ; |281| 
    1322 00000404 01826162             ADDKPC  .S2     RL22,B3,3         ; |281| 
    1323 00000408           RL22:      ; CALL OCCURS {_BUF_alloc}        ; |281| 
    1324 00000408 02000C2A-            MVKL    .S2     _img_ptr_r,B4     ; |281| 
    1325 0000040c 0200006A-            MVKH    .S2     _img_ptr_r,B4     ; |281| 
    1326 00000410 021002F4             STW     .D2T1   A4,*B4            ; |281| 
    1327 00000414 00002000             NOP             2
    1328                            .dwpsn  "VideoInput2.c",283,2
    1329 00000418 02000A2A-            MVKL    .S2     _img_ptr_l,B4     ; |283| 
    1330 0000041c 0200006A-            MVKH    .S2     _img_ptr_l,B4     ; |283| 
    1331 00000420 001002E6             LDW     .D2T2   *B4,B0            ; |283| 
    1332 00000424 00004000             NOP             3
    1333 00000428 0200A35A             ZERO    .L2     B4                ; |283| 
    1334 0000042c 2005A120     [ B0]   BNOP    .S1     L4,5              ; |283| 
    1335                               ; BRANCHCC OCCURS {L4}            ; |283| 
    1336                    ;** --------------------------------------------------------------------------*
    1337 00000430 0204A35A             MVK     .L2     0x1,B4            ; |283| 
    1338                    ;** --------------------------------------------------------------------------*
    1339 00000434           L4:    
    1340 00000434 00101FD8             MV      .L1X    B4,A0             ; |283| 
    1341 00000438 C00F6120     [ A0]   BNOP    .S1     L6,3              ; |283| 
    1342 0000043c 01800C28-            MVKL    .S1     _img_ptr_r,A3     ; |283| 
    1343                    
    1344 00000440 01800069-            MVKH    .S1     _img_ptr_r,A3     ; |283| 
    1345 00000444 0280A35A  ||         ZERO    .L2     B5                ; |283| 
    1346                    
    1347                               ; BRANCHCC OCCURS {L6}            ; |283| 
    1348                    ;** --------------------------------------------------------------------------*
    1349 00000448 000C0264             LDW     .D1T1   *A3,A0            ; |283| 
    1350 0000044c 00006000             NOP             4
    1351 00000450 C006A120     [ A0]   BNOP    .S1     L5,5              ; |283| 
    1352                               ; BRANCHCC OCCURS {L5}            ; |283| 
    1353                    ;** --------------------------------------------------------------------------*
    1354 00000454 0284A35A             MVK     .L2     0x1,B5            ; |283| 
    1355                    ;** --------------------------------------------------------------------------*
    1356 00000458           L5:    
    1357 00000458 02140FDA             MV      .L2     B5,B4             ; |283| 
    1358                    ;** --------------------------------------------------------------------------*
    1359 0000045c           L6:    
    1360 0000045c 00101FD8             MV      .L1X    B4,A0             ; |283| 
    1361 00000460 D006A120     [!A0]   BNOP    .S1     L7,5              ; |283| 
    1362                               ; BRANCHCC OCCURS {L7}            ; |283| 
    1363                    ;** --------------------------------------------------------------------------*
    1364                            .dwpsn  "VideoInput2.c",285,3
    1365 00000464 0FFF7410!            CALL    .S1     _SYS_abort        ; |285| 
    1366 00000468 01862162             ADDKPC  .S2     RL23,B3,1         ; |285| 
    1367 0000046c 01801028+            MVKL    .S1     SL3+0,A3          ; |285| 
    1368 00000470 01800068+            MVKH    .S1     SL3+0,A3          ; |285| 
    1369 00000474 01BC22F4             STW     .D2T1   A3,*+SP(4)        ; |285| 
    1370                    RL23:      ; CALL OCCURS {_SYS_abort}        ; |285| 
    1371                    ;** --------------------------------------------------------------------------*
    1372                    L7:    
    1373                            .dwpsn  "VideoInput2.c",288,2
    1374 00000478 02801A2A-            MVKL    .S2     _PoolHandle,B5    ; |288| 
    1375 0000047c 0200002A!            MVKL    .S2     _BUF_imgCap,B4    ; |288| 
TMS320C6x COFF Assembler PC v5.1.0 Fri Mar 25 16:51:07 2011

Tools Copyright (c) 1996-2005 Texas Instruments Incorporated
C:\DOCUME~1\yqhe\LOCALS~1\Temp\TI2522                                PAGE   26

    1376 00000480 0280006A-            MVKH    .S2     _PoolHandle,B5    ; |288| 
    1377 00000484 0200006A!            MVKH    .S2     _BUF_imgCap,B4    ; |288| 
    1378 00000488 021402F6             STW     .D2T2   B4,*B5            ; |288| 
    1379 0000048c 00002000             NOP             2
    1380                            .dwpsn  "VideoInput2.c",290,2
    1381 00000490 02001A2A-            MVKL    .S2     _PoolHandle,B4    ; |290| 
    1382                    
    1383 00000494 0FFF7011!            CALL    .S1     _BUF_alloc        ; |290| 
    1384 00000498 0200006A- ||         MVKH    .S2     _PoolHandle,B4    ; |290| 
    1385                    
    1386 0000049c 021002E4             LDW     .D2T1   *B4,A4            ; |290| 
    1387 000004a0 01816162             ADDKPC  .S2     RL24,B3,3         ; |290| 
    1388 000004a4           RL24:      ; CALL OCCURS {_BUF_alloc}        ; |290| 
    1389 000004a4 01801C28-            MVKL    .S1     _tmp_buf_l,A3     ; |290| 
    1390                    
    1391 000004a8 02101FDB             MV      .L2X    A4,B4             ; |290| 
    1392 000004ac 01800068- ||         MVKH    .S1     _tmp_buf_l,A3     ; |290| 
    1393                    
    1394 000004b0 020C0276             STW     .D1T2   B4,*A3            ; |290| 
    1395 000004b4 00002000             NOP             2
    1396                            .dwpsn  "VideoInput2.c",293,2
    1397 000004b8 01801A28-            MVKL    .S1     _PoolHandle,A3    ; |293| 
    1398                    
    1399 000004bc 0FFF6C13!            CALL    .S2     _BUF_alloc        ; |293| 
    1400 000004c0 01800068- ||         MVKH    .S1     _PoolHandle,A3    ; |293| 
    1401                    
    1402 000004c4 020C0264             LDW     .D1T1   *A3,A4            ; |293| 
    1403 000004c8 01836162             ADDKPC  .S2     RL25,B3,3         ; |293| 
    1404 000004cc           RL25:      ; CALL OCCURS {_BUF_alloc}        ; |293| 
    1405 000004cc 02001E2A-            MVKL    .S2     _tmp_buf_r,B4     ; |293| 
    1406 000004d0 0200006A-            MVKH    .S2     _tmp_buf_r,B4     ; |293| 
    1407 000004d4 021002F4             STW     .D2T1   A4,*B4            ; |293| 
    1408 000004d8 00002000             NOP             2
    1409                            .dwpsn  "VideoInput2.c",296,2
    1410 000004dc 0FFF6810!            CALL    .S1     _MEM_alloc        ; |296| 
    1411 000004e0 02001A2A             MVK     .S2     0x34,B4           ; |296| 
    1412 000004e4 01842162             ADDKPC  .S2     RL26,B3,1         ; |296| 
    1413 000004e8 0300A358             ZERO    .L1     A6                ; |296| 
    1414 000004ec 02000028             ZERO    .S1     A4                ; |296| 
    1415 000004f0           RL26:      ; CALL OCCURS {_MEM_alloc}        ; |296| 
    1416 000004f0 01BC62E4             LDW     .D2T1   *+SP(12),A3       ; |296| 
    1417 000004f4 00006000             NOP             4
    1418 000004f8 020C0274             STW     .D1T1   A4,*A3            ; |296| 
    1419 000004fc 00002000             NOP             2
    1420                            .dwpsn  "VideoInput2.c",297,2
    1421 00000500 023C62E6             LDW     .D2T2   *+SP(12),B4       ; |297| 
    1422 00000504 00006000             NOP             4
    1423 00000508 001002E6             LDW     .D2T2   *B4,B0            ; |297| 
    1424 0000050c 00006000             NOP             4
    1425 00000510 200AA120     [ B0]   BNOP    .S1     L8,5              ; |297| 
    1426                               ; BRANCHCC OCCURS {L8}            ; |297| 
    1427                    ;** --------------------------------------------------------------------------*
    1428                            .dwpsn  "VideoInput2.c",299,3
    1429 00000514 0FFF6010!            CALL    .S1     _SYS_abort        ; |299| 
    1430 00000518 018A2162             ADDKPC  .S2     RL27,B3,1         ; |299| 
TMS320C6x COFF Assembler PC v5.1.0 Fri Mar 25 16:51:07 2011

Tools Copyright (c) 1996-2005 Texas Instruments Incorporated
C:\DOCUME~1\yqhe\LOCALS~1\Temp\TI2522                                PAGE   27

    1431 0000051c 01802028+            MVKL    .S1     SL4+0,A3          ; |299| 
    1432 00000520 01800068+            MVKH    .S1     SL4+0,A3          ; |299| 
    1433 00000524 01BC22F4             STW     .D2T1   A3,*+SP(4)        ; |299| 
    1434                    RL27:      ; CALL OCCURS {_SYS_abort}        ; |299| 
    1435                    ;** --------------------------------------------------------------------------*
    1436                    L8:    
    1437                            .dwpsn  "VideoInput2.c",302,2
    1438 00000528 0FFF5C10!            CALL    .S1     _MEM_alloc        ; |302| 
    1439 0000052c 01872162             ADDKPC  .S2     RL28,B3,1         ; |302| 
    1440 00000530 0300A358             ZERO    .L1     A6                ; |302| 
    1441 00000534 0230A35A             MVK     .L2     0xc,B4            ; |302| 
    1442 00000538 02000028             ZERO    .S1     A4                ; |302| 
    1443 0000053c           RL28:      ; CALL OCCURS {_MEM_alloc}        ; |302| 
    1444 0000053c 02007C2A-            MVKL    .S2     _match_msg,B4     ; |302| 
    1445 00000540 0200006A-            MVKH    .S2     _match_msg,B4     ; |302| 
    1446 00000544 021002F4             STW     .D2T1   A4,*B4            ; |302| 
    1447 00000548 00002000             NOP             2
    1448                            .dwpsn  "VideoInput2.c",303,2
    1449 0000054c 01807C28-            MVKL    .S1     _match_msg,A3     ; |303| 
    1450 00000550 01800068-            MVKH    .S1     _match_msg,A3     ; |303| 
    1451 00000554 000C0264             LDW     .D1T1   *A3,A0            ; |303| 
    1452 00000558 00006000             NOP             4
    1453 0000055c C00DA120     [ A0]   BNOP    .S1     L9,5              ; |303| 
    1454                               ; BRANCHCC OCCURS {L9}            ; |303| 
    1455                    ;** --------------------------------------------------------------------------*
    1456                            .dwpsn  "VideoInput2.c",305,3
    1457 00000560 0FFF5410!            CALL    .S1     _SYS_abort        ; |305| 
    1458 00000564 01852162             ADDKPC  .S2     RL29,B3,1         ; |305| 
    1459 00000568 01802028+            MVKL    .S1     SL4+0,A3          ; |305| 
    1460 0000056c 01800068+            MVKH    .S1     SL4+0,A3          ; |305| 
    1461 00000570 01BC22F4             STW     .D2T1   A3,*+SP(4)        ; |305| 
    1462                    RL29:      ; CALL OCCURS {_SYS_abort}        ; |305| 
    1463                    ;** --------------------------------------------------------------------------*
    1464                    L9:    
    1465                            .dwpsn  "VideoInput2.c",308,2
    1466 00000574 023C62E6             LDW     .D2T2   *+SP(12),B4       ; |308| 
    1467 00000578 00004000             NOP             3
    1468 0000057c 00022910             CALL    .S1     _ClearImageMsg    ; |308| 
    1469 00000580 021002E4             LDW     .D2T1   *B4,A4            ; |308| 
    1470 00000584 01826162             ADDKPC  .S2     RL30,B3,3         ; |308| 
    1471                    RL30:      ; CALL OCCURS {_ClearImageMsg}    ; |308| 
    1472                            .dwpsn  "VideoInput2.c",310,2
    1473 00000588 023C62E6             LDW     .D2T2   *+SP(12),B4       ; |310| 
    1474 0000058c 00004000             NOP             3
    1475 00000590 00023490             CALL    .S1     _ClearResultMsg   ; |310| 
    1476 00000594 021022E4             LDW     .D2T1   *+B4(4),A4        ; |310| 
    1477 00000598 01876162             ADDKPC  .S2     RL31,B3,3         ; |310| 
    1478                    RL31:      ; CALL OCCURS {_ClearResultMsg}   ; |310| 
    1479                            .dwpsn  "VideoInput2.c",312,2
    1480 0000059c 01BC62E4             LDW     .D2T1   *+SP(12),A3       ; |312| 
    1481 000005a0 00004000             NOP             3
    1482 000005a4 0200A35A             ZERO    .L2     B4                ; |312| 
    1483 000005a8 020C4276             STW     .D1T2   B4,*+A3(8)        ; |312| 
    1484 000005ac 00002000             NOP             2
    1485                            .dwpsn  "VideoInput2.c",313,2
TMS320C6x COFF Assembler PC v5.1.0 Fri Mar 25 16:51:07 2011

Tools Copyright (c) 1996-2005 Texas Instruments Incorporated
C:\DOCUME~1\yqhe\LOCALS~1\Temp\TI2522                                PAGE   28

    1486 000005b0 023C62E4             LDW     .D2T1   *+SP(12),A4       ; |313| 
    1487 000005b4 00004000             NOP             3
    1488 000005b8 0180A358             ZERO    .L1     A3                ; |313| 
    1489 000005bc 01906274             STW     .D1T1   A3,*+A4(12)       ; |313| 
    1490 000005c0 00002000             NOP             2
    1491                            .dwpsn  "VideoInput2.c",315,2
    1492 000005c4 01BC62E4             LDW     .D2T1   *+SP(12),A3       ; |315| 
    1493 000005c8 00004000             NOP             3
    1494 000005cc 0200A358             ZERO    .L1     A4                ; |315| 
    1495 000005d0 020D0254             STH     .D1T1   A4,*+A3(16)       ; |315| 
    1496 000005d4 00002000             NOP             2
    1497                            .dwpsn  "VideoInput2.c",316,2
    1498 000005d8 01BC62E4             LDW     .D2T1   *+SP(12),A3       ; |316| 
    1499 000005dc 00006000             NOP             4
    1500 000005e0 020CA274             STW     .D1T1   A4,*+A3(20)       ; |316| 
    1501 000005e4 00002000             NOP             2
    1502                            .dwpsn  "VideoInput2.c",318,1
    1503 000005e8 01BC92E6             LDW     .D2T2   *++SP(16),B3      ; |318| 
    1504 000005ec 00006000             NOP             4
    1505                            .dwcfa  0xc0, 19
    1506                            .dwcfa  0x0e, 0
    1507 000005f0 008CA362             RETNOP  .S2     B3,5              ; |318| 
    1508                               ; BRANCH OCCURS {B3}              ; |318| 
    1509                            .dwattr DW$167, DW_AT_end_file("VideoInput2.c")
    1510                            .dwattr DW$167, DW_AT_end_line(0x13e)
    1511                            .dwattr DW$167, DW_AT_end_column(0x01)
    1512                            .dwendentry
    1513                            .dwendtag DW$167
    1514                    
    1515 000005f4                   .sect   ".text"
    1516                            .global _tskVideoInput
    1517                    
    1518                    DW$170  .dwtag  DW_TAG_subprogram, DW_AT_name("tskVideoInput"), DW_AT_symbol_name("_tskVideoInput")
    1519                            .dwattr DW$170, DW_AT_low_pc(_tskVideoInput)
    1520                            .dwattr DW$170, DW_AT_high_pc(0x00)
    1521                            .dwattr DW$170, DW_AT_begin_file("VideoInput2.c")
    1522                            .dwattr DW$170, DW_AT_begin_line(0x144)
    1523                            .dwattr DW$170, DW_AT_begin_column(0x06)
    1524                            .dwpsn  "VideoInput2.c",325,1
    1525                    
    1526                            .dwfde DW$CIE
    1527                    
    1528                    ;******************************************************************************
    1529                    ;* FUNCTION NAME: _tskVideoInput                                              *
    1530                    ;*                                                                            *
    1531                    ;*   Regs Modified     : A0,A1,A2,A3,A4,A5,A6,A7,A8,A9,A10,A11,B0,B1,B2,B3,B4,*
    1532                    ;*                           B5,B6,B7,B8,B9,B10,B11,SP,A16,A17,A18,A19,A20,   *
    1533                    ;*                           A21,A22,A23,A24,A25,A26,A27,A28,A29,A30,A31,B16, *
    1534                    ;*                           B17,B18,B19,B20,B21,B22,B23,B24,B25,B26,B27,B28, *
    1535                    ;*                           B29,B30,B31                                      *
    1536                    ;*   Regs Used         : A0,A1,A2,A3,A4,A5,A6,A7,A8,A9,A10,A11,B0,B1,B2,B3,B4,*
    1537                    ;*                           B5,B6,B7,B8,B9,B10,B11,SP,A16,A17,A18,A19,A20,   *
    1538                    ;*                           A21,A22,A23,A24,A25,A26,A27,A28,A29,A30,A31,B16, *
    1539                    ;*                           B17,B18,B19,B20,B21,B22,B23,B24,B25,B26,B27,B28, *
    1540                    ;*                           B29,B30,B31                                      *
TMS320C6x COFF Assembler PC v5.1.0 Fri Mar 25 16:51:07 2011

Tools Copyright (c) 1996-2005 Texas Instruments Incorporated
C:\DOCUME~1\yqhe\LOCALS~1\Temp\TI2522                                PAGE   29

    1541                    ;*   Local Frame Size  : 16 Args + 108 Auto + 20 Save = 144 byte              *
    1542                    ;******************************************************************************
    1543                    _tskVideoInput:
    1544                    ;** --------------------------------------------------------------------------*
    1545                            .dwcfa  0x0e, 0
    1546                            .dwcfa  0x09, 126, 19
    1547 000005f4 07FFB852             ADDK    .S2     -144,SP           ; |325| 
    1548                            .dwcfa  0x0e, 144
    1549 000005f8 058024FE             STW     .D2T2   B11,*+SP(144)     ; |325| 
    1550 000005fc 00002000             NOP             2
    1551                            .dwcfa  0x80, 27, 0
    1552 00000600 050023FE             STW     .D2T2   B10,*+SP(140)     ; |325| 
    1553 00000604 00002000             NOP             2
    1554                            .dwcfa  0x80, 26, 1
    1555 00000608 018022FE             STW     .D2T2   B3,*+SP(136)      ; |325| 
    1556 0000060c 00002000             NOP             2
    1557                            .dwcfa  0x80, 19, 2
    1558 00000610 053E03C4             STDW    .D2T1   A11:A10,*+SP(128) ; |325| 
    1559 00000614 00002000             NOP             2
    1560                            .dwcfa  0x80, 10, 3
    1561                            .dwcfa  0x80, 11, 4
    1562                    DW$171  .dwtag  DW_TAG_variable, DW_AT_name("procimg_param"), DW_AT_symbol_name("_procimg_param")
    1563                            .dwattr DW$171, DW_AT_type(*DW$T$186)
    1564                            .dwattr DW$171, DW_AT_location[DW_OP_breg31 20]
    1565                    DW$172  .dwtag  DW_TAG_variable, DW_AT_name("capture_count"), DW_AT_symbol_name("_capture_count")
    1566                            .dwattr DW$172, DW_AT_type(*DW$T$10)
    1567                            .dwattr DW$172, DW_AT_location[DW_OP_breg31 48]
    1568                    DW$173  .dwtag  DW_TAG_variable, DW_AT_name("usedflag_l"), DW_AT_symbol_name("_usedflag_l")
    1569                            .dwattr DW$173, DW_AT_type(*DW$T$10)
    1570                            .dwattr DW$173, DW_AT_location[DW_OP_breg31 52]
    1571                    DW$174  .dwtag  DW_TAG_variable, DW_AT_name("usedflag_r"), DW_AT_symbol_name("_usedflag_r")
    1572                            .dwattr DW$174, DW_AT_type(*DW$T$10)
    1573                            .dwattr DW$174, DW_AT_location[DW_OP_breg31 56]
    1574                    DW$175  .dwtag  DW_TAG_variable, DW_AT_name("active_count"), DW_AT_symbol_name("_active_count")
    1575                            .dwattr DW$175, DW_AT_type(*DW$T$10)
    1576                            .dwattr DW$175, DW_AT_location[DW_OP_breg31 60]
    1577                    DW$176  .dwtag  DW_TAG_variable, DW_AT_name("error_count"), DW_AT_symbol_name("_error_count")
    1578                            .dwattr DW$176, DW_AT_type(*DW$T$10)
    1579                            .dwattr DW$176, DW_AT_location[DW_OP_breg31 64]
    1580                    DW$177  .dwtag  DW_TAG_variable, DW_AT_name("disp_error_count"), DW_AT_symbol_name("_disp_error_count"
    1581                            .dwattr DW$177, DW_AT_type(*DW$T$10)
    1582                            .dwattr DW$177, DW_AT_location[DW_OP_breg31 68]
    1583                    DW$178  .dwtag  DW_TAG_variable, DW_AT_name("i"), DW_AT_symbol_name("_i")
    1584                            .dwattr DW$178, DW_AT_type(*DW$T$10)
    1585                            .dwattr DW$178, DW_AT_location[DW_OP_breg31 72]
    1586                    DW$179  .dwtag  DW_TAG_variable, DW_AT_name("off"), DW_AT_symbol_name("_off")
    1587                            .dwattr DW$179, DW_AT_type(*DW$T$10)
    1588                            .dwattr DW$179, DW_AT_location[DW_OP_breg31 76]
    1589                    DW$180  .dwtag  DW_TAG_variable, DW_AT_name("capoff"), DW_AT_symbol_name("_capoff")
    1590                            .dwattr DW$180, DW_AT_type(*DW$T$10)
    1591                            .dwattr DW$180, DW_AT_location[DW_OP_breg31 80]
    1592                    DW$181  .dwtag  DW_TAG_variable, DW_AT_name("index"), DW_AT_symbol_name("_index")
    1593                            .dwattr DW$181, DW_AT_type(*DW$T$10)
    1594                            .dwattr DW$181, DW_AT_location[DW_OP_breg31 84]
    1595                    DW$182  .dwtag  DW_TAG_variable, DW_AT_name("adc_test_count"), DW_AT_symbol_name("_adc_test_count")
TMS320C6x COFF Assembler PC v5.1.0 Fri Mar 25 16:51:07 2011

Tools Copyright (c) 1996-2005 Texas Instruments Incorporated
C:\DOCUME~1\yqhe\LOCALS~1\Temp\TI2522                                PAGE   30

    1596                            .dwattr DW$182, DW_AT_type(*DW$T$10)
    1597                            .dwattr DW$182, DW_AT_location[DW_OP_breg31 88]
    1598                    DW$183  .dwtag  DW_TAG_variable, DW_AT_name("img_quality"), DW_AT_symbol_name("_img_quality")
    1599                            .dwattr DW$183, DW_AT_type(*DW$T$10)
    1600                            .dwattr DW$183, DW_AT_location[DW_OP_breg31 92]
    1601                    DW$184  .dwtag  DW_TAG_variable, DW_AT_name("FVID_status_l"), DW_AT_symbol_name("_FVID_status_l")
    1602                            .dwattr DW$184, DW_AT_type(*DW$T$10)
    1603                            .dwattr DW$184, DW_AT_location[DW_OP_breg31 96]
    1604                    DW$185  .dwtag  DW_TAG_variable, DW_AT_name("FVID_status_r"), DW_AT_symbol_name("_FVID_status_r")
    1605                            .dwattr DW$185, DW_AT_type(*DW$T$10)
    1606                            .dwattr DW$185, DW_AT_location[DW_OP_breg31 100]
    1607                    DW$186  .dwtag  DW_TAG_variable, DW_AT_name("copyimg_dataptr_l"), DW_AT_symbol_name("_copyimg_dataptr_
    1608                            .dwattr DW$186, DW_AT_type(*DW$T$70)
    1609                            .dwattr DW$186, DW_AT_location[DW_OP_breg31 104]
    1610                    DW$187  .dwtag  DW_TAG_variable, DW_AT_name("copyimg_dataptr_r"), DW_AT_symbol_name("_copyimg_dataptr_
    1611                            .dwattr DW$187, DW_AT_type(*DW$T$70)
    1612                            .dwattr DW$187, DW_AT_location[DW_OP_breg31 108]
    1613                    DW$188  .dwtag  DW_TAG_variable, DW_AT_name("start_time_l"), DW_AT_symbol_name("_start_time_l")
    1614                            .dwattr DW$188, DW_AT_type(*DW$T$232)
    1615                            .dwattr DW$188, DW_AT_location[DW_OP_breg31 112]
    1616                    DW$189  .dwtag  DW_TAG_variable, DW_AT_name("cur_time_l"), DW_AT_symbol_name("_cur_time_l")
    1617                            .dwattr DW$189, DW_AT_type(*DW$T$232)
    1618                            .dwattr DW$189, DW_AT_location[DW_OP_breg31 116]
    1619                    DW$190  .dwtag  DW_TAG_variable, DW_AT_name("start_time_r"), DW_AT_symbol_name("_start_time_r")
    1620                            .dwattr DW$190, DW_AT_type(*DW$T$232)
    1621                            .dwattr DW$190, DW_AT_location[DW_OP_breg31 120]
    1622                    DW$191  .dwtag  DW_TAG_variable, DW_AT_name("cur_time_r"), DW_AT_symbol_name("_cur_time_r")
    1623                            .dwattr DW$191, DW_AT_type(*DW$T$232)
    1624                            .dwattr DW$191, DW_AT_location[DW_OP_breg31 124]
    1625                            .dwpsn  "VideoInput2.c",335,9
    1626 00000618 0180A358             ZERO    .L1     A3                ; |335| 
    1627 0000061c 01BEC2F4             STW     .D2T1   A3,*+SP(88)       ; |335| 
    1628 00000620 00002000             NOP             2
    1629                            .dwpsn  "VideoInput2.c",344,2
    1630 00000624 0FFF3C10!            CALL    .S1     _dbg_output       ; |344| 
    1631 00000628 01802D28+            MVKL    .S1     SL5+0,A3          ; |344| 
    1632 0000062c 01800068+            MVKH    .S1     SL5+0,A3          ; |344| 
    1633 00000630 01BC22F4             STW     .D2T1   A3,*+SP(4)        ; |344| 
    1634 00000634 01862162             ADDKPC  .S2     RL32,B3,1         ; |344| 
    1635                    RL32:      ; CALL OCCURS {_dbg_output}       ; |344| 
    1636                            .dwpsn  "VideoInput2.c",346,2
    1637 00000638 0FFF9F10             CALL    .S1     _tskVideoInput_SetParam ; |346| 
    1638 0000063c 023E8942             ADD     .D2     SP,20,B4          ; |346| 
    1639 00000640 01824162             ADDKPC  .S2     RL33,B3,2         ; |346| 
    1640 00000644 02101FD8             MV      .L1X    B4,A4             ; |346| 
    1641                    RL33:      ; CALL OCCURS {_tskVideoInput_SetParam}  ; |346| 
    1642                            .dwpsn  "VideoInput2.c",348,2
    1643 00000648 01801028-            MVKL    .S1     _copyimg_ptr_l,A3 ; |348| 
    1644 0000064c 01800068-            MVKH    .S1     _copyimg_ptr_l,A3 ; |348| 
    1645 00000650 018C0264             LDW     .D1T1   *A3,A3            ; |348| 
    1646 00000654 00006000             NOP             4
    1647 00000658 01821D50             ADDK    .S1     1082,A3           ; |348| 
    1648 0000065c 01BF42F4             STW     .D2T1   A3,*+SP(104)      ; |348| 
    1649 00000660 00002000             NOP             2
    1650                            .dwpsn  "VideoInput2.c",349,2
TMS320C6x COFF Assembler PC v5.1.0 Fri Mar 25 16:51:07 2011

Tools Copyright (c) 1996-2005 Texas Instruments Incorporated
C:\DOCUME~1\yqhe\LOCALS~1\Temp\TI2522                                PAGE   31

    1651 00000664 0200122A-            MVKL    .S2     _copyimg_ptr_r,B4 ; |349| 
    1652 00000668 0200006A-            MVKH    .S2     _copyimg_ptr_r,B4 ; |349| 
    1653 0000066c 021002E6             LDW     .D2T2   *B4,B4            ; |349| 
    1654 00000670 00006000             NOP             4
    1655 00000674 02021D52             ADDK    .S2     1082,B4           ; |349| 
    1656 00000678 023F62F6             STW     .D2T2   B4,*+SP(108)      ; |349| 
    1657 0000067c 00002000             NOP             2
    1658                            .dwpsn  "VideoInput2.c",353,2
    1659 00000680 0200762A-            MVKL    .S2     _dsp_used_reg+168,B4 ; |353| 
    1660                    
    1661 00000684 0200006B-            MVKH    .S2     _dsp_used_reg+168,B4 ; |353| 
    1662 00000688 0280A35A  ||         ZERO    .L2     B5                ; |353| 
    1663                    
    1664 0000068c 029002F6             STW     .D2T2   B5,*B4            ; |353| 
    1665 00000690 00002000             NOP             2
    1666                            .dwpsn  "VideoInput2.c",354,2
    1667 00000694 0200762A-            MVKL    .S2     _dsp_used_reg+168,B4 ; |354| 
    1668                    
    1669 00000698 0FFF3011!            CALL    .S1     _disp_set_cb      ; |354| 
    1670 0000069c 0200006A- ||         MVKH    .S2     _dsp_used_reg+168,B4 ; |354| 
    1671                    
    1672 000006a0 051002E4             LDW     .D2T1   *B4,A10           ; |354| 
    1673 000006a4 03004FAA             MVK     .S2     0x9f,B6           ; |354| 
    1674 000006a8 030025A8             MVK     .S1     0x4b,A6           ; |354| 
    1675 000006ac 0400752A             MVK     .S2     0xea,B8           ; |354| 
    1676                    
    1677 000006b0 01880163             ADDKPC  .S2     RL34,B3,0         ; |354| 
    1678 000006b4 0218A35B  ||         MVK     .L2     0x6,B4            ; |354| 
    1679 000006b8 04002829  ||         MVK     .S1     0x50,A8           ; |354| 
    1680 000006bc 0218A358  ||         MVK     .L1     0x6,A4            ; |354| 
    1681                    
    1682                    RL34:      ; CALL OCCURS {_disp_set_cb}      ; |354| 
    1683                            .dwpsn  "VideoInput2.c",357,2
    1684 000006c0 0003A990             CALL    .S1     _SwitchCCD        ; |357| 
    1685 000006c4 01836162             ADDKPC  .S2     RL35,B3,3         ; |357| 
    1686 000006c8 0200A358             ZERO    .L1     A4                ; |357| 
    1687                    RL35:      ; CALL OCCURS {_SwitchCCD}        ; |357| 
    1688                            .dwpsn  "VideoInput2.c",359,2
    1689 000006cc 0FFF2810!            CALL    .S1     _CLK_getltime     ; |359| 
    1690 000006d0 01858162             ADDKPC  .S2     RL40,B3,4         ; |359| 
    1691 000006d4           RL40:      ; CALL OCCURS {_CLK_getltime}     ; |359| 
    1692 000006d4 0FFF2810!            CALL    .S1     _CLK_getprd       ; |359| 
    1693 000006d8 01886162             ADDKPC  .S2     RL39,B3,3         ; |359| 
    1694 000006dc 05900FD8             MV      .L1     A4,A11            ; |359| 
    1695 000006e0           RL39:      ; CALL OCCURS {_CLK_getprd}       ; |359| 
    1696 000006e0 0FFF2410!            CALL    .S1     _CLK_countspms    ; |359| 
    1697 000006e4 05100FD8             MV      .L1     A4,A10            ; |359| 
    1698 000006e8 01836162             ADDKPC  .S2     RL41,B3,3         ; |359| 
    1699 000006ec           RL41:      ; CALL OCCURS {_CLK_countspms}    ; |359| 
    1700                    
    1701 000006ec 01A96881             MPYLH   .M1     A11,A10,A3        ; |359| 
    1702 000006f0 0FFF2410! ||         CALL    .S1     __divi            ; |359| 
    1703                    
    1704 000006f4 02AD4880             MPYLH   .M1     A10,A11,A5        ; |359| 
    1705 000006f8 02101FDA             MV      .L2X    A4,B4             ; |359| 
TMS320C6x COFF Assembler PC v5.1.0 Fri Mar 25 16:51:07 2011

Tools Copyright (c) 1996-2005 Texas Instruments Incorporated
C:\DOCUME~1\yqhe\LOCALS~1\Temp\TI2522                                PAGE   32

    1706                    
    1707 000006fc 02AD4F81             MPYU    .M1     A10,A11,A5        ; |359| 
    1708 00000700 018CA078  ||         ADD     .L1     A5,A3,A3          ; |359| 
    1709                    
    1710 00000704 018E0CA0             SHL     .S1     A3,16,A3          ; |359| 
    1711                    
    1712 00000708 01840163             ADDKPC  .S2     RL42,B3,0         ; |359| 
    1713 0000070c 020CA078  ||         ADD     .L1     A5,A3,A4          ; |359| 
    1714                    
    1715 00000710           RL42:      ; CALL OCCURS {__divi}            ; |359| 
    1716 00000710 023F82F4             STW     .D2T1   A4,*+SP(112)      ; |359| 
    1717 00000714 00002000             NOP             2
    1718                            .dwpsn  "VideoInput2.c",360,2
    1719 00000718 02101FDA             MV      .L2X    A4,B4
    1720 0000071c 023FC2F6             STW     .D2T2   B4,*+SP(120)      ; |360| 
    1721 00000720 00002000             NOP             2
    1722                            .dwpsn  "VideoInput2.c",362,2
    1723 00000724 0204A35A             MVK     .L2     1,B4              ; |362| 
    1724 00000728 023F02F6             STW     .D2T2   B4,*+SP(96)       ; |362| 
    1725 0000072c 00002000             NOP             2
    1726                            .dwpsn  "VideoInput2.c",363,2
    1727 00000730 0184A358             MVK     .L1     1,A3              ; |363| 
    1728 00000734 01BF22F4             STW     .D2T1   A3,*+SP(100)      ; |363| 
    1729 00000738 00002000             NOP             2
    1730                            .dwpsn  "VideoInput2.c",365,2
    1731 0000073c 0180A358             ZERO    .L1     A3                ; |365| 
    1732 00000740 01BD82F4             STW     .D2T1   A3,*+SP(48)       ; |365| 
    1733 00000744 00002000             NOP             2
    1734                            .dwpsn  "VideoInput2.c",366,2
    1735 00000748 0200A35A             ZERO    .L2     B4                ; |366| 
    1736 0000074c 023DE2F6             STW     .D2T2   B4,*+SP(60)       ; |366| 
    1737 00000750 00002000             NOP             2
    1738                            .dwpsn  "VideoInput2.c",367,2
    1739 00000754 023E02F6             STW     .D2T2   B4,*+SP(64)       ; |367| 
    1740 00000758 00002000             NOP             2
    1741                            .dwpsn  "VideoInput2.c",368,2
    1742 0000075c 027F9C2A             MVK     .S2     -200,B4           ; |368| 
    1743 00000760 023E22F6             STW     .D2T2   B4,*+SP(68)       ; |368| 
    1744 00000764 00002000             NOP             2
    1745                            .dwpsn  "VideoInput2.c",369,2
    1746 00000768 01803E28-            MVKL    .S1     _dsp_used_reg+56,A3 ; |369| 
    1747                    
    1748 0000076c 0220A359             MVK     .L1     8,A4              ; |369| 
    1749 00000770 01800068- ||         MVKH    .S1     _dsp_used_reg+56,A3 ; |369| 
    1750                    
    1751 00000774 020C0274             STW     .D1T1   A4,*A3            ; |369| 
    1752 00000778 00000000             NOP             1
    1753                            .dwpsn  "VideoInput2.c",372,11
    1754                    ;** --------------------------------------------------------------------------*
    1755                    ;**   BEGIN LOOP L10
    1756                    ;** --------------------------------------------------------------------------*
    1757                    L10:    
    1758                    DW$L$_tskVideoInput$2$B:
    1759                            .dwpsn  "VideoInput2.c",375,9
    1760 0000077c 01802028-            MVKL    .S1     _tsk_used_reg,A3  ; |375| 
TMS320C6x COFF Assembler PC v5.1.0 Fri Mar 25 16:51:07 2011

Tools Copyright (c) 1996-2005 Texas Instruments Incorporated
C:\DOCUME~1\yqhe\LOCALS~1\Temp\TI2522                                PAGE   33

    1761 00000780 01800068-            MVKH    .S1     _tsk_used_reg,A3  ; |375| 
    1762 00000784 018C0264             LDW     .D1T1   *A3,A3            ; |375| 
    1763 00000788 00006000             NOP             4
    1764 0000078c 018EDEC0             ADDAD   .D1     A3,22,A3          ; |375| 
    1765 00000790 020C0264             LDW     .D1T1   *A3,A4            ; |375| 
    1766 00000794 00006000             NOP             4
    1767 00000798 02102058             ADD     .L1     1,A4,A4           ; |375| 
    1768 0000079c 020C0274             STW     .D1T1   A4,*A3            ; |375| 
    1769 000007a0 00002000             NOP             2
    1770                            .dwpsn  "VideoInput2.c",379,9
    1771 000007a4 01800028-            MVKL    .S1     _capChan1,A3      ; |379| 
    1772                    
    1773 000007a8 0FFF0C13!            CALL    .S2     _GIO_submit       ; |379| 
    1774 000007ac 01800068- ||         MVKH    .S1     _capChan1,A3      ; |379| 
    1775                    
    1776 000007b0 020C0264             LDW     .D1T1   *A3,A4            ; |379| 
    1777 000007b4 0280042A-            MVKL    .S2     _capFrameBuf1,B5  ; |379| 
    1778 000007b8 0280006A-            MVKH    .S2     _capFrameBuf1,B5  ; |379| 
    1779 000007bc 0200412A             MVK     .S2     0x82,B4           ; |379| 
    1780                    
    1781 000007c0 01840163             ADDKPC  .S2     RL43,B3,0         ; |379| 
    1782 000007c4 03141FD9  ||         MV      .L1X    B5,A6             ; |379| 
    1783 000007c8 04000029  ||         ZERO    .S1     A8                ; |379| 
    1784 000007cc 0300A35A  ||         ZERO    .L2     B6                ; |379| 
    1785                    
    1786 000007d0           RL43:      ; CALL OCCURS {_GIO_submit}       ; |379| 
    1787 000007d0 023F02F4             STW     .D2T1   A4,*+SP(96)       ; |379| 
    1788 000007d4 00002000             NOP             2
    1789                            .dwpsn  "VideoInput2.c",381,3
    1790 000007d8 0FFF0810!            CALL    .S1     _CLK_getltime     ; |381| 
    1791 000007dc 01888162             ADDKPC  .S2     RL48,B3,4         ; |381| 
    1792 000007e0           RL48:      ; CALL OCCURS {_CLK_getltime}     ; |381| 
    1793 000007e0 0FFF0410!            CALL    .S1     _CLK_getprd       ; |381| 
    1794 000007e4 01836162             ADDKPC  .S2     RL47,B3,3         ; |381| 
    1795 000007e8 05901FDA             MV      .L2X    A4,B11            ; |381| 
    1796 000007ec           RL47:      ; CALL OCCURS {_CLK_getprd}       ; |381| 
    1797 000007ec 0FFF0410!            CALL    .S1     _CLK_countspms    ; |381| 
    1798 000007f0 05101FDA             MV      .L2X    A4,B10            ; |381| 
    1799 000007f4 01866162             ADDKPC  .S2     RL49,B3,3         ; |381| 
    1800 000007f8           RL49:      ; CALL OCCURS {_CLK_countspms}    ; |381| 
    1801 000007f8 02AD4882             MPYLH   .M2     B10,B11,B5        ; |381| 
    1802                    
    1803 000007fc 02296883             MPYLH   .M2     B11,B10,B4        ; |381| 
    1804 00000800 0FFF0010! ||         CALL    .S1     __divi            ; |381| 
    1805                    
    1806 00000804 01872162             ADDKPC  .S2     RL50,B3,1         ; |381| 
    1807                    
    1808 00000808 02AD4F83             MPYU    .M2     B10,B11,B5        ; |381| 
    1809 0000080c 0210A07A  ||         ADD     .L2     B5,B4,B4          ; |381| 
    1810                    
    1811 00000810 01921CA0             SHL     .S1X    B4,16,A3          ; |381| 
    1812                    
    1813 00000814 02147079             ADD     .L1X    B5,A3,A4          ; |381| 
    1814 00000818 02101FDA  ||         MV      .L2X    A4,B4             ; |381| 
    1815                    
TMS320C6x COFF Assembler PC v5.1.0 Fri Mar 25 16:51:07 2011

Tools Copyright (c) 1996-2005 Texas Instruments Incorporated
C:\DOCUME~1\yqhe\LOCALS~1\Temp\TI2522                                PAGE   34

    1816 0000081c           RL50:      ; CALL OCCURS {__divi}            ; |381| 
    1817 0000081c 023FA2F4             STW     .D2T1   A4,*+SP(116)      ; |381| 
    1818 00000820 00002000             NOP             2
    1819                            .dwpsn  "VideoInput2.c",384,6
    1820 00000824 01800228-            MVKL    .S1     _capChan2,A3      ; |384| 
    1821                    
    1822 00000828 0FFEFC13!            CALL    .S2     _GIO_submit       ; |384| 
    1823 0000082c 01800068- ||         MVKH    .S1     _capChan2,A3      ; |384| 
    1824                    
    1825 00000830 020C0264             LDW     .D1T1   *A3,A4            ; |384| 
    1826 00000834 0280062A-            MVKL    .S2     _capFrameBuf2,B5  ; |384| 
    1827 00000838 0280006A-            MVKH    .S2     _capFrameBuf2,B5  ; |384| 
    1828 0000083c 0200412A             MVK     .S2     0x82,B4           ; |384| 
    1829                    
    1830 00000840 01840163             ADDKPC  .S2     RL51,B3,0         ; |384| 
    1831 00000844 03141FD9  ||         MV      .L1X    B5,A6             ; |384| 
    1832 00000848 04000029  ||         ZERO    .S1     A8                ; |384| 
    1833 0000084c 0300A35A  ||         ZERO    .L2     B6                ; |384| 
    1834                    
    1835 00000850           RL51:      ; CALL OCCURS {_GIO_submit}       ; |384| 
    1836 00000850 023F22F4             STW     .D2T1   A4,*+SP(100)      ; |384| 
    1837 00000854 00002000             NOP             2
    1838                            .dwpsn  "VideoInput2.c",386,3
    1839 00000858 0FFEF810!            CALL    .S1     _CLK_getltime     ; |386| 
    1840 0000085c 01888162             ADDKPC  .S2     RL56,B3,4         ; |386| 
    1841 00000860           RL56:      ; CALL OCCURS {_CLK_getltime}     ; |386| 
    1842 00000860 0FFEF410!            CALL    .S1     _CLK_getprd       ; |386| 
    1843 00000864 01836162             ADDKPC  .S2     RL55,B3,3         ; |386| 
    1844 00000868 05900FD8             MV      .L1     A4,A11            ; |386| 
    1845 0000086c           RL55:      ; CALL OCCURS {_CLK_getprd}       ; |386| 
    1846 0000086c 0FFEF410!            CALL    .S1     _CLK_countspms    ; |386| 
    1847 00000870 05100FD8             MV      .L1     A4,A10            ; |386| 
    1848 00000874 01866162             ADDKPC  .S2     RL57,B3,3         ; |386| 
    1849 00000878           RL57:      ; CALL OCCURS {_CLK_countspms}    ; |386| 
    1850                    
    1851 00000878 01A96881             MPYLH   .M1     A11,A10,A3        ; |386| 
    1852 0000087c 0FFEF410! ||         CALL    .S1     __divi            ; |386| 
    1853                    
    1854 00000880 02AD4880             MPYLH   .M1     A10,A11,A5        ; |386| 
    1855 00000884 02101FDA             MV      .L2X    A4,B4             ; |386| 
    1856                    
    1857 00000888 02AD4F81             MPYU    .M1     A10,A11,A5        ; |386| 
    1858 0000088c 018CA078  ||         ADD     .L1     A5,A3,A3          ; |386| 
    1859                    
    1860 00000890 018E0CA0             SHL     .S1     A3,16,A3          ; |386| 
    1861                    
    1862 00000894 01870163             ADDKPC  .S2     RL58,B3,0         ; |386| 
    1863 00000898 020CA078  ||         ADD     .L1     A5,A3,A4          ; |386| 
    1864                    
    1865 0000089c           RL58:      ; CALL OCCURS {__divi}            ; |386| 
    1866 0000089c 023FE2F4             STW     .D2T1   A4,*+SP(124)      ; |386| 
    1867 000008a0 00002000             NOP             2
    1868                            .dwpsn  "VideoInput2.c",388,3
    1869 000008a4 0204A35A             MVK     .L2     1,B4              ; |388| 
    1870 000008a8 023DA2F6             STW     .D2T2   B4,*+SP(52)       ; |388| 
TMS320C6x COFF Assembler PC v5.1.0 Fri Mar 25 16:51:07 2011

Tools Copyright (c) 1996-2005 Texas Instruments Incorporated
C:\DOCUME~1\yqhe\LOCALS~1\Temp\TI2522                                PAGE   35

    1871 000008ac 00002000             NOP             2
    1872                            .dwpsn  "VideoInput2.c",389,3
    1873 000008b0 0184A358             MVK     .L1     1,A3              ; |389| 
    1874 000008b4 01BDC2F4             STW     .D2T1   A3,*+SP(56)       ; |389| 
    1875 000008b8 00002000             NOP             2
    1876                            .dwpsn  "VideoInput2.c",390,3
    1877 000008bc 023D82E6             LDW     .D2T2   *+SP(48),B4       ; |390| 
    1878 000008c0 00006000             NOP             4
    1879 000008c4 0210205A             ADD     .L2     1,B4,B4           ; |390| 
    1880 000008c8 023D82F6             STW     .D2T2   B4,*+SP(48)       ; |390| 
    1881 000008cc 00002000             NOP             2
    1882                            .dwpsn  "VideoInput2.c",395,4
    1883 000008d0 0200042A-            MVKL    .S2     _capFrameBuf1,B4  ; |395| 
    1884 000008d4 0200006A-            MVKH    .S2     _capFrameBuf1,B4  ; |395| 
    1885 000008d8 029002E6             LDW     .D2T2   *B4,B5            ; |395| 
    1886 000008dc 00000000             NOP             1
    1887 000008e0 0230002A             MVKL    .S2     0x96000,B4        ; |395| 
    1888 000008e4 020004EA             MVKH    .S2     0x96000,B4        ; |395| 
    1889 000008e8 0FFEE410             CALL    .S1     _CACHE_inv_area   ; |395| 
    1890 000008ec 021442E4             LDW     .D2T1   *+B5(8),A4        ; |395| 
    1891 000008f0 01856162             ADDKPC  .S2     RL59,B3,3         ; |395| 
    1892                    RL59:      ; CALL OCCURS {_CACHE_inv_area}   ; |395| 
    1893                    DW$L$_tskVideoInput$2$E:
    1894                    ;** --------------------------------------------------------------------------*
    1895                    DW$L$_tskVideoInput$3$B:
    1896                            .dwpsn  "VideoInput2.c",397,4
    1897 000008f4 0180A358             ZERO    .L1     A3                ; |397| 
    1898 000008f8 01BE82F4             STW     .D2T1   A3,*+SP(80)       ; |397| 
    1899 000008fc 00002000             NOP             2
    1900                            .dwpsn  "VideoInput2.c",398,4
    1901 00000900 0257FFAA             MVKL    .S2     0x4afff,B4        ; |398| 
    1902 00000904 0200026A             MVKH    .S2     0x4afff,B4        ; |398| 
    1903 00000908 023E62F6             STW     .D2T2   B4,*+SP(76)       ; |398| 
    1904 0000090c 00002000             NOP             2
    1905                            .dwpsn  "VideoInput2.c",401,8
    1906 00000910 0200A35A             ZERO    .L2     B4                ; |401| 
    1907 00000914 023E42F6             STW     .D2T2   B4,*+SP(72)       ; |401| 
    1908 00000918 00002000             NOP             2
    1909                            .dwpsn  "VideoInput2.c",401,13
    1910 0000091c 01D80028             MVKL    .S1     0x4b000,A3        ; |401| 
    1911 00000920 01800268             MVKH    .S1     0x4b000,A3        ; |401| 
    1912 00000924 000C9AFA             CMPLT   .L2X    B4,A3,B0          ; |401| 
    1913 00000928 3024A120     [!B0]   BNOP    .S1     L12,5             ; |401| 
    1914                               ; BRANCHCC OCCURS {L12}           ; |401| 
    1915                    DW$L$_tskVideoInput$3$E:
    1916                    ;*----------------------------------------------------------------------------*
    1917                    ;*   SOFTWARE PIPELINE INFORMATION
    1918                    ;*      Disqualified loop: Software pipelining disabled
    1919                    ;*----------------------------------------------------------------------------*
    1920                    L11:    
    1921                    DW$L$_tskVideoInput$4$B:
    1922                            .dwpsn  "VideoInput2.c",403,5
    1923 0000092c 01800428-            MVKL    .S1     _capFrameBuf1,A3  ; |403| 
    1924 00000930 01800068-            MVKH    .S1     _capFrameBuf1,A3  ; |403| 
    1925 00000934 020C0264             LDW     .D1T1   *A3,A4            ; |403| 
TMS320C6x COFF Assembler PC v5.1.0 Fri Mar 25 16:51:07 2011

Tools Copyright (c) 1996-2005 Texas Instruments Incorporated
C:\DOCUME~1\yqhe\LOCALS~1\Temp\TI2522                                PAGE   36

    1926 00000938 0FBE82E4             LDW     .D2T1   *+SP(80),A31      ; |403| 
    1927 0000093c 02001C2A-            MVKL    .S2     _tmp_buf_l,B4     ; |403| 
    1928 00000940 02BE62E6             LDW     .D2T2   *+SP(76),B5       ; |403| 
    1929 00000944 0200006A-            MVKH    .S2     _tmp_buf_l,B4     ; |403| 
    1930 00000948 02104264             LDW     .D1T1   *+A4(8),A4        ; |403| 
    1931 0000094c 00004000             NOP             3
    1932 00000950 021002E6             LDW     .D2T2   *B4,B4            ; |403| 
    1933 00000954 0193EA14             LDBU    .D1T1   *+A4[A31],A3      ; |403| 
    1934 00000958 00006000             NOP             4
    1935 0000095c 0190AAB4             STB     .D2T1   A3,*+B4[B5]       ; |403| 
    1936 00000960 00002000             NOP             2
    1937                            .dwpsn  "VideoInput2.c",404,5
    1938 00000964 023E82E6             LDW     .D2T2   *+SP(80),B4       ; |404| 
    1939 00000968 00006000             NOP             4
    1940 0000096c 0210405A             ADD     .L2     2,B4,B4           ; |404| 
    1941 00000970 023E82F6             STW     .D2T2   B4,*+SP(80)       ; |404| 
    1942 00000974 00002000             NOP             2
    1943                            .dwpsn  "VideoInput2.c",406,5
    1944 00000978 023E62E6             LDW     .D2T2   *+SP(76),B4       ; |406| 
    1945 0000097c 00006000             NOP             4
    1946 00000980 0213E05A             SUB     .L2     B4,1,B4           ; |406| 
    1947 00000984 023E62F6             STW     .D2T2   B4,*+SP(76)       ; |406| 
    1948 00000988 00002000             NOP             2
    1949                            .dwpsn  "VideoInput2.c",401,26
    1950 0000098c 023E42E6             LDW     .D2T2   *+SP(72),B4       ; |401| 
    1951 00000990 00006000             NOP             4
    1952 00000994 0210205A             ADD     .L2     1,B4,B4           ; |401| 
    1953 00000998 023E42F6             STW     .D2T2   B4,*+SP(72)       ; |401| 
    1954 0000099c 00002000             NOP             2
    1955                            .dwpsn  "VideoInput2.c",401,13
    1956 000009a0 01D80028             MVKL    .S1     0x4b000,A3        ; |401| 
    1957 000009a4 01800268             MVKH    .S1     0x4b000,A3        ; |401| 
    1958 000009a8 001078F8             CMPLT   .L1X    B4,A3,A0          ; |401| 
    1959 000009ac CFE3A120     [ A0]   BNOP    .S1     L11,5             ; |401| 
    1960                               ; BRANCHCC OCCURS {L11}           ; |401| 
    1961                    DW$L$_tskVideoInput$4$E:
    1962                    ;** --------------------------------------------------------------------------*
    1963                    L12:    
    1964                    DW$L$_tskVideoInput$5$B:
    1965                            .dwpsn  "VideoInput2.c",431,4
    1966 000009b0 0204A35A             MVK     .L2     1,B4              ; |431| 
    1967 000009b4 023DA2F6             STW     .D2T2   B4,*+SP(52)       ; |431| 
    1968 000009b8 00002000             NOP             2
    1969                            .dwpsn  "VideoInput2.c",442,3
    1970 000009bc 00100ADA             CMPGT   .L2     B4,0,B0           ; |442| 
    1971 000009c0 303EA120     [!B0]   BNOP    .S1     L15,5             ; |442| 
    1972                               ; BRANCHCC OCCURS {L15}           ; |442| 
    1973                    DW$L$_tskVideoInput$5$E:
    1974                    ;** --------------------------------------------------------------------------*
    1975                    DW$L$_tskVideoInput$6$B:
    1976                            .dwpsn  "VideoInput2.c",444,4
    1977 000009c4 01800628-            MVKL    .S1     _capFrameBuf2,A3  ; |444| 
    1978 000009c8 01800068-            MVKH    .S1     _capFrameBuf2,A3  ; |444| 
    1979 000009cc 018C0264             LDW     .D1T1   *A3,A3            ; |444| 
    1980 000009d0 00000000             NOP             1
TMS320C6x COFF Assembler PC v5.1.0 Fri Mar 25 16:51:07 2011

Tools Copyright (c) 1996-2005 Texas Instruments Incorporated
C:\DOCUME~1\yqhe\LOCALS~1\Temp\TI2522                                PAGE   37

    1981 000009d4 0230002A             MVKL    .S2     0x96000,B4        ; |444| 
    1982 000009d8 020004EA             MVKH    .S2     0x96000,B4        ; |444| 
    1983 000009dc 0FFEC810             CALL    .S1     _CACHE_inv_area   ; |444| 
    1984 000009e0 020C4264             LDW     .D1T1   *+A3(8),A4        ; |444| 
    1985 000009e4 01826162             ADDKPC  .S2     RL60,B3,3         ; |444| 
    1986                    RL60:      ; CALL OCCURS {_CACHE_inv_area}   ; |444| 
    1987                            .dwpsn  "VideoInput2.c",446,4
    1988 000009e8 0200A35A             ZERO    .L2     B4                ; |446| 
    1989 000009ec 023E82F6             STW     .D2T2   B4,*+SP(80)       ; |446| 
    1990 000009f0 00002000             NOP             2
    1991                            .dwpsn  "VideoInput2.c",447,4
    1992 000009f4 0257FFAA             MVKL    .S2     0x4afff,B4        ; |447| 
    1993 000009f8 0200026A             MVKH    .S2     0x4afff,B4        ; |447| 
    1994 000009fc 023E62F6             STW     .D2T2   B4,*+SP(76)       ; |447| 
    1995 00000a00 00002000             NOP             2
    1996                            .dwpsn  "VideoInput2.c",450,8
    1997 00000a04 0200A35A             ZERO    .L2     B4                ; |450| 
    1998 00000a08 023E42F6             STW     .D2T2   B4,*+SP(72)       ; |450| 
    1999 00000a0c 00002000             NOP             2
    2000                            .dwpsn  "VideoInput2.c",450,13
    2001                    
    2002 00000a10 0258002B             MVKL    .S2     0x4b000,B4        ; |450| 
    2003 00000a14 02900FDA  ||         MV      .L2     B4,B5
    2004                    
    2005 00000a18 0200026A             MVKH    .S2     0x4b000,B4        ; |450| 
    2006 00000a1c 0010AAFA             CMPLT   .L2     B5,B4,B0          ; |450| 
    2007 00000a20 3022A120     [!B0]   BNOP    .S1     L14,5             ; |450| 
    2008                               ; BRANCHCC OCCURS {L14}           ; |450| 
    2009                    DW$L$_tskVideoInput$6$E:
    2010                    ;*----------------------------------------------------------------------------*
    2011                    ;*   SOFTWARE PIPELINE INFORMATION
    2012                    ;*      Disqualified loop: Software pipelining disabled
    2013                    ;*----------------------------------------------------------------------------*
    2014                    L13:    
    2015                    DW$L$_tskVideoInput$7$B:
    2016                            .dwpsn  "VideoInput2.c",452,5
    2017 00000a24 01800628-            MVKL    .S1     _capFrameBuf2,A3  ; |452| 
    2018 00000a28 01800068-            MVKH    .S1     _capFrameBuf2,A3  ; |452| 
    2019 00000a2c 020C0264             LDW     .D1T1   *A3,A4            ; |452| 
    2020 00000a30 0FBE82E4             LDW     .D2T1   *+SP(80),A31      ; |452| 
    2021 00000a34 02001E2A-            MVKL    .S2     _tmp_buf_r,B4     ; |452| 
    2022 00000a38 02BE62E6             LDW     .D2T2   *+SP(76),B5       ; |452| 
    2023 00000a3c 0200006A-            MVKH    .S2     _tmp_buf_r,B4     ; |452| 
    2024 00000a40 02104264             LDW     .D1T1   *+A4(8),A4        ; |452| 
    2025 00000a44 00004000             NOP             3
    2026 00000a48 021002E6             LDW     .D2T2   *B4,B4            ; |452| 
    2027 00000a4c 0193EA14             LDBU    .D1T1   *+A4[A31],A3      ; |452| 
    2028 00000a50 00006000             NOP             4
    2029 00000a54 0190AAB4             STB     .D2T1   A3,*+B4[B5]       ; |452| 
    2030 00000a58 00002000             NOP             2
    2031                            .dwpsn  "VideoInput2.c",453,5
    2032 00000a5c 023E82E6             LDW     .D2T2   *+SP(80),B4       ; |453| 
    2033 00000a60 00006000             NOP             4
    2034 00000a64 0210405A             ADD     .L2     2,B4,B4           ; |453| 
    2035 00000a68 023E82F6             STW     .D2T2   B4,*+SP(80)       ; |453| 
TMS320C6x COFF Assembler PC v5.1.0 Fri Mar 25 16:51:07 2011

Tools Copyright (c) 1996-2005 Texas Instruments Incorporated
C:\DOCUME~1\yqhe\LOCALS~1\Temp\TI2522                                PAGE   38

    2036 00000a6c 00002000             NOP             2
    2037                            .dwpsn  "VideoInput2.c",454,5
    2038 00000a70 023E62E6             LDW     .D2T2   *+SP(76),B4       ; |454| 
    2039 00000a74 00006000             NOP             4
    2040 00000a78 0213E05A             SUB     .L2     B4,1,B4           ; |454| 
    2041 00000a7c 023E62F6             STW     .D2T2   B4,*+SP(76)       ; |454| 
    2042 00000a80 00002000             NOP             2
    2043                            .dwpsn  "VideoInput2.c",450,26
    2044 00000a84 023E42E6             LDW     .D2T2   *+SP(72),B4       ; |450| 
    2045 00000a88 00006000             NOP             4
    2046 00000a8c 0210205A             ADD     .L2     1,B4,B4           ; |450| 
    2047 00000a90 023E42F6             STW     .D2T2   B4,*+SP(72)       ; |450| 
    2048 00000a94 00002000             NOP             2
    2049                            .dwpsn  "VideoInput2.c",450,13
    2050 00000a98 01D80028             MVKL    .S1     0x4b000,A3        ; |450| 
    2051 00000a9c 01800268             MVKH    .S1     0x4b000,A3        ; |450| 
    2052 00000aa0 001078F8             CMPLT   .L1X    B4,A3,A0          ; |450| 
    2053 00000aa4 CFE1A120     [ A0]   BNOP    .S1     L13,5             ; |450| 
    2054                               ; BRANCHCC OCCURS {L13}           ; |450| 
    2055                    DW$L$_tskVideoInput$7$E:
    2056                    ;** --------------------------------------------------------------------------*
    2057                    L14:    
    2058                    DW$L$_tskVideoInput$8$B:
    2059                            .dwpsn  "VideoInput2.c",479,4
    2060 00000aa8 0204A35A             MVK     .L2     1,B4              ; |479| 
    2061 00000aac 023DC2F6             STW     .D2T2   B4,*+SP(56)       ; |479| 
    2062 00000ab0 00002000             NOP             2
    2063                            .dwpsn  "VideoInput2.c",481,3
    2064 00000ab4 0008A120             BNOP    .S1     L16,5             ; |481| 
    2065                               ; BRANCH OCCURS {L16}             ; |481| 
    2066                    DW$L$_tskVideoInput$8$E:
    2067                    ;** --------------------------------------------------------------------------*
    2068                    L15:    
    2069                    DW$L$_tskVideoInput$9$B:
    2070                            .dwpsn  "VideoInput2.c",483,4
    2071 00000ab8 0200A35A             ZERO    .L2     B4                ; |483| 
    2072 00000abc 023DC2F6             STW     .D2T2   B4,*+SP(56)       ; |483| 
    2073                    DW$L$_tskVideoInput$9$E:
    2074                    ;** --------------------------------------------------------------------------*
    2075                    L16:    
    2076                    DW$L$_tskVideoInput$10$B:
    2077                            .dwpsn  "VideoInput2.c",487,3
    2078 00000ac0 023FA2E6             LDW     .D2T2   *+SP(116),B4      ; |487| 
    2079 00000ac4 00006000             NOP             4
    2080 00000ac8 023F82F6             STW     .D2T2   B4,*+SP(112)      ; |487| 
    2081 00000acc 00002000             NOP             2
    2082                            .dwpsn  "VideoInput2.c",488,3
    2083 00000ad0 023FE2E6             LDW     .D2T2   *+SP(124),B4      ; |488| 
    2084 00000ad4 00006000             NOP             4
    2085 00000ad8 023FC2F6             STW     .D2T2   B4,*+SP(120)      ; |488| 
    2086 00000adc 00002000             NOP             2
    2087                            .dwpsn  "VideoInput2.c",491,3
    2088 00000ae0 023EC2E6             LDW     .D2T2   *+SP(88),B4       ; |491| 
    2089 00000ae4 00006000             NOP             4
    2090 00000ae8 0210205A             ADD     .L2     1,B4,B4           ; |491| 
TMS320C6x COFF Assembler PC v5.1.0 Fri Mar 25 16:51:07 2011

Tools Copyright (c) 1996-2005 Texas Instruments Incorporated
C:\DOCUME~1\yqhe\LOCALS~1\Temp\TI2522                                PAGE   39

    2091 00000aec 023EC2F6             STW     .D2T2   B4,*+SP(88)       ; |491| 
    2092 00000af0 00002000             NOP             2
    2093                            .dwpsn  "VideoInput2.c",492,3
    2094 00000af4 0293E9A2             SHRU    .S2     B4,31,B5          ; |492| 
    2095                    
    2096 00000af8 0290A07B             ADD     .L2     B5,B4,B5          ; |492| 
    2097 00000afc 030000AA  ||         MVK     .S2     1,B6              ; |492| 
    2098                    
    2099 00000b00 0298AF9A             ANDN    .L2     B5,B6,B5          ; |492| 
    2100 00000b04 001480FA             SUB     .L2     B4,B5,B0          ; |492| 
    2101 00000b08 2007A120     [ B0]   BNOP    .S1     L17,5             ; |492| 
    2102                               ; BRANCHCC OCCURS {L17}           ; |492| 
    2103                    DW$L$_tskVideoInput$10$E:
    2104                    ;** --------------------------------------------------------------------------*
    2105                    DW$L$_tskVideoInput$11$B:
    2106                            .dwpsn  "VideoInput2.c",494,4
    2107 00000b0c 0001A510             CALL    .S1     _testADCValue     ; |494| 
    2108 00000b10 01858162             ADDKPC  .S2     RL61,B3,4         ; |494| 
    2109                    RL61:      ; CALL OCCURS {_testADCValue}     ; |494| 
    2110                            .dwpsn  "VideoInput2.c",495,4
    2111 00000b14 0200A35A             ZERO    .L2     B4                ; |495| 
    2112 00000b18 023EC2F6             STW     .D2T2   B4,*+SP(88)       ; |495| 
    2113                    DW$L$_tskVideoInput$11$E:
    2114                    ;** --------------------------------------------------------------------------*
    2115                    L17:    
    2116                    DW$L$_tskVideoInput$12$B:
    2117                            .dwpsn  "VideoInput2.c",523,3
    2118 00000b1c 01802028-            MVKL    .S1     _tsk_used_reg,A3  ; |523| 
    2119 00000b20 01800068-            MVKH    .S1     _tsk_used_reg,A3  ; |523| 
    2120 00000b24 018C0264             LDW     .D1T1   *A3,A3            ; |523| 
    2121 00000b28 00004000             NOP             3
    2122 00000b2c 023CE2E6             LDW     .D2T2   *+SP(28),B4       ; |523| 
    2123 00000b30 018C4204             LDHU    .D1T1   *+A3(4),A3        ; |523| 
    2124 00000b34 00006000             NOP             4
    2125 00000b38 000C9A7A             CMPEQ   .L2X    B4,A3,B0          ; |523| 
    2126 00000b3c 30148120     [!B0]   BNOP    .S1     L18,4             ; |523| 
    2127 00000b40 02002DDA             XOR     .L2     1,B0,B4           ; |523| 
    2128                               ; BRANCHCC OCCURS {L18}           ; |523| 
    2129 00000b44           DW$L$_tskVideoInput$12$E:
    2130                    ;** --------------------------------------------------------------------------*
    2131 00000b44           DW$L$_tskVideoInput$13$B:
    2132 00000b44 01802028-            MVKL    .S1     _tsk_used_reg,A3  ; |523| 
    2133 00000b48 01800068-            MVKH    .S1     _tsk_used_reg,A3  ; |523| 
    2134 00000b4c 018C0264             LDW     .D1T1   *A3,A3            ; |523| 
    2135 00000b50 00000000             NOP             1
    2136 00000b54 0200742A-            MVKL    .S2     _dsp_used_reg+164,B4 ; |523| 
    2137 00000b58 0200006A-            MVKH    .S2     _dsp_used_reg+164,B4 ; |523| 
    2138 00000b5c 021002E6             LDW     .D2T2   *B4,B4            ; |523| 
    2139 00000b60 018C6204             LDHU    .D1T1   *+A3(6),A3        ; |523| 
    2140 00000b64 00006000             NOP             4
    2141 00000b68 020C9A7A             CMPEQ   .L2X    B4,A3,B4          ; |523| 
    2142 00000b6c 02102DDA             XOR     .L2     1,B4,B4           ; |523| 
    2143 00000b70           DW$L$_tskVideoInput$13$E:
    2144                    ;** --------------------------------------------------------------------------*
    2145 00000b70           L18:    
TMS320C6x COFF Assembler PC v5.1.0 Fri Mar 25 16:51:07 2011

Tools Copyright (c) 1996-2005 Texas Instruments Incorporated
C:\DOCUME~1\yqhe\LOCALS~1\Temp\TI2522                                PAGE   40

    2146 00000b70           DW$L$_tskVideoInput$14$B:
    2147 00000b70 00101FD8             MV      .L1X    B4,A0             ; |523| 
    2148 00000b74 D00AA120     [!A0]   BNOP    .S1     L19,5             ; |523| 
    2149                               ; BRANCHCC OCCURS {L19}           ; |523| 
    2150                    DW$L$_tskVideoInput$14$E:
    2151                    ;** --------------------------------------------------------------------------*
    2152                    DW$L$_tskVideoInput$15$B:
    2153                            .dwpsn  "VideoInput2.c",531,4
    2154 00000b78 0FFE9410!            CALL    .S1     _ProcessFlag      ; |531| 
    2155 00000b7c 023E8942             ADD     .D2     SP,20,B4          ; |531| 
    2156 00000b80 01824162             ADDKPC  .S2     RL62,B3,2         ; |531| 
    2157 00000b84 02101FD8             MV      .L1X    B4,A4             ; |531| 
    2158                    RL62:      ; CALL OCCURS {_ProcessFlag}      ; |531| 
    2159                    DW$L$_tskVideoInput$15$E:
    2160                    ;** --------------------------------------------------------------------------*
    2161                    L19:    
    2162                    DW$L$_tskVideoInput$16$B:
    2163                            .dwpsn  "VideoInput2.c",537,3
    2164 00000b88 01802028-            MVKL    .S1     _tsk_used_reg,A3  ; |537| 
    2165 00000b8c 01800068-            MVKH    .S1     _tsk_used_reg,A3  ; |537| 
    2166 00000b90 018C0264             LDW     .D1T1   *A3,A3            ; |537| 
    2167 00000b94 00004000             NOP             3
    2168 00000b98 02001AA8             MVK     .S1     53,A4             ; |537| 
    2169 00000b9c 000C8A64             LDW     .D1T1   *+A3[A4],A0       ; |537| 
    2170 00000ba0 00006000             NOP             4
    2171 00000ba4 C022A120     [ A0]   BNOP    .S1     L20,5             ; |537| 
    2172                               ; BRANCHCC OCCURS {L20}           ; |537| 
    2173                    DW$L$_tskVideoInput$16$E:
    2174                    ;** --------------------------------------------------------------------------*
    2175                    DW$L$_tskVideoInput$17$B:
    2176                            .dwpsn  "VideoInput2.c",540,4
    2177 00000ba8 02001C2A-            MVKL    .S2     _tmp_buf_l,B4     ; |540| 
    2178                    
    2179 00000bac 0FFE8C11!            CALL    .S1     _memcpy           ; |540| 
    2180 00000bb0 0200006B- ||         MVKH    .S2     _tmp_buf_l,B4     ; |540| 
    2181 00000bb4 023F42E4  ||         LDW     .D2T1   *+SP(104),A4      ; |540| 
    2182                    
    2183 00000bb8 021002E6             LDW     .D2T2   *B4,B4            ; |540| 
    2184 00000bbc 03580028             MVKL    .S1     0x4b000,A6        ; |540| 
    2185 00000bc0 01822162             ADDKPC  .S2     RL63,B3,1         ; |540| 
    2186 00000bc4 03000268             MVKH    .S1     0x4b000,A6        ; |540| 
    2187                    RL63:      ; CALL OCCURS {_memcpy}           ; |540| 
    2188                            .dwpsn  "VideoInput2.c",541,4
    2189 00000bc8 01801028-            MVKL    .S1     _copyimg_ptr_l,A3 ; |541| 
    2190 00000bcc 01800068-            MVKH    .S1     _copyimg_ptr_l,A3 ; |541| 
    2191                    
    2192 00000bd0 0FFE8811!            CALL    .S1     _fill_checksum    ; |541| 
    2193 00000bd4 018C0264  ||         LDW     .D1T1   *A3,A3            ; |541| 
    2194                    
    2195 00000bd8 025A1C2A             MVKL    .S2     0x4b438,B4        ; |541| 
    2196 00000bdc 0200026A             MVKH    .S2     0x4b438,B4        ; |541| 
    2197 00000be0 01822162             ADDKPC  .S2     RL64,B3,1         ; |541| 
    2198 00000be4 020C8058             ADD     .L1     4,A3,A4           ; |541| 
    2199                    RL64:      ; CALL OCCURS {_fill_checksum}    ; |541| 
    2200                            .dwpsn  "VideoInput2.c",543,4
TMS320C6x COFF Assembler PC v5.1.0 Fri Mar 25 16:51:07 2011

Tools Copyright (c) 1996-2005 Texas Instruments Incorporated
C:\DOCUME~1\yqhe\LOCALS~1\Temp\TI2522                                PAGE   41

    2201 00000be8 01800028!            MVKL    .S1     _CACHE_flush,A3   ; |543| 
    2202 00000bec 01800068!            MVKH    .S1     _CACHE_flush,A3   ; |543| 
    2203 00000bf0 000C1362             CALL    .S2X    A3                ; |543| 
    2204 00000bf4 01892162             ADDKPC  .S2     RL65,B3,1         ; |543| 
    2205 00000bf8 0300A358             ZERO    .L1     A6                ; |543| 
    2206 00000bfc 0200A35A             ZERO    .L2     B4                ; |543| 
    2207 00000c00 020000A8             MVK     .S1     0x1,A4            ; |543| 
    2208                    RL65:      ; CALL OCCURS {_CACHE_flush}      ; |543| 
    2209                            .dwpsn  "VideoInput2.c",545,4
    2210 00000c04 0200202A-            MVKL    .S2     _tsk_used_reg,B4  ; |545| 
    2211 00000c08 0200006A-            MVKH    .S2     _tsk_used_reg,B4  ; |545| 
    2212 00000c0c 0280102A-            MVKL    .S2     _copyimg_ptr_l,B5 ; |545| 
    2213                    
    2214 00000c10 021002E7             LDW     .D2T2   *B4,B4            ; |545| 
    2215 00000c14 0280006A- ||         MVKH    .S2     _copyimg_ptr_l,B5 ; |545| 
    2216                    
    2217 00000c18 029402E6             LDW     .D2T2   *B5,B5            ; |545| 
    2218 00000c1c 00004000             NOP             3
    2219 00000c20 03001AAA             MVK     .S2     53,B6             ; |545| 
    2220 00000c24 0290CAF6             STW     .D2T2   B5,*+B4[B6]       ; |545| 
    2221                    DW$L$_tskVideoInput$17$E:
    2222                    ;** --------------------------------------------------------------------------*
    2223                    L20:    
    2224                    DW$L$_tskVideoInput$18$B:
    2225                            .dwpsn  "VideoInput2.c",549,3
    2226 00000c28 01802028-            MVKL    .S1     _tsk_used_reg,A3  ; |549| 
    2227 00000c2c 01800068-            MVKH    .S1     _tsk_used_reg,A3  ; |549| 
    2228 00000c30 018C0264             LDW     .D1T1   *A3,A3            ; |549| 
    2229 00000c34 00004000             NOP             3
    2230 00000c38 02001B28             MVK     .S1     54,A4             ; |549| 
    2231 00000c3c 000C8A64             LDW     .D1T1   *+A3[A4],A0       ; |549| 
    2232 00000c40 00006000             NOP             4
    2233 00000c44 C022A120     [ A0]   BNOP    .S1     L21,5             ; |549| 
    2234                               ; BRANCHCC OCCURS {L21}           ; |549| 
    2235                    DW$L$_tskVideoInput$18$E:
    2236                    ;** --------------------------------------------------------------------------*
    2237                    DW$L$_tskVideoInput$19$B:
    2238                            .dwpsn  "VideoInput2.c",551,4
    2239 00000c48 02001E2A-            MVKL    .S2     _tmp_buf_r,B4     ; |551| 
    2240                    
    2241 00000c4c 0FFE7811!            CALL    .S1     _memcpy           ; |551| 
    2242 00000c50 0200006B- ||         MVKH    .S2     _tmp_buf_r,B4     ; |551| 
    2243 00000c54 023F62E4  ||         LDW     .D2T1   *+SP(108),A4      ; |551| 
    2244                    
    2245 00000c58 021002E6             LDW     .D2T2   *B4,B4            ; |551| 
    2246 00000c5c 03580028             MVKL    .S1     0x4b000,A6        ; |551| 
    2247 00000c60 01822162             ADDKPC  .S2     RL66,B3,1         ; |551| 
    2248 00000c64 03000268             MVKH    .S1     0x4b000,A6        ; |551| 
    2249                    RL66:      ; CALL OCCURS {_memcpy}           ; |551| 
    2250                            .dwpsn  "VideoInput2.c",552,4
    2251 00000c68 01801228-            MVKL    .S1     _copyimg_ptr_r,A3 ; |552| 
    2252 00000c6c 01800068-            MVKH    .S1     _copyimg_ptr_r,A3 ; |552| 
    2253                    
    2254 00000c70 0FFE7411!            CALL    .S1     _fill_checksum    ; |552| 
    2255 00000c74 018C0264  ||         LDW     .D1T1   *A3,A3            ; |552| 
TMS320C6x COFF Assembler PC v5.1.0 Fri Mar 25 16:51:07 2011

Tools Copyright (c) 1996-2005 Texas Instruments Incorporated
C:\DOCUME~1\yqhe\LOCALS~1\Temp\TI2522                                PAGE   42

    2256                    
    2257 00000c78 025A1C2A             MVKL    .S2     0x4b438,B4        ; |552| 
    2258 00000c7c 0200026A             MVKH    .S2     0x4b438,B4        ; |552| 
    2259 00000c80 01822162             ADDKPC  .S2     RL67,B3,1         ; |552| 
    2260 00000c84 020C8058             ADD     .L1     4,A3,A4           ; |552| 
    2261                    RL67:      ; CALL OCCURS {_fill_checksum}    ; |552| 
    2262                            .dwpsn  "VideoInput2.c",554,4
    2263 00000c88 01800028!            MVKL    .S1     _CACHE_flush,A3   ; |554| 
    2264 00000c8c 01800068!            MVKH    .S1     _CACHE_flush,A3   ; |554| 
    2265 00000c90 000C1362             CALL    .S2X    A3                ; |554| 
    2266 00000c94 01892162             ADDKPC  .S2     RL68,B3,1         ; |554| 
    2267 00000c98 0300A358             ZERO    .L1     A6                ; |554| 
    2268 00000c9c 0200A35A             ZERO    .L2     B4                ; |554| 
    2269 00000ca0 020000A8             MVK     .S1     0x1,A4            ; |554| 
    2270                    RL68:      ; CALL OCCURS {_CACHE_flush}      ; |554| 
    2271                            .dwpsn  "VideoInput2.c",556,4
    2272 00000ca4 0200122A-            MVKL    .S2     _copyimg_ptr_r,B4 ; |556| 
    2273 00000ca8 0200006A-            MVKH    .S2     _copyimg_ptr_r,B4 ; |556| 
    2274 00000cac 0280202A-            MVKL    .S2     _tsk_used_reg,B5  ; |556| 
    2275                    
    2276 00000cb0 021002E7             LDW     .D2T2   *B4,B4            ; |556| 
    2277 00000cb4 0280006A- ||         MVKH    .S2     _tsk_used_reg,B5  ; |556| 
    2278                    
    2279 00000cb8 029402E6             LDW     .D2T2   *B5,B5            ; |556| 
    2280 00000cbc 00004000             NOP             3
    2281 00000cc0 03001B2A             MVK     .S2     54,B6             ; |556| 
    2282 00000cc4 0214CAF6             STW     .D2T2   B4,*+B5[B6]       ; |556| 
    2283                    DW$L$_tskVideoInput$19$E:
    2284                    ;** --------------------------------------------------------------------------*
    2285                    L21:    
    2286                    DW$L$_tskVideoInput$20$B:
    2287                            .dwpsn  "VideoInput2.c",562,3
    2288 00000cc8 01802028-            MVKL    .S1     _tsk_used_reg,A3  ; |562| 
    2289 00000ccc 01800068-            MVKH    .S1     _tsk_used_reg,A3  ; |562| 
    2290 00000cd0 018C0264             LDW     .D1T1   *A3,A3            ; |562| 
    2291 00000cd4 00006000             NOP             4
    2292 00000cd8 018CC264             LDW     .D1T1   *+A3(24),A3       ; |562| 
    2293 00000cdc 00006000             NOP             4
    2294 00000ce0 000C2A58             CMPEQ   .L1     A3,1,A0           ; |562| 
    2295 00000ce4 D073A120     [!A0]   BNOP    .S1     L27,5             ; |562| 
    2296                               ; BRANCHCC OCCURS {L27}           ; |562| 
    2297                    DW$L$_tskVideoInput$20$E:
    2298                    ;** --------------------------------------------------------------------------*
    2299                    DW$L$_tskVideoInput$21$B:
    2300                            .dwpsn  "VideoInput2.c",567,4
    2301 00000ce8 00026F10             CALL    .S1     _DispIcon         ; |567| 
    2302 00000cec 01848162             ADDKPC  .S2     RL69,B3,4         ; |567| 
    2303                    RL69:      ; CALL OCCURS {_DispIcon}         ; |567| 
    2304                            .dwpsn  "VideoInput2.c",570,4
    2305 00000cf0 01802028-            MVKL    .S1     _tsk_used_reg,A3  ; |570| 
    2306 00000cf4 01800068-            MVKH    .S1     _tsk_used_reg,A3  ; |570| 
    2307 00000cf8 018C0264             LDW     .D1T1   *A3,A3            ; |570| 
    2308 00000cfc 00006000             NOP             4
    2309 00000d00 018C4204             LDHU    .D1T1   *+A3(4),A3        ; |570| 
    2310 00000d04 00006000             NOP             4
TMS320C6x COFF Assembler PC v5.1.0 Fri Mar 25 16:51:07 2011

Tools Copyright (c) 1996-2005 Texas Instruments Incorporated
C:\DOCUME~1\yqhe\LOCALS~1\Temp\TI2522                                PAGE   43

    2311 00000d08 000CAA58             CMPEQ   .L1     A3,5,A0           ; |570| 
    2312 00000d0c C00BA120     [ A0]   BNOP    .S1     L22,5             ; |570| 
    2313                               ; BRANCHCC OCCURS {L22}           ; |570| 
    2314                    DW$L$_tskVideoInput$21$E:
    2315                    ;** --------------------------------------------------------------------------*
    2316                    DW$L$_tskVideoInput$22$B:
    2317                            .dwpsn  "VideoInput2.c",572,5
    2318 00000d10 01807628-            MVKL    .S1     _dsp_used_reg+168,A3 ; |572| 
    2319 00000d14 01800068-            MVKH    .S1     _dsp_used_reg+168,A3 ; |572| 
    2320 00000d18 018C0264             LDW     .D1T1   *A3,A3            ; |572| 
    2321 00000d1c 00006000             NOP             4
    2322 00000d20 01BEE2F4             STW     .D2T1   A3,*+SP(92)       ; |572| 
    2323 00000d24 00002000             NOP             2
    2324                            .dwpsn  "VideoInput2.c",573,4
    2325 00000d28 0005A120             BNOP    .S1     L23,5             ; |573| 
    2326                               ; BRANCH OCCURS {L23}             ; |573| 
    2327                    DW$L$_tskVideoInput$22$E:
    2328                    ;** --------------------------------------------------------------------------*
    2329                    L22:    
    2330                    DW$L$_tskVideoInput$23$B:
    2331                            .dwpsn  "VideoInput2.c",576,5
    2332 00000d2c 0200A35A             ZERO    .L2     B4                ; |576| 
    2333 00000d30 023EE2F6             STW     .D2T2   B4,*+SP(92)       ; |576| 
    2334                    DW$L$_tskVideoInput$23$E:
    2335                    ;** --------------------------------------------------------------------------*
    2336                    L23:    
    2337                    DW$L$_tskVideoInput$24$B:
    2338                            .dwpsn  "VideoInput2.c",579,4
    2339 00000d34 01807628-            MVKL    .S1     _dsp_used_reg+168,A3 ; |579| 
    2340 00000d38 01800068-            MVKH    .S1     _dsp_used_reg+168,A3 ; |579| 
    2341                    
    2342 00000d3c 018C0265             LDW     .D1T1   *A3,A3            ; |579| 
    2343 00000d40 023EE2E6  ||         LDW     .D2T2   *+SP(92),B4       ; |579| 
    2344                    
    2345 00000d44 00006000             NOP             4
    2346 00000d48 000C9A7A             CMPEQ   .L2X    B4,A3,B0          ; |579| 
    2347 00000d4c 2014A120     [ B0]   BNOP    .S1     L24,5             ; |579| 
    2348                               ; BRANCHCC OCCURS {L24}           ; |579| 
    2349                    DW$L$_tskVideoInput$24$E:
    2350                    ;** --------------------------------------------------------------------------*
    2351                    DW$L$_tskVideoInput$25$B:
    2352                            .dwpsn  "VideoInput2.c",581,5
    2353                    
    2354 00000d50 0200762B-            MVKL    .S2     _dsp_used_reg+168,B4 ; |581| 
    2355 00000d54 02900FDA  ||         MV      .L2     B4,B5
    2356                    
    2357 00000d58 0200006A-            MVKH    .S2     _dsp_used_reg+168,B4 ; |581| 
    2358 00000d5c 029002F6             STW     .D2T2   B5,*B4            ; |581| 
    2359 00000d60 00002000             NOP             2
    2360                            .dwpsn  "VideoInput2.c",582,5
    2361 00000d64 01807628-            MVKL    .S1     _dsp_used_reg+168,A3 ; |582| 
    2362                    
    2363 00000d68 0FFE5413!            CALL    .S2     _disp_set_cb      ; |582| 
    2364 00000d6c 01800068- ||         MVKH    .S1     _dsp_used_reg+168,A3 ; |582| 
    2365                    
TMS320C6x COFF Assembler PC v5.1.0 Fri Mar 25 16:51:07 2011

Tools Copyright (c) 1996-2005 Texas Instruments Incorporated
C:\DOCUME~1\yqhe\LOCALS~1\Temp\TI2522                                PAGE   44

    2366 00000d70 050C0264             LDW     .D1T1   *A3,A10           ; |582| 
    2367 00000d74 03004FAA             MVK     .S2     0x9f,B6           ; |582| 
    2368 00000d78 030025A8             MVK     .S1     0x4b,A6           ; |582| 
    2369 00000d7c 0400752A             MVK     .S2     0xea,B8           ; |582| 
    2370                    
    2371 00000d80 01840163             ADDKPC  .S2     RL70,B3,0         ; |582| 
    2372 00000d84 0218A35B  ||         MVK     .L2     0x6,B4            ; |582| 
    2373 00000d88 04002829  ||         MVK     .S1     0x50,A8           ; |582| 
    2374 00000d8c 0218A358  ||         MVK     .L1     0x6,A4            ; |582| 
    2375                    
    2376                    RL70:      ; CALL OCCURS {_disp_set_cb}      ; |582| 
    2377                    DW$L$_tskVideoInput$25$E:
    2378                    ;** --------------------------------------------------------------------------*
    2379                    L24:    
    2380                    DW$L$_tskVideoInput$26$B:
    2381                            .dwpsn  "VideoInput2.c",585,4
    2382 00000d90 023DE2E6             LDW     .D2T2   *+SP(60),B4       ; |585| 
    2383 00000d94 00006000             NOP             4
    2384 00000d98 0210205A             ADD     .L2     1,B4,B4           ; |585| 
    2385 00000d9c 023DE2F6             STW     .D2T2   B4,*+SP(60)       ; |585| 
    2386 00000da0 00002000             NOP             2
    2387                            .dwpsn  "VideoInput2.c",586,4
    2388 00000da4 02BDC2E6             LDW     .D2T2   *+SP(56),B5       ; |586| 
    2389 00000da8 023DA2E6             LDW     .D2T2   *+SP(52),B4       ; |586| 
    2390 00000dac 00006000             NOP             4
    2391 00000db0 0210A07A             ADD     .L2     B5,B4,B4          ; |586| 
    2392 00000db4 00104A5A             CMPEQ   .L2     B4,2,B0           ; |586| 
    2393 00000db8 3029A120     [!B0]   BNOP    .S1     L26,5             ; |586| 
    2394                               ; BRANCHCC OCCURS {L26}           ; |586| 
    2395                    DW$L$_tskVideoInput$26$E:
    2396                    ;** --------------------------------------------------------------------------*
    2397                    DW$L$_tskVideoInput$27$B:
    2398                            .dwpsn  "VideoInput2.c",590,4
    2399 00000dbc 01802028-            MVKL    .S1     _tsk_used_reg,A3  ; |590| 
    2400 00000dc0 01800068-            MVKH    .S1     _tsk_used_reg,A3  ; |590| 
    2401 00000dc4 018C0264             LDW     .D1T1   *A3,A3            ; |590| 
    2402 00000dc8 00004000             NOP             3
    2403 00000dcc 02001828             MVK     .S1     48,A4             ; |590| 
    2404 00000dd0 000C8A64             LDW     .D1T1   *+A3[A4],A0       ; |590| 
    2405 00000dd4 00006000             NOP             4
    2406 00000dd8 C014A120     [ A0]   BNOP    .S1     L25,5             ; |590| 
    2407                               ; BRANCHCC OCCURS {L25}           ; |590| 
    2408                    DW$L$_tskVideoInput$27$E:
    2409                    ;** --------------------------------------------------------------------------*
    2410                    DW$L$_tskVideoInput$28$B:
    2411                            .dwpsn  "VideoInput2.c",591,5
    2412 00000ddc 02000028!            MVKL    .S1     _vdis_buf,A4      ; |591| 
    2413 00000de0 01801C28-            MVKL    .S1     _tmp_buf_l,A3     ; |591| 
    2414 00000de4 02000068!            MVKH    .S1     _vdis_buf,A4      ; |591| 
    2415                    
    2416 00000de8 01800069-            MVKH    .S1     _tmp_buf_l,A3     ; |591| 
    2417 00000dec 02001E2A- ||         MVKL    .S2     _tmp_buf_r,B4     ; |591| 
    2418                    
    2419 00000df0 0FFE4411!            CALL    .S1     _disp_rgb565      ; |591| 
    2420 00000df4 03100265  ||         LDW     .D1T1   *A4,A6            ; |591| 
TMS320C6x COFF Assembler PC v5.1.0 Fri Mar 25 16:51:07 2011

Tools Copyright (c) 1996-2005 Texas Instruments Incorporated
C:\DOCUME~1\yqhe\LOCALS~1\Temp\TI2522                                PAGE   45

    2421 00000df8 0200006A- ||         MVKH    .S2     _tmp_buf_r,B4     ; |591| 
    2422                    
    2423 00000dfc 020C0265             LDW     .D1T1   *A3,A4            ; |591| 
    2424 00000e00 021002E6  ||         LDW     .D2T2   *B4,B4            ; |591| 
    2425                    
    2426 00000e04 01834162             ADDKPC  .S2     RL71,B3,2         ; |591| 
    2427 00000e08 0300A35A             ZERO    .L2     B6                ; |591| 
    2428 00000e0c           RL71:      ; CALL OCCURS {_disp_rgb565}      ; |591| 
    2429 00000e0c 0091A120             BNOP    .S1     L34,5             ; |591| 
    2430                               ; BRANCH OCCURS {L34}             ; |591| 
    2431                    DW$L$_tskVideoInput$28$E:
    2432                    ;** --------------------------------------------------------------------------*
    2433                    L25:    
    2434                    DW$L$_tskVideoInput$29$B:
    2435                            .dwpsn  "VideoInput2.c",593,5
    2436 00000e10 02001C28-            MVKL    .S1     _tmp_buf_l,A4     ; |593| 
    2437                    
    2438 00000e14 01800029!            MVKL    .S1     _vdis_buf,A3      ; |593| 
    2439 00000e18 02001E2A- ||         MVKL    .S2     _tmp_buf_r,B4     ; |593| 
    2440                    
    2441 00000e1c 0200006B-            MVKH    .S2     _tmp_buf_r,B4     ; |593| 
    2442 00000e20 02000068- ||         MVKH    .S1     _tmp_buf_l,A4     ; |593| 
    2443                    
    2444 00000e24 0FFE3C13!            CALL    .S2     _disp_rgb565      ; |593| 
    2445 00000e28 02100265  ||         LDW     .D1T1   *A4,A4            ; |593| 
    2446 00000e2c 01800068! ||         MVKH    .S1     _vdis_buf,A3      ; |593| 
    2447                    
    2448 00000e30 021002E7             LDW     .D2T2   *B4,B4            ; |593| 
    2449 00000e34 030C0264  ||         LDW     .D1T1   *A3,A6            ; |593| 
    2450                    
    2451 00000e38 01884162             ADDKPC  .S2     RL72,B3,2         ; |593| 
    2452 00000e3c 0304A35A             MVK     .L2     0x1,B6            ; |593| 
    2453                    RL72:      ; CALL OCCURS {_disp_rgb565}      ; |593| 
    2454                            .dwpsn  "VideoInput2.c",600,4
    2455 00000e40 0081A120             BNOP    .S1     L34,5             ; |600| 
    2456                               ; BRANCH OCCURS {L34}             ; |600| 
    2457                    DW$L$_tskVideoInput$29$E:
    2458                    ;** --------------------------------------------------------------------------*
    2459                    L26:    
    2460                    DW$L$_tskVideoInput$30$B:
    2461                            .dwpsn  "VideoInput2.c",603,5
    2462 00000e44 023E02E6             LDW     .D2T2   *+SP(64),B4       ; |603| 
    2463 00000e48 00006000             NOP             4
    2464 00000e4c 0210205A             ADD     .L2     1,B4,B4           ; |603| 
    2465 00000e50 023E02F6             STW     .D2T2   B4,*+SP(64)       ; |603| 
    2466 00000e54 00002000             NOP             2
    2467                            .dwpsn  "VideoInput2.c",604,5
    2468 00000e58 02BE02E6             LDW     .D2T2   *+SP(64),B5       ; |604| 
    2469 00000e5c 023E22E6             LDW     .D2T2   *+SP(68),B4       ; |604| 
    2470 00000e60 00004000             NOP             3
    2471 00000e64 0F80322A             MVK     .S2     100,B31           ; |604| 
    2472 00000e68 0210A0FA             SUB     .L2     B5,B4,B4          ; |604| 
    2473 00000e6c 007C8AFA             CMPLT   .L2     B4,B31,B0         ; |604| 
    2474 00000e70 2079A120     [ B0]   BNOP    .S1     L34,5             ; |604| 
    2475                               ; BRANCHCC OCCURS {L34}           ; |604| 
TMS320C6x COFF Assembler PC v5.1.0 Fri Mar 25 16:51:07 2011

Tools Copyright (c) 1996-2005 Texas Instruments Incorporated
C:\DOCUME~1\yqhe\LOCALS~1\Temp\TI2522                                PAGE   46

    2476                    DW$L$_tskVideoInput$30$E:
    2477                    ;** --------------------------------------------------------------------------*
    2478                    DW$L$_tskVideoInput$31$B:
    2479                            .dwpsn  "VideoInput2.c",606,6
    2480 00000e74 02BDE2E6             LDW     .D2T2   *+SP(60),B5       ; |606| 
    2481 00000e78 023E02E6             LDW     .D2T2   *+SP(64),B4       ; |606| 
    2482                    
    2483 00000e7c 0FFE3413!            CALL    .S2     _dbg_output       ; |606| 
    2484 00000e80 01803328+ ||         MVKL    .S1     SL6+0,A3          ; |606| 
    2485                    
    2486 00000e84 01800068+            MVKH    .S1     SL6+0,A3          ; |606| 
    2487 00000e88 01BC22F4             STW     .D2T1   A3,*+SP(4)        ; |606| 
    2488 00000e8c 02BC42F6             STW     .D2T2   B5,*+SP(8)        ; |606| 
    2489 00000e90 023C62F6             STW     .D2T2   B4,*+SP(12)       ; |606| 
    2490 00000e94 01860162             ADDKPC  .S2     RL73,B3,0         ; |606| 
    2491                    RL73:      ; CALL OCCURS {_dbg_output}       ; |606| 
    2492                            .dwpsn  "VideoInput2.c",607,6
    2493 00000e98 023E02E6             LDW     .D2T2   *+SP(64),B4       ; |607| 
    2494 00000e9c 00006000             NOP             4
    2495 00000ea0 023E22F6             STW     .D2T2   B4,*+SP(68)       ; |607| 
    2496 00000ea4 00002000             NOP             2
    2497                            .dwpsn  "VideoInput2.c",611,9
    2498 00000ea8 0069A120             BNOP    .S1     L34,5             ; |611| 
    2499                               ; BRANCH OCCURS {L34}             ; |611| 
    2500                    DW$L$_tskVideoInput$31$E:
    2501                    ;** --------------------------------------------------------------------------*
    2502                    L27:    
    2503                    DW$L$_tskVideoInput$32$B:
    2504                            .dwpsn  "VideoInput2.c",617,4
    2505 00000eac 023CA2E6             LDW     .D2T2   *+SP(20),B4       ; |617| 
    2506 00000eb0 00004000             NOP             3
    2507 00000eb4 0180A358             ZERO    .L1     A3                ; |617| 
    2508 00000eb8 019102F4             STW     .D2T1   A3,*+B4(32)       ; |617| 
    2509 00000ebc 00002000             NOP             2
    2510                            .dwpsn  "VideoInput2.c",618,4
    2511 00000ec0 023CA2E6             LDW     .D2T2   *+SP(20),B4       ; |618| 
    2512 00000ec4 00006000             NOP             4
    2513 00000ec8 019122F4             STW     .D2T1   A3,*+B4(36)       ; |618| 
    2514 00000ecc 00002000             NOP             2
    2515                            .dwpsn  "VideoInput2.c",619,4
    2516 00000ed0 023CA2E6             LDW     .D2T2   *+SP(20),B4       ; |619| 
    2517 00000ed4 00004000             NOP             3
    2518 00000ed8 0280A35A             ZERO    .L2     B5                ; |619| 
    2519 00000edc 029042F6             STW     .D2T2   B5,*+B4(8)        ; |619| 
    2520 00000ee0 00002000             NOP             2
    2521                            .dwpsn  "VideoInput2.c",620,4
    2522 00000ee4 023CA2E6             LDW     .D2T2   *+SP(20),B4       ; |620| 
    2523 00000ee8 00006000             NOP             4
    2524 00000eec 029062F6             STW     .D2T2   B5,*+B4(12)       ; |620| 
    2525 00000ef0 00002000             NOP             2
    2526                            .dwpsn  "VideoInput2.c",622,4
    2527 00000ef4 0200A35A             ZERO    .L2     B4                ; |622| 
    2528 00000ef8 023D02F6             STW     .D2T2   B4,*+SP(32)       ; |622| 
    2529 00000efc 00002000             NOP             2
    2530                            .dwpsn  "VideoInput2.c",624,4
TMS320C6x COFF Assembler PC v5.1.0 Fri Mar 25 16:51:07 2011

Tools Copyright (c) 1996-2005 Texas Instruments Incorporated
C:\DOCUME~1\yqhe\LOCALS~1\Temp\TI2522                                PAGE   47

    2531 00000f00 01807228-            MVKL    .S1     _dsp_used_reg+160,A3 ; |624| 
    2532                    
    2533 00000f04 01800069-            MVKH    .S1     _dsp_used_reg+160,A3 ; |624| 
    2534 00000f08 0200A358  ||         ZERO    .L1     A4                ; |624| 
    2535                    
    2536 00000f0c 020C0274             STW     .D1T1   A4,*A3            ; |624| 
    2537 00000f10 00002000             NOP             2
    2538                            .dwpsn  "VideoInput2.c",626,4
    2539 00000f14 023EE2F6             STW     .D2T2   B4,*+SP(92)       ; |626| 
    2540 00000f18 00002000             NOP             2
    2541                            .dwpsn  "VideoInput2.c",628,4
    2542 00000f1c 01807628-            MVKL    .S1     _dsp_used_reg+168,A3 ; |628| 
    2543 00000f20 01800068-            MVKH    .S1     _dsp_used_reg+168,A3 ; |628| 
    2544 00000f24 018C0264             LDW     .D1T1   *A3,A3            ; |628| 
    2545 00000f28 00006000             NOP             4
    2546 00000f2c 000C9A7A             CMPEQ   .L2X    B4,A3,B0          ; |628| 
    2547 00000f30 2015A120     [ B0]   BNOP    .S1     L28,5             ; |628| 
    2548                               ; BRANCHCC OCCURS {L28}           ; |628| 
    2549                    DW$L$_tskVideoInput$32$E:
    2550                    ;** --------------------------------------------------------------------------*
    2551                    DW$L$_tskVideoInput$33$B:
    2552                            .dwpsn  "VideoInput2.c",630,5
    2553                    
    2554 00000f34 0200762B-            MVKL    .S2     _dsp_used_reg+168,B4 ; |630| 
    2555 00000f38 02900FDA  ||         MV      .L2     B4,B5
    2556                    
    2557 00000f3c 0200006A-            MVKH    .S2     _dsp_used_reg+168,B4 ; |630| 
    2558 00000f40 029002F6             STW     .D2T2   B5,*B4            ; |630| 
    2559 00000f44 00002000             NOP             2
    2560                            .dwpsn  "VideoInput2.c",631,5
    2561 00000f48 01807628-            MVKL    .S1     _dsp_used_reg+168,A3 ; |631| 
    2562                    
    2563 00000f4c 0FFE1813!            CALL    .S2     _disp_set_cb      ; |631| 
    2564 00000f50 01800068- ||         MVKH    .S1     _dsp_used_reg+168,A3 ; |631| 
    2565                    
    2566 00000f54 050C0264             LDW     .D1T1   *A3,A10           ; |631| 
    2567 00000f58 03004FAA             MVK     .S2     0x9f,B6           ; |631| 
    2568 00000f5c 030025A8             MVK     .S1     0x4b,A6           ; |631| 
    2569 00000f60 0400752A             MVK     .S2     0xea,B8           ; |631| 
    2570                    
    2571 00000f64 01850163             ADDKPC  .S2     RL74,B3,0         ; |631| 
    2572 00000f68 0218A35B  ||         MVK     .L2     0x6,B4            ; |631| 
    2573 00000f6c 04002829  ||         MVK     .S1     0x50,A8           ; |631| 
    2574 00000f70 0218A358  ||         MVK     .L1     0x6,A4            ; |631| 
    2575                    
    2576                    RL74:      ; CALL OCCURS {_disp_set_cb}      ; |631| 
    2577                    DW$L$_tskVideoInput$33$E:
    2578                    ;** --------------------------------------------------------------------------*
    2579                    L28:    
    2580                    DW$L$_tskVideoInput$34$B:
    2581                            .dwpsn  "VideoInput2.c",634,12
    2582 00000f74 0200A35A             ZERO    .L2     B4                ; |634| 
    2583 00000f78 023EA2F6             STW     .D2T2   B4,*+SP(84)       ; |634| 
    2584 00000f7c 00002000             NOP             2
    2585                            .dwpsn  "VideoInput2.c",634,21
TMS320C6x COFF Assembler PC v5.1.0 Fri Mar 25 16:51:07 2011

Tools Copyright (c) 1996-2005 Texas Instruments Incorporated
C:\DOCUME~1\yqhe\LOCALS~1\Temp\TI2522                                PAGE   48

    2586 00000f80 001148DA             CMPLT   .L2     B4,10,B0          ; |634| 
    2587 00000f84 300EA120     [!B0]   BNOP    .S1     L30,5             ; |634| 
    2588                               ; BRANCHCC OCCURS {L30}           ; |634| 
    2589                    DW$L$_tskVideoInput$34$E:
    2590                    ;*----------------------------------------------------------------------------*
    2591                    ;*   SOFTWARE PIPELINE INFORMATION
    2592                    ;*      Disqualified loop: Software pipelining disabled
    2593                    ;*----------------------------------------------------------------------------*
    2594                    L29:    
    2595                    DW$L$_tskVideoInput$35$B:
    2596                            .dwpsn  "VideoInput2.c",636,11
    2597 00000f88 02805E2A-            MVKL    .S2     _dsp_used_reg+120,B5 ; |636| 
    2598                    
    2599 00000f8c 0280006B-            MVKH    .S2     _dsp_used_reg+120,B5 ; |636| 
    2600 00000f90 0300A35A  ||         ZERO    .L2     B6                ; |636| 
    2601                    
    2602 00000f94 03148AF6             STW     .D2T2   B6,*+B5[B4]       ; |636| 
    2603 00000f98 00002000             NOP             2
    2604                            .dwpsn  "VideoInput2.c",634,41
    2605 00000f9c 023EA2E6             LDW     .D2T2   *+SP(84),B4       ; |634| 
    2606 00000fa0 00006000             NOP             4
    2607 00000fa4 0210205A             ADD     .L2     1,B4,B4           ; |634| 
    2608 00000fa8 023EA2F6             STW     .D2T2   B4,*+SP(84)       ; |634| 
    2609 00000fac 00002000             NOP             2
    2610                            .dwpsn  "VideoInput2.c",634,21
    2611 00000fb0 001148DA             CMPLT   .L2     B4,10,B0          ; |634| 
    2612 00000fb4 2FFAA120     [ B0]   BNOP    .S1     L29,5             ; |634| 
    2613                               ; BRANCHCC OCCURS {L29}           ; |634| 
    2614                    DW$L$_tskVideoInput$35$E:
    2615                    ;** --------------------------------------------------------------------------*
    2616                    L30:    
    2617                    DW$L$_tskVideoInput$36$B:
    2618                            .dwpsn  "VideoInput2.c",639,4
    2619 00000fb8 01803C28-            MVKL    .S1     _dsp_used_reg+52,A3 ; |639| 
    2620 00000fbc 01800068-            MVKH    .S1     _dsp_used_reg+52,A3 ; |639| 
    2621 00000fc0 018C0264             LDW     .D1T1   *A3,A3            ; |639| 
    2622 00000fc4 00006000             NOP             4
    2623 00000fc8 000C2A58             CMPEQ   .L1     A3,1,A0           ; |639| 
    2624 00000fcc D009A120     [!A0]   BNOP    .S1     L31,5             ; |639| 
    2625                               ; BRANCHCC OCCURS {L31}           ; |639| 
    2626 00000fd0           DW$L$_tskVideoInput$36$E:
    2627                    ;** --------------------------------------------------------------------------*
    2628 00000fd0           DW$L$_tskVideoInput$37$B:
    2629 00000fd0 023DA2E6             LDW     .D2T2   *+SP(52),B4       ; |639| 
    2630 00000fd4 02BDC2E6             LDW     .D2T2   *+SP(56),B5       ; |639| 
    2631 00000fd8 000A6120             BNOP    .S1     L32,3             ; |639| 
    2632 00000fdc 0210A07A             ADD     .L2     B5,B4,B4          ; |639| 
    2633 00000fe0 02104A5A             CMPEQ   .L2     B4,2,B4           ; |639| 
    2634                               ; BRANCH OCCURS {L32}             ; |639| 
    2635 00000fe4           DW$L$_tskVideoInput$37$E:
    2636                    ;** --------------------------------------------------------------------------*
    2637 00000fe4           L31:    
    2638 00000fe4           DW$L$_tskVideoInput$38$B:
    2639 00000fe4 02001FDA             MV      .L2X    A0,B4             ; |639| 
    2640 00000fe8           DW$L$_tskVideoInput$38$E:
TMS320C6x COFF Assembler PC v5.1.0 Fri Mar 25 16:51:07 2011

Tools Copyright (c) 1996-2005 Texas Instruments Incorporated
C:\DOCUME~1\yqhe\LOCALS~1\Temp\TI2522                                PAGE   49

    2641                    ;** --------------------------------------------------------------------------*
    2642 00000fe8           L32:    
    2643 00000fe8           DW$L$_tskVideoInput$39$B:
    2644 00000fe8 00101FD8             MV      .L1X    B4,A0             ; |639| 
    2645 00000fec D012A120     [!A0]   BNOP    .S1     L33,5             ; |639| 
    2646                               ; BRANCHCC OCCURS {L33}           ; |639| 
    2647                    DW$L$_tskVideoInput$39$E:
    2648                    ;** --------------------------------------------------------------------------*
    2649                    DW$L$_tskVideoInput$40$B:
    2650                            .dwpsn  "VideoInput2.c",641,5
    2651 00000ff0 00020F10             CALL    .S1     _DispIcon         ; |641| 
    2652 00000ff4 01868162             ADDKPC  .S2     RL75,B3,4         ; |641| 
    2653                    RL75:      ; CALL OCCURS {_DispIcon}         ; |641| 
    2654                            .dwpsn  "VideoInput2.c",644,5
    2655 00000ff8 02001C28-            MVKL    .S1     _tmp_buf_l,A4     ; |644| 
    2656 00000ffc 01800028!            MVKL    .S1     _vdis_buf,A3      ; |644| 
    2657 00001000 02000068-            MVKH    .S1     _tmp_buf_l,A4     ; |644| 
    2658                    
    2659 00001004 01800069!            MVKH    .S1     _vdis_buf,A3      ; |644| 
    2660 00001008 02001E2A- ||         MVKL    .S2     _tmp_buf_r,B4     ; |644| 
    2661                    
    2662 0000100c 0FFE0011!            CALL    .S1     _disp_rgb565      ; |644| 
    2663 00001010 02100265  ||         LDW     .D1T1   *A4,A4            ; |644| 
    2664 00001014 0200006A- ||         MVKH    .S2     _tmp_buf_r,B4     ; |644| 
    2665                    
    2666 00001018 030C0265             LDW     .D1T1   *A3,A6            ; |644| 
    2667 0000101c 021002E6  ||         LDW     .D2T2   *B4,B4            ; |644| 
    2668                    
    2669 00001020 01824162             ADDKPC  .S2     RL76,B3,2         ; |644| 
    2670 00001024 0300A35A             ZERO    .L2     B6                ; |644| 
    2671                    RL76:      ; CALL OCCURS {_disp_rgb565}      ; |644| 
    2672                    DW$L$_tskVideoInput$40$E:
    2673                    ;** --------------------------------------------------------------------------*
    2674                    L33:    
    2675                    DW$L$_tskVideoInput$41$B:
    2676                            .dwpsn  "VideoInput2.c",666,4
    2677 00001028 01800028!            MVKL    .S1     _CACHE_flush,A3   ; |666| 
    2678 0000102c 01800068!            MVKH    .S1     _CACHE_flush,A3   ; |666| 
    2679 00001030 000C1362             CALL    .S2X    A3                ; |666| 
    2680 00001034 01892162             ADDKPC  .S2     RL77,B3,1         ; |666| 
    2681 00001038 0300A358             ZERO    .L1     A6                ; |666| 
    2682 0000103c 0200A35A             ZERO    .L2     B4                ; |666| 
    2683 00001040 020000A8             MVK     .S1     0x1,A4            ; |666| 
    2684                    RL77:      ; CALL OCCURS {_CACHE_flush}      ; |666| 
    2685                    DW$L$_tskVideoInput$41$E:
    2686                    ;** --------------------------------------------------------------------------*
    2687                    L34:    
    2688                    DW$L$_tskVideoInput$42$B:
    2689                            .dwpsn  "VideoInput2.c",670,3
    2690 00001044 01803E28-            MVKL    .S1     _dsp_used_reg+56,A3 ; |670| 
    2691 00001048 01800068-            MVKH    .S1     _dsp_used_reg+56,A3 ; |670| 
    2692 0000104c 000C0264             LDW     .D1T1   *A3,A0            ; |670| 
    2693 00001050 00006000             NOP             4
    2694 00001054 D00CA120     [!A0]   BNOP    .S1     L35,5             ; |670| 
    2695                               ; BRANCHCC OCCURS {L35}           ; |670| 
TMS320C6x COFF Assembler PC v5.1.0 Fri Mar 25 16:51:07 2011

Tools Copyright (c) 1996-2005 Texas Instruments Incorporated
C:\DOCUME~1\yqhe\LOCALS~1\Temp\TI2522                                PAGE   50

    2696                    DW$L$_tskVideoInput$42$E:
    2697                    ;** --------------------------------------------------------------------------*
    2698                    DW$L$_tskVideoInput$43$B:
    2699                            .dwpsn  "VideoInput2.c",671,4
    2700 00001058 01803E28-            MVKL    .S1     _dsp_used_reg+56,A3 ; |671| 
    2701 0000105c 01800068-            MVKH    .S1     _dsp_used_reg+56,A3 ; |671| 
    2702 00001060 020C0264             LDW     .D1T1   *A3,A4            ; |671| 
    2703 00001064 0DC76120             BNOP    .S1     L10,3             ; |671| 
    2704 00001068 0213E058             SUB     .L1     A4,1,A4           ; |671| 
    2705 0000106c 020C0274             STW     .D1T1   A4,*A3            ; |671| 
    2706                               ; BRANCH OCCURS {L10}             ; |671| 
    2707                    DW$L$_tskVideoInput$43$E:
    2708                    ;** --------------------------------------------------------------------------*
    2709                    ;** --------------------------------------------------------------------------*
    2710                    L35:    
    2711                    DW$L$_tskVideoInput$45$B:
    2712                            .dwpsn  "VideoInput2.c",674,8
    2713 00001070 02BDA2E6             LDW     .D2T2   *+SP(52),B5       ; |674| 
    2714 00001074 023DC2E6             LDW     .D2T2   *+SP(56),B4       ; |674| 
    2715 00001078 00006000             NOP             4
    2716 0000107c 0214807A             ADD     .L2     B4,B5,B4          ; |674| 
    2717 00001080 00104A5A             CMPEQ   .L2     B4,2,B0           ; |674| 
    2718 00001084 3DBFA120     [!B0]   BNOP    .S1     L10,5             ; |674| 
    2719                               ; BRANCHCC OCCURS {L10}           ; |674| 
    2720                    DW$L$_tskVideoInput$45$E:
    2721                    ;** --------------------------------------------------------------------------*
    2722                    DW$L$_tskVideoInput$46$B:
    2723                            .dwpsn  "VideoInput2.c",675,5
    2724 00001088 0FFDF010!            CALL    .S1     _ProcessImg       ; |675| 
    2725 0000108c 023E8942             ADD     .D2     SP,20,B4          ; |675| 
    2726 00001090 01864162             ADDKPC  .S2     RL78,B3,2         ; |675| 
    2727 00001094 02101FD8             MV      .L1X    B4,A4             ; |675| 
    2728                    RL78:      ; CALL OCCURS {_ProcessImg}       ; |675| 
    2729                            .dwpsn  "VideoInput2.c",372,11
    2730 00001098 0DBFA120             BNOP    .S1     L10,5             ; |372| 
    2731                               ; BRANCH OCCURS {L10}             ; |372| 
    2732                    DW$L$_tskVideoInput$46$E:
    2733                    ;** --------------------------------------------------------------------------*
    2734                            .dwcfa  0xc0, 26
    2735                            .dwcfa  0xc0, 19
    2736                            .dwcfa  0xc0, 10
    2737                            .dwcfa  0xc0, 11
    2738                            .dwcfa  0xc0, 27
    2739                            .dwcfa  0x0e, 0
    2740                    
    2741                    DW$192  .dwtag  DW_TAG_loop
    2742                            .dwattr DW$192, DW_AT_name("C:\DOCUME~1\yqhe\LOCALS~1\Temp\TI2522:L10:1:1301043066")
    2743                            .dwattr DW$192, DW_AT_begin_file("VideoInput2.c")
    2744                            .dwattr DW$192, DW_AT_begin_line(0x174)
    2745                            .dwattr DW$192, DW_AT_end_line(0x2a5)
    2746                    DW$193  .dwtag  DW_TAG_loop_range
    2747                            .dwattr DW$193, DW_AT_low_pc(DW$L$_tskVideoInput$2$B)
    2748                            .dwattr DW$193, DW_AT_high_pc(DW$L$_tskVideoInput$2$E)
    2749                    DW$194  .dwtag  DW_TAG_loop_range
    2750                            .dwattr DW$194, DW_AT_low_pc(DW$L$_tskVideoInput$32$B)
TMS320C6x COFF Assembler PC v5.1.0 Fri Mar 25 16:51:07 2011

Tools Copyright (c) 1996-2005 Texas Instruments Incorporated
C:\DOCUME~1\yqhe\LOCALS~1\Temp\TI2522                                PAGE   51

    2751                            .dwattr DW$194, DW_AT_high_pc(DW$L$_tskVideoInput$32$E)
    2752                    DW$195  .dwtag  DW_TAG_loop_range
    2753                            .dwattr DW$195, DW_AT_low_pc(DW$L$_tskVideoInput$33$B)
    2754                            .dwattr DW$195, DW_AT_high_pc(DW$L$_tskVideoInput$33$E)
    2755                    DW$196  .dwtag  DW_TAG_loop_range
    2756                            .dwattr DW$196, DW_AT_low_pc(DW$L$_tskVideoInput$34$B)
    2757                            .dwattr DW$196, DW_AT_high_pc(DW$L$_tskVideoInput$34$E)
    2758                    DW$197  .dwtag  DW_TAG_loop_range
    2759                            .dwattr DW$197, DW_AT_low_pc(DW$L$_tskVideoInput$36$B)
    2760                            .dwattr DW$197, DW_AT_high_pc(DW$L$_tskVideoInput$36$E)
    2761                    DW$198  .dwtag  DW_TAG_loop_range
    2762                            .dwattr DW$198, DW_AT_low_pc(DW$L$_tskVideoInput$37$B)
    2763                            .dwattr DW$198, DW_AT_high_pc(DW$L$_tskVideoInput$37$E)
    2764                    DW$199  .dwtag  DW_TAG_loop_range
    2765                            .dwattr DW$199, DW_AT_low_pc(DW$L$_tskVideoInput$38$B)
    2766                            .dwattr DW$199, DW_AT_high_pc(DW$L$_tskVideoInput$38$E)
    2767                    DW$200  .dwtag  DW_TAG_loop_range
    2768                            .dwattr DW$200, DW_AT_low_pc(DW$L$_tskVideoInput$39$B)
    2769                            .dwattr DW$200, DW_AT_high_pc(DW$L$_tskVideoInput$39$E)
    2770                    DW$201  .dwtag  DW_TAG_loop_range
    2771                            .dwattr DW$201, DW_AT_low_pc(DW$L$_tskVideoInput$40$B)
    2772                            .dwattr DW$201, DW_AT_high_pc(DW$L$_tskVideoInput$40$E)
    2773                    DW$202  .dwtag  DW_TAG_loop_range
    2774                            .dwattr DW$202, DW_AT_low_pc(DW$L$_tskVideoInput$3$B)
    2775                            .dwattr DW$202, DW_AT_high_pc(DW$L$_tskVideoInput$3$E)
    2776                    DW$203  .dwtag  DW_TAG_loop_range
    2777                            .dwattr DW$203, DW_AT_low_pc(DW$L$_tskVideoInput$5$B)
    2778                            .dwattr DW$203, DW_AT_high_pc(DW$L$_tskVideoInput$5$E)
    2779                    DW$204  .dwtag  DW_TAG_loop_range
    2780                            .dwattr DW$204, DW_AT_low_pc(DW$L$_tskVideoInput$6$B)
    2781                            .dwattr DW$204, DW_AT_high_pc(DW$L$_tskVideoInput$6$E)
    2782                    DW$205  .dwtag  DW_TAG_loop_range
    2783                            .dwattr DW$205, DW_AT_low_pc(DW$L$_tskVideoInput$8$B)
    2784                            .dwattr DW$205, DW_AT_high_pc(DW$L$_tskVideoInput$8$E)
    2785                    DW$206  .dwtag  DW_TAG_loop_range
    2786                            .dwattr DW$206, DW_AT_low_pc(DW$L$_tskVideoInput$9$B)
    2787                            .dwattr DW$206, DW_AT_high_pc(DW$L$_tskVideoInput$9$E)
    2788                    DW$207  .dwtag  DW_TAG_loop_range
    2789                            .dwattr DW$207, DW_AT_low_pc(DW$L$_tskVideoInput$10$B)
    2790                            .dwattr DW$207, DW_AT_high_pc(DW$L$_tskVideoInput$10$E)
    2791                    DW$208  .dwtag  DW_TAG_loop_range
    2792                            .dwattr DW$208, DW_AT_low_pc(DW$L$_tskVideoInput$11$B)
    2793                            .dwattr DW$208, DW_AT_high_pc(DW$L$_tskVideoInput$11$E)
    2794                    DW$209  .dwtag  DW_TAG_loop_range
    2795                            .dwattr DW$209, DW_AT_low_pc(DW$L$_tskVideoInput$12$B)
    2796                            .dwattr DW$209, DW_AT_high_pc(DW$L$_tskVideoInput$12$E)
    2797                    DW$210  .dwtag  DW_TAG_loop_range
    2798                            .dwattr DW$210, DW_AT_low_pc(DW$L$_tskVideoInput$13$B)
    2799                            .dwattr DW$210, DW_AT_high_pc(DW$L$_tskVideoInput$13$E)
    2800                    DW$211  .dwtag  DW_TAG_loop_range
    2801                            .dwattr DW$211, DW_AT_low_pc(DW$L$_tskVideoInput$14$B)
    2802                            .dwattr DW$211, DW_AT_high_pc(DW$L$_tskVideoInput$14$E)
    2803                    DW$212  .dwtag  DW_TAG_loop_range
    2804                            .dwattr DW$212, DW_AT_low_pc(DW$L$_tskVideoInput$15$B)
    2805                            .dwattr DW$212, DW_AT_high_pc(DW$L$_tskVideoInput$15$E)
TMS320C6x COFF Assembler PC v5.1.0 Fri Mar 25 16:51:07 2011

Tools Copyright (c) 1996-2005 Texas Instruments Incorporated
C:\DOCUME~1\yqhe\LOCALS~1\Temp\TI2522                                PAGE   52

    2806                    DW$213  .dwtag  DW_TAG_loop_range
    2807                            .dwattr DW$213, DW_AT_low_pc(DW$L$_tskVideoInput$16$B)
    2808                            .dwattr DW$213, DW_AT_high_pc(DW$L$_tskVideoInput$16$E)
    2809                    DW$214  .dwtag  DW_TAG_loop_range
    2810                            .dwattr DW$214, DW_AT_low_pc(DW$L$_tskVideoInput$17$B)
    2811                            .dwattr DW$214, DW_AT_high_pc(DW$L$_tskVideoInput$17$E)
    2812                    DW$215  .dwtag  DW_TAG_loop_range
    2813                            .dwattr DW$215, DW_AT_low_pc(DW$L$_tskVideoInput$18$B)
    2814                            .dwattr DW$215, DW_AT_high_pc(DW$L$_tskVideoInput$18$E)
    2815                    DW$216  .dwtag  DW_TAG_loop_range
    2816                            .dwattr DW$216, DW_AT_low_pc(DW$L$_tskVideoInput$19$B)
    2817                            .dwattr DW$216, DW_AT_high_pc(DW$L$_tskVideoInput$19$E)
    2818                    DW$217  .dwtag  DW_TAG_loop_range
    2819                            .dwattr DW$217, DW_AT_low_pc(DW$L$_tskVideoInput$20$B)
    2820                            .dwattr DW$217, DW_AT_high_pc(DW$L$_tskVideoInput$20$E)
    2821                    DW$218  .dwtag  DW_TAG_loop_range
    2822                            .dwattr DW$218, DW_AT_low_pc(DW$L$_tskVideoInput$21$B)
    2823                            .dwattr DW$218, DW_AT_high_pc(DW$L$_tskVideoInput$21$E)
    2824                    DW$219  .dwtag  DW_TAG_loop_range
    2825                            .dwattr DW$219, DW_AT_low_pc(DW$L$_tskVideoInput$22$B)
    2826                            .dwattr DW$219, DW_AT_high_pc(DW$L$_tskVideoInput$22$E)
    2827                    DW$220  .dwtag  DW_TAG_loop_range
    2828                            .dwattr DW$220, DW_AT_low_pc(DW$L$_tskVideoInput$23$B)
    2829                            .dwattr DW$220, DW_AT_high_pc(DW$L$_tskVideoInput$23$E)
    2830                    DW$221  .dwtag  DW_TAG_loop_range
    2831                            .dwattr DW$221, DW_AT_low_pc(DW$L$_tskVideoInput$24$B)
    2832                            .dwattr DW$221, DW_AT_high_pc(DW$L$_tskVideoInput$24$E)
    2833                    DW$222  .dwtag  DW_TAG_loop_range
    2834                            .dwattr DW$222, DW_AT_low_pc(DW$L$_tskVideoInput$25$B)
    2835                            .dwattr DW$222, DW_AT_high_pc(DW$L$_tskVideoInput$25$E)
    2836                    DW$223  .dwtag  DW_TAG_loop_range
    2837                            .dwattr DW$223, DW_AT_low_pc(DW$L$_tskVideoInput$26$B)
    2838                            .dwattr DW$223, DW_AT_high_pc(DW$L$_tskVideoInput$26$E)
    2839                    DW$224  .dwtag  DW_TAG_loop_range
    2840                            .dwattr DW$224, DW_AT_low_pc(DW$L$_tskVideoInput$27$B)
    2841                            .dwattr DW$224, DW_AT_high_pc(DW$L$_tskVideoInput$27$E)
    2842                    DW$225  .dwtag  DW_TAG_loop_range
    2843                            .dwattr DW$225, DW_AT_low_pc(DW$L$_tskVideoInput$28$B)
    2844                            .dwattr DW$225, DW_AT_high_pc(DW$L$_tskVideoInput$28$E)
    2845                    DW$226  .dwtag  DW_TAG_loop_range
    2846                            .dwattr DW$226, DW_AT_low_pc(DW$L$_tskVideoInput$29$B)
    2847                            .dwattr DW$226, DW_AT_high_pc(DW$L$_tskVideoInput$29$E)
    2848                    DW$227  .dwtag  DW_TAG_loop_range
    2849                            .dwattr DW$227, DW_AT_low_pc(DW$L$_tskVideoInput$30$B)
    2850                            .dwattr DW$227, DW_AT_high_pc(DW$L$_tskVideoInput$30$E)
    2851                    DW$228  .dwtag  DW_TAG_loop_range
    2852                            .dwattr DW$228, DW_AT_low_pc(DW$L$_tskVideoInput$31$B)
    2853                            .dwattr DW$228, DW_AT_high_pc(DW$L$_tskVideoInput$31$E)
    2854                    DW$229  .dwtag  DW_TAG_loop_range
    2855                            .dwattr DW$229, DW_AT_low_pc(DW$L$_tskVideoInput$41$B)
    2856                            .dwattr DW$229, DW_AT_high_pc(DW$L$_tskVideoInput$41$E)
    2857                    DW$230  .dwtag  DW_TAG_loop_range
    2858                            .dwattr DW$230, DW_AT_low_pc(DW$L$_tskVideoInput$42$B)
    2859                            .dwattr DW$230, DW_AT_high_pc(DW$L$_tskVideoInput$42$E)
    2860                    DW$231  .dwtag  DW_TAG_loop_range
TMS320C6x COFF Assembler PC v5.1.0 Fri Mar 25 16:51:07 2011

Tools Copyright (c) 1996-2005 Texas Instruments Incorporated
C:\DOCUME~1\yqhe\LOCALS~1\Temp\TI2522                                PAGE   53

    2861                            .dwattr DW$231, DW_AT_low_pc(DW$L$_tskVideoInput$46$B)
    2862                            .dwattr DW$231, DW_AT_high_pc(DW$L$_tskVideoInput$46$E)
    2863                    DW$232  .dwtag  DW_TAG_loop_range
    2864                            .dwattr DW$232, DW_AT_low_pc(DW$L$_tskVideoInput$45$B)
    2865                            .dwattr DW$232, DW_AT_high_pc(DW$L$_tskVideoInput$45$E)
    2866                    DW$233  .dwtag  DW_TAG_loop_range
    2867                            .dwattr DW$233, DW_AT_low_pc(DW$L$_tskVideoInput$43$B)
    2868                            .dwattr DW$233, DW_AT_high_pc(DW$L$_tskVideoInput$43$E)
    2869                    
    2870                    DW$234  .dwtag  DW_TAG_loop
    2871                            .dwattr DW$234, DW_AT_name("C:\DOCUME~1\yqhe\LOCALS~1\Temp\TI2522:L29:2:1301043066")
    2872                            .dwattr DW$234, DW_AT_begin_file("VideoInput2.c")
    2873                            .dwattr DW$234, DW_AT_begin_line(0x27a)
    2874                            .dwattr DW$234, DW_AT_end_line(0x27d)
    2875                    DW$235  .dwtag  DW_TAG_loop_range
    2876                            .dwattr DW$235, DW_AT_low_pc(DW$L$_tskVideoInput$35$B)
    2877                            .dwattr DW$235, DW_AT_high_pc(DW$L$_tskVideoInput$35$E)
    2878                            .dwendtag DW$234
    2879                    
    2880                    
    2881                    DW$236  .dwtag  DW_TAG_loop
    2882                            .dwattr DW$236, DW_AT_name("C:\DOCUME~1\yqhe\LOCALS~1\Temp\TI2522:L11:2:1301043066")
    2883                            .dwattr DW$236, DW_AT_begin_file("VideoInput2.c")
    2884                            .dwattr DW$236, DW_AT_begin_line(0x191)
    2885                            .dwattr DW$236, DW_AT_end_line(0x198)
    2886                    DW$237  .dwtag  DW_TAG_loop_range
    2887                            .dwattr DW$237, DW_AT_low_pc(DW$L$_tskVideoInput$4$B)
    2888                            .dwattr DW$237, DW_AT_high_pc(DW$L$_tskVideoInput$4$E)
    2889                            .dwendtag DW$236
    2890                    
    2891                    
    2892                    DW$238  .dwtag  DW_TAG_loop
    2893                            .dwattr DW$238, DW_AT_name("C:\DOCUME~1\yqhe\LOCALS~1\Temp\TI2522:L13:2:1301043066")
    2894                            .dwattr DW$238, DW_AT_begin_file("VideoInput2.c")
    2895                            .dwattr DW$238, DW_AT_begin_line(0x1c2)
    2896                            .dwattr DW$238, DW_AT_end_line(0x1c8)
    2897                    DW$239  .dwtag  DW_TAG_loop_range
    2898                            .dwattr DW$239, DW_AT_low_pc(DW$L$_tskVideoInput$7$B)
    2899                            .dwattr DW$239, DW_AT_high_pc(DW$L$_tskVideoInput$7$E)
    2900                            .dwendtag DW$238
    2901                    
    2902                            .dwendtag DW$192
    2903                    
    2904                            .dwattr DW$170, DW_AT_end_file("VideoInput2.c")
    2905                            .dwattr DW$170, DW_AT_end_line(0x2a7)
    2906                            .dwattr DW$170, DW_AT_end_column(0x01)
    2907                            .dwendentry
    2908                            .dwendtag DW$170
    2909                    
    2910 0000109c                   .sect   ".text"
    2911                            .global _arm_dsp_data_init
    2912                    
    2913                    DW$240  .dwtag  DW_TAG_subprogram, DW_AT_name("arm_dsp_data_init"), DW_AT_symbol_name("_arm_dsp_data_i
    2914                            .dwattr DW$240, DW_AT_low_pc(_arm_dsp_data_init)
    2915                            .dwattr DW$240, DW_AT_high_pc(0x00)
TMS320C6x COFF Assembler PC v5.1.0 Fri Mar 25 16:51:07 2011

Tools Copyright (c) 1996-2005 Texas Instruments Incorporated
C:\DOCUME~1\yqhe\LOCALS~1\Temp\TI2522                                PAGE   54

    2916                            .dwattr DW$240, DW_AT_begin_file("VideoInput2.c")
    2917                            .dwattr DW$240, DW_AT_begin_line(0x2ab)
    2918                            .dwattr DW$240, DW_AT_begin_column(0x06)
    2919                            .dwpsn  "VideoInput2.c",684,1
    2920                    
    2921                            .dwfde DW$CIE
    2922                    
    2923                    ;******************************************************************************
    2924                    ;* FUNCTION NAME: _arm_dsp_data_init                                          *
    2925                    ;*                                                                            *
    2926                    ;*   Regs Modified     : A0,A1,A2,A3,A4,A5,A6,A7,A8,A9,B0,B1,B2,B3,B4,B5,B6,  *
    2927                    ;*                           B7,B8,B9,SP,A16,A17,A18,A19,A20,A21,A22,A23,A24, *
    2928                    ;*                           A25,A26,A27,A28,A29,A30,A31,B16,B17,B18,B19,B20, *
    2929                    ;*                           B21,B22,B23,B24,B25,B26,B27,B28,B29,B30,B31      *
    2930                    ;*   Regs Used         : A0,A1,A2,A3,A4,A5,A6,A7,A8,A9,B0,B1,B2,B3,B4,B5,B6,  *
    2931                    ;*                           B7,B8,B9,SP,A16,A17,A18,A19,A20,A21,A22,A23,A24, *
    2932                    ;*                           A25,A26,A27,A28,A29,A30,A31,B16,B17,B18,B19,B20, *
    2933                    ;*                           B21,B22,B23,B24,B25,B26,B27,B28,B29,B30,B31      *
    2934                    ;*   Local Frame Size  : 16 Args + 20 Auto + 4 Save = 40 byte                 *
    2935                    ;******************************************************************************
    2936                    _arm_dsp_data_init:
    2937                    ;** --------------------------------------------------------------------------*
    2938                            .dwcfa  0x0e, 0
    2939                            .dwcfa  0x09, 126, 19
    2940 0000109c 01BD54F6             STW     .D2T2   B3,*SP--(40)      ; |684| 
    2941 000010a0 00002000             NOP             2
    2942                            .dwcfa  0x0e, 40
    2943                            .dwcfa  0x80, 19, 0
    2944                    DW$241  .dwtag  DW_TAG_variable, DW_AT_name("addr"), DW_AT_symbol_name("_addr")
    2945                            .dwattr DW$241, DW_AT_type(*DW$T$11)
    2946                            .dwattr DW$241, DW_AT_location[DW_OP_breg31 20]
    2947                    DW$242  .dwtag  DW_TAG_variable, DW_AT_name("len"), DW_AT_symbol_name("_len")
    2948                            .dwattr DW$242, DW_AT_type(*DW$T$11)
    2949                            .dwattr DW$242, DW_AT_location[DW_OP_breg31 24]
    2950                    DW$243  .dwtag  DW_TAG_variable, DW_AT_name("bmp_clear"), DW_AT_symbol_name("_bmp_clear")
    2951                            .dwattr DW$243, DW_AT_type(*DW$T$70)
    2952                            .dwattr DW$243, DW_AT_location[DW_OP_breg31 28]
    2953                    DW$244  .dwtag  DW_TAG_variable, DW_AT_name("clear_len"), DW_AT_symbol_name("_clear_len")
    2954                            .dwattr DW$244, DW_AT_type(*DW$T$10)
    2955                            .dwattr DW$244, DW_AT_location[DW_OP_breg31 32]
    2956                    DW$245  .dwtag  DW_TAG_variable, DW_AT_name("lptmp"), DW_AT_symbol_name("_lptmp")
    2957                            .dwattr DW$245, DW_AT_type(*DW$T$108)
    2958                            .dwattr DW$245, DW_AT_location[DW_OP_breg31 36]
    2959                            .dwpsn  "VideoInput2.c",691,2
    2960 000010a4 00029810             CALL    .S1     _SetMemoryAddr    ; |691| 
    2961 000010a8 01838162             ADDKPC  .S2     RL79,B3,4         ; |691| 
    2962                    RL79:      ; CALL OCCURS {_SetMemoryAddr}    ; |691| 
    2963                            .dwpsn  "VideoInput2.c",693,2
    2964                    
    2965 000010ac 027E802B             MVKL    .S2     0x2fd00,B4        ; |693| 
    2966 000010b0 01802028- ||         MVKL    .S1     _tsk_used_reg,A3  ; |693| 
    2967                    
    2968 000010b4 0200016B             MVKH    .S2     0x2fd00,B4        ; |693| 
    2969 000010b8 01800068- ||         MVKH    .S1     _tsk_used_reg,A3  ; |693| 
    2970                    
TMS320C6x COFF Assembler PC v5.1.0 Fri Mar 25 16:51:07 2011

Tools Copyright (c) 1996-2005 Texas Instruments Incorporated
C:\DOCUME~1\yqhe\LOCALS~1\Temp\TI2522                                PAGE   55

    2971 000010bc 020C0276             STW     .D1T2   B4,*A3            ; |693| 
    2972 000010c0 00002000             NOP             2
    2973                            .dwpsn  "VideoInput2.c",695,2
    2974 000010c4 01802028-            MVKL    .S1     _tsk_used_reg,A3  ; |695| 
    2975                    
    2976 000010c8 0FFDE813!            CALL    .S2     _memset           ; |695| 
    2977 000010cc 01800068- ||         MVKH    .S1     _tsk_used_reg,A3  ; |695| 
    2978                    
    2979 000010d0 020C0264             LDW     .D1T1   *A3,A4            ; |695| 
    2980 000010d4 01882162             ADDKPC  .S2     RL80,B3,1         ; |695| 
    2981 000010d8 0200A35A             ZERO    .L2     B4                ; |695| 
    2982 000010dc 03009C28             MVK     .S1     0x138,A6          ; |695| 
    2983                    RL80:      ; CALL OCCURS {_memset}           ; |695| 
    2984                            .dwpsn  "VideoInput2.c",698,5
    2985 000010e0 01802028-            MVKL    .S1     _tsk_used_reg,A3  ; |698| 
    2986 000010e4 01800068-            MVKH    .S1     _tsk_used_reg,A3  ; |698| 
    2987 000010e8 018C0264             LDW     .D1T1   *A3,A3            ; |698| 
    2988 000010ec 00004000             NOP             3
    2989 000010f0 0208A358             MVK     .L1     2,A4              ; |698| 
    2990 000010f4 020CC274             STW     .D1T1   A4,*+A3(24)       ; |698| 
    2991 000010f8 00002000             NOP             2
    2992                            .dwpsn  "VideoInput2.c",701,2
    2993 000010fc 01802028-            MVKL    .S1     _tsk_used_reg,A3  ; |701| 
    2994 00001100 01800068-            MVKH    .S1     _tsk_used_reg,A3  ; |701| 
    2995 00001104 018C0264             LDW     .D1T1   *A3,A3            ; |701| 
    2996 00001108 00004000             NOP             3
    2997 0000110c 02000A2A             MVK     .S2     20,B4             ; |701| 
    2998 00001110 020EE276             STW     .D1T2   B4,*+A3(92)       ; |701| 
    2999 00001114 00002000             NOP             2
    3000                            .dwpsn  "VideoInput2.c",704,2
    3001 00001118 0200202A-            MVKL    .S2     _tsk_used_reg,B4  ; |704| 
    3002 0000111c 0200006A-            MVKH    .S2     _tsk_used_reg,B4  ; |704| 
    3003 00001120 021002E6             LDW     .D2T2   *B4,B4            ; |704| 
    3004 00001124 00004000             NOP             3
    3005 00001128 01801428             MVK     .S1     40,A3             ; |704| 
    3006 0000112c 02008252             ADDK    .S2     260,B4            ; |704| 
    3007 00001130 019002D4             STH     .D2T1   A3,*B4            ; |704| 
    3008 00001134 00002000             NOP             2
    3009                            .dwpsn  "VideoInput2.c",705,2
    3010 00001138 01802028-            MVKL    .S1     _tsk_used_reg,A3  ; |705| 
    3011 0000113c 01800068-            MVKH    .S1     _tsk_used_reg,A3  ; |705| 
    3012 00001140 018C0264             LDW     .D1T1   *A3,A3            ; |705| 
    3013 00001144 00002000             NOP             2
    3014 00001148 02000E2A             MVK     .S2     28,B4             ; |705| 
    3015 0000114c 020041A8             MVK     .S1     131,A4            ; |705| 
    3016 00001150 020C8A56             STH     .D1T2   B4,*+A3[A4]       ; |705| 
    3017 00001154 00002000             NOP             2
    3018                            .dwpsn  "VideoInput2.c",706,2
    3019 00001158 0200202A-            MVKL    .S2     _tsk_used_reg,B4  ; |706| 
    3020 0000115c 0200006A-            MVKH    .S2     _tsk_used_reg,B4  ; |706| 
    3021 00001160 021002E6             LDW     .D2T2   *B4,B4            ; |706| 
    3022 00001164 00004000             NOP             3
    3023 00001168 01800BA8             MVK     .S1     23,A3             ; |706| 
    3024 0000116c 02008452             ADDK    .S2     264,B4            ; |706| 
    3025 00001170 019002D4             STH     .D2T1   A3,*B4            ; |706| 
TMS320C6x COFF Assembler PC v5.1.0 Fri Mar 25 16:51:07 2011

Tools Copyright (c) 1996-2005 Texas Instruments Incorporated
C:\DOCUME~1\yqhe\LOCALS~1\Temp\TI2522                                PAGE   56

    3026 00001174 00002000             NOP             2
    3027                            .dwpsn  "VideoInput2.c",707,2
    3028 00001178 01802028-            MVKL    .S1     _tsk_used_reg,A3  ; |707| 
    3029 0000117c 01800068-            MVKH    .S1     _tsk_used_reg,A3  ; |707| 
    3030 00001180 018C0264             LDW     .D1T1   *A3,A3            ; |707| 
    3031 00001184 00002000             NOP             2
    3032 00001188 028042A8             MVK     .S1     133,A5            ; |707| 
    3033 0000118c 0200A358             ZERO    .L1     A4                ; |707| 
    3034 00001190 020CAA54             STH     .D1T1   A4,*+A3[A5]       ; |707| 
    3035 00001194 00002000             NOP             2
    3036                            .dwpsn  "VideoInput2.c",708,2
    3037 00001198 0200202A-            MVKL    .S2     _tsk_used_reg,B4  ; |708| 
    3038 0000119c 0200006A-            MVKH    .S2     _tsk_used_reg,B4  ; |708| 
    3039 000011a0 021002E6             LDW     .D2T2   *B4,B4            ; |708| 
    3040 000011a4 00004000             NOP             3
    3041 000011a8 0294A35A             MVK     .L2     5,B5              ; |708| 
    3042 000011ac 02008652             ADDK    .S2     268,B4            ; |708| 
    3043 000011b0 029002D6             STH     .D2T2   B5,*B4            ; |708| 
    3044 000011b4 00002000             NOP             2
    3045                            .dwpsn  "VideoInput2.c",709,2
    3046 000011b8 01802028-            MVKL    .S1     _tsk_used_reg,A3  ; |709| 
    3047 000011bc 01800068-            MVKH    .S1     _tsk_used_reg,A3  ; |709| 
    3048 000011c0 018C0264             LDW     .D1T1   *A3,A3            ; |709| 
    3049 000011c4 00002000             NOP             2
    3050 000011c8 0200192A             MVK     .S2     50,B4             ; |709| 
    3051 000011cc 020043A8             MVK     .S1     135,A4            ; |709| 
    3052 000011d0 020C8A56             STH     .D1T2   B4,*+A3[A4]       ; |709| 
    3053 000011d4 00002000             NOP             2
    3054                            .dwpsn  "VideoInput2.c",710,2
    3055 000011d8 0200202A-            MVKL    .S2     _tsk_used_reg,B4  ; |710| 
    3056 000011dc 0200006A-            MVKH    .S2     _tsk_used_reg,B4  ; |710| 
    3057 000011e0 021002E6             LDW     .D2T2   *B4,B4            ; |710| 
    3058 000011e4 00004000             NOP             3
    3059 000011e8 02A8A35A             MVK     .L2     10,B5             ; |710| 
    3060 000011ec 02008852             ADDK    .S2     272,B4            ; |710| 
    3061 000011f0 029002D6             STH     .D2T2   B5,*B4            ; |710| 
    3062 000011f4 00002000             NOP             2
    3063                            .dwpsn  "VideoInput2.c",713,2
    3064 000011f8 0280452A+            MVKL    .S2     SL7+0,B5          ; |713| 
    3065 000011fc 020049AA+            MVKL    .S2     SL8+0,B4          ; |713| 
    3066 00001200 0280006A+            MVKH    .S2     SL7+0,B5          ; |713| 
    3067 00001204 03004FAA+            MVKL    .S2     SL9+0,B6          ; |713| 
    3068                    
    3069 00001208 02BC62F7             STW     .D2T2   B5,*+SP(12)       ; |713| 
    3070 0000120c 0200006A+ ||         MVKH    .S2     SL8+0,B4          ; |713| 
    3071                    
    3072 00001210 023C42F7             STW     .D2T2   B4,*+SP(8)        ; |713| 
    3073 00001214 01802029- ||         MVKL    .S1     _tsk_used_reg,A3  ; |713| 
    3074 00001218 0300006A+ ||         MVKH    .S2     SL9+0,B6          ; |713| 
    3075                    
    3076 0000121c 033C22F7             STW     .D2T2   B6,*+SP(4)        ; |713| 
    3077 00001220 01800068- ||         MVKH    .S1     _tsk_used_reg,A3  ; |713| 
    3078                    
    3079 00001224 0FFDBC11!            CALL    .S1     _sprintf          ; |713| 
    3080 00001228 018C0264  ||         LDW     .D1T1   *A3,A3            ; |713| 
TMS320C6x COFF Assembler PC v5.1.0 Fri Mar 25 16:51:07 2011

Tools Copyright (c) 1996-2005 Texas Instruments Incorporated
C:\DOCUME~1\yqhe\LOCALS~1\Temp\TI2522                                PAGE   57

    3081                    
    3082 0000122c 02008A2A             MVK     .S2     276,B4            ; |713| 
    3083 00001230 01864162             ADDKPC  .S2     RL81,B3,2         ; |713| 
    3084 00001234 02107078             ADD     .L1X    B4,A3,A4          ; |713| 
    3085                    RL81:      ; CALL OCCURS {_sprintf}          ; |713| 
    3086                            .dwpsn  "VideoInput2.c",718,2
    3087 00001238 0FFDBC10!            CALL    .S1     _memset           ; |718| 
    3088 0000123c 0280222A-            MVKL    .S2     _dsp_used_reg,B5  ; |718| 
    3089 00001240 0280006A-            MVKH    .S2     _dsp_used_reg,B5  ; |718| 
    3090 00001244 01850162             ADDKPC  .S2     RL82,B3,0         ; |718| 
    3091 00001248 02141FD8             MV      .L1X    B5,A4             ; |718| 
    3092                    
    3093 0000124c 03005A29             MVK     .S1     0xb4,A6           ; |718| 
    3094 00001250 0200A35A  ||         ZERO    .L2     B4                ; |718| 
    3095                    
    3096                    RL82:      ; CALL OCCURS {_memset}           ; |718| 
    3097                            .dwpsn  "VideoInput2.c",720,2
    3098                    
    3099 00001254 01807429-            MVKL    .S1     _dsp_used_reg+164,A3 ; |720| 
    3100 00001258 027FFFAA  ||         MVKL    .S2     0xffff,B4         ; |720| 
    3101                    
    3102 0000125c 01800069-            MVKH    .S1     _dsp_used_reg+164,A3 ; |720| 
    3103 00001260 0200006A  ||         MVKH    .S2     0xffff,B4         ; |720| 
    3104                    
    3105 00001264 020C0276             STW     .D1T2   B4,*A3            ; |720| 
    3106 00001268 00002000             NOP             2
    3107                            .dwpsn  "VideoInput2.c",721,2
    3108 0000126c 0200782A-            MVKL    .S2     _dsp_used_reg+172,B4 ; |721| 
    3109                    
    3110 00001270 0200006B-            MVKH    .S2     _dsp_used_reg+172,B4 ; |721| 
    3111 00001274 02FCA35A  ||         MVK     .L2     -1,B5             ; |721| 
    3112                    
    3113 00001278 029002F6             STW     .D2T2   B5,*B4            ; |721| 
    3114 0000127c 00002000             NOP             2
    3115                            .dwpsn  "VideoInput2.c",726,2
    3116 00001280 0000A010             CALL    .S1     _ClearDistanceValue ; |726| 
    3117 00001284 01828162             ADDKPC  .S2     RL83,B3,4         ; |726| 
    3118                    RL83:      ; CALL OCCURS {_ClearDistanceValue}  ; |726| 
    3119                            .dwpsn  "VideoInput2.c",728,2
    3120 00001288 0200562A-            MVKL    .S2     _dsp_used_reg+104,B4 ; |728| 
    3121                    
    3122 0000128c 0200006B-            MVKH    .S2     _dsp_used_reg+104,B4 ; |728| 
    3123 00001290 0180A358  ||         ZERO    .L1     A3                ; |728| 
    3124                    
    3125 00001294 019002F4             STW     .D2T1   A3,*B4            ; |728| 
    3126 00001298 00002000             NOP             2
    3127                            .dwpsn  "VideoInput2.c",729,2
    3128 0000129c 01800028!            MVKL    .S1     _KNL_curtime,A3   ; |729| 
    3129 000012a0 01800068!            MVKH    .S1     _KNL_curtime,A3   ; |729| 
    3130 000012a4 018C0264             LDW     .D1T1   *A3,A3            ; |729| 
    3131 000012a8 00002000             NOP             2
    3132 000012ac 0200542A-            MVKL    .S2     _dsp_used_reg+100,B4 ; |729| 
    3133 000012b0 0200006A-            MVKH    .S2     _dsp_used_reg+100,B4 ; |729| 
    3134 000012b4 019002F4             STW     .D2T1   A3,*B4            ; |729| 
    3135 000012b8 00002000             NOP             2
TMS320C6x COFF Assembler PC v5.1.0 Fri Mar 25 16:51:07 2011

Tools Copyright (c) 1996-2005 Texas Instruments Incorporated
C:\DOCUME~1\yqhe\LOCALS~1\Temp\TI2522                                PAGE   58

    3136                            .dwpsn  "VideoInput2.c",731,2
    3137 000012bc 01802028-            MVKL    .S1     _tsk_used_reg,A3  ; |731| 
    3138 000012c0 01800068-            MVKH    .S1     _tsk_used_reg,A3  ; |731| 
    3139 000012c4 018C0264             LDW     .D1T1   *A3,A3            ; |731| 
    3140 000012c8 00004000             NOP             3
    3141 000012cc 0200A358             ZERO    .L1     A4                ; |731| 
    3142 000012d0 020C4254             STH     .D1T1   A4,*+A3(4)        ; |731| 
    3143 000012d4 00002000             NOP             2
    3144                            .dwpsn  "VideoInput2.c",732,2
    3145 000012d8 01802028-            MVKL    .S1     _tsk_used_reg,A3  ; |732| 
    3146 000012dc 01800068-            MVKH    .S1     _tsk_used_reg,A3  ; |732| 
    3147 000012e0 020C0264             LDW     .D1T1   *A3,A4            ; |732| 
    3148 000012e4 00002000             NOP             2
    3149 000012e8 01FFFFA8             MVKL    .S1     0xffff,A3         ; |732| 
    3150 000012ec 01800068             MVKH    .S1     0xffff,A3         ; |732| 
    3151 000012f0 01906254             STH     .D1T1   A3,*+A4(6)        ; |732| 
    3152 000012f4 00002000             NOP             2
    3153                            .dwpsn  "VideoInput2.c",733,2
    3154 000012f8 01802028-            MVKL    .S1     _tsk_used_reg,A3  ; |733| 
    3155 000012fc 01800068-            MVKH    .S1     _tsk_used_reg,A3  ; |733| 
    3156 00001300 018C0264             LDW     .D1T1   *A3,A3            ; |733| 
    3157 00001304 00004000             NOP             3
    3158 00001308 0200A358             ZERO    .L1     A4                ; |733| 
    3159 0000130c 020C0254             STH     .D1T1   A4,*A3            ; |733| 
    3160 00001310 00002000             NOP             2
    3161                            .dwpsn  "VideoInput2.c",734,2
    3162 00001314 01802028-            MVKL    .S1     _tsk_used_reg,A3  ; |734| 
    3163 00001318 01800068-            MVKH    .S1     _tsk_used_reg,A3  ; |734| 
    3164 0000131c 020C0264             LDW     .D1T1   *A3,A4            ; |734| 
    3165 00001320 00002000             NOP             2
    3166 00001324 01FFFFA8             MVKL    .S1     0xffff,A3         ; |734| 
    3167 00001328 01800068             MVKH    .S1     0xffff,A3         ; |734| 
    3168 0000132c 01902254             STH     .D1T1   A3,*+A4(2)        ; |734| 
    3169 00001330 00002000             NOP             2
    3170                            .dwpsn  "VideoInput2.c",737,2
    3171 00001334 02009A2A-            MVKL    .S2     _IMG_ICON_START_ADDR,B4 ; |737| 
    3172 00001338 0200006A-            MVKH    .S2     _IMG_ICON_START_ADDR,B4 ; |737| 
    3173 0000133c 021002E6             LDW     .D2T2   *B4,B4            ; |737| 
    3174 00001340 00006000             NOP             4
    3175 00001344 023CA2F6             STW     .D2T2   B4,*+SP(20)       ; |737| 
    3176 00001348 00002000             NOP             2
    3177                            .dwpsn  "VideoInput2.c",738,9
    3178 0000134c 0010EF5A             AND     .L2     7,B4,B0           ; |738| 
    3179 00001350 300AA120     [!B0]   BNOP    .S1     L37,5             ; |738| 
    3180                               ; BRANCHCC OCCURS {L37}           ; |738| 
    3181                    ;*----------------------------------------------------------------------------*
    3182                    ;*   SOFTWARE PIPELINE INFORMATION
    3183                    ;*      Disqualified loop: Software pipelining disabled
    3184                    ;*----------------------------------------------------------------------------*
    3185                    L36:    
    3186                    DW$L$_arm_dsp_data_init$2$B:
    3187                            .dwpsn  "VideoInput2.c",738,29
    3188 00001354 0210205A             ADD     .L2     1,B4,B4           ; |738| 
    3189 00001358 023CA2F6             STW     .D2T2   B4,*+SP(20)       ; |738| 
    3190 0000135c 00002000             NOP             2
TMS320C6x COFF Assembler PC v5.1.0 Fri Mar 25 16:51:07 2011

Tools Copyright (c) 1996-2005 Texas Instruments Incorporated
C:\DOCUME~1\yqhe\LOCALS~1\Temp\TI2522                                PAGE   59

    3191                            .dwpsn  "VideoInput2.c",738,9
    3192 00001360 0010EF5A             AND     .L2     7,B4,B0           ; |738| 
    3193 00001364 2FFDA120     [ B0]   BNOP    .S1     L36,5             ; |738| 
    3194                               ; BRANCHCC OCCURS {L36}           ; |738| 
    3195                    DW$L$_arm_dsp_data_init$2$E:
    3196                    ;** --------------------------------------------------------------------------*
    3197                    L37:    
    3198                            .dwpsn  "VideoInput2.c",740,2
    3199 00001368 0180A358             ZERO    .L1     A3                ; |740| 
    3200 0000136c 01C20068             MVKH    .S1     0x84000000,A3     ; |740| 
    3201 00001370 021072FA             SUB     .L2X    A3,B4,B4          ; |740| 
    3202 00001374 023CC2F6             STW     .D2T2   B4,*+SP(24)       ; |740| 
    3203 00001378 00002000             NOP             2
    3204                            .dwpsn  "VideoInput2.c",742,2
    3205 0000137c 01802028-            MVKL    .S1     _tsk_used_reg,A3  ; |742| 
    3206 00001380 01800068-            MVKH    .S1     _tsk_used_reg,A3  ; |742| 
    3207 00001384 018C0264             LDW     .D1T1   *A3,A3            ; |742| 
    3208 00001388 00002000             NOP             2
    3209 0000138c 02101FD8             MV      .L1X    B4,A4             ; |742| 
    3210 00001390 028018A8             MVK     .S1     49,A5             ; |742| 
    3211 00001394 020CAA74             STW     .D1T1   A4,*+A3[A5]       ; |742| 
    3212 00001398 00002000             NOP             2
    3213                            .dwpsn  "VideoInput2.c",743,2
    3214 0000139c 01802028-            MVKL    .S1     _tsk_used_reg,A3  ; |743| 
    3215 000013a0 01800068-            MVKH    .S1     _tsk_used_reg,A3  ; |743| 
    3216                    
    3217 000013a4 018C0265             LDW     .D1T1   *A3,A3            ; |743| 
    3218 000013a8 023CA2E6  ||         LDW     .D2T2   *+SP(20),B4       ; |743| 
    3219                    
    3220 000013ac 00004000             NOP             3
    3221 000013b0 02001928             MVK     .S1     50,A4             ; |743| 
    3222 000013b4 020C8A76             STW     .D1T2   B4,*+A3[A4]       ; |743| 
    3223 000013b8 00002000             NOP             2
    3224                            .dwpsn  "VideoInput2.c",745,2
    3225 000013bc 023CA2E6             LDW     .D2T2   *+SP(20),B4       ; |745| 
    3226 000013c0 00006000             NOP             4
    3227 000013c4 023CE2F6             STW     .D2T2   B4,*+SP(28)       ; |745| 
    3228 000013c8 00002000             NOP             2
    3229                            .dwpsn  "VideoInput2.c",746,2
    3230 000013cc 01A00028             MVKL    .S1     0x14000,A3        ; |746| 
    3231 000013d0 018000E8             MVKH    .S1     0x14000,A3        ; |746| 
    3232 000013d4 01BD02F4             STW     .D2T1   A3,*+SP(32)       ; |746| 
    3233 000013d8 00002000             NOP             2
    3234                            .dwpsn  "VideoInput2.c",748,2
    3235 000013dc 0FFD8810!            CALL    .S1     _memset           ; |748| 
    3236 000013e0 023CE2E4             LDW     .D2T1   *+SP(28),A4       ; |748| 
    3237 000013e4 01842162             ADDKPC  .S2     RL84,B3,1         ; |748| 
    3238 000013e8 0200A35A             ZERO    .L2     B4                ; |748| 
    3239 000013ec 030C0FD8             MV      .L1     A3,A6
    3240                    RL84:      ; CALL OCCURS {_memset}           ; |748| 
    3241                            .dwpsn  "VideoInput2.c",751,2
    3242                    
    3243 000013f0 01800E29-            MVKL    .S1     _buffCopyPoolHandle,A3 ; |751| 
    3244 000013f4 0200002A! ||         MVKL    .S2     _BUF_copyPool,B4  ; |751| 
    3245                    
TMS320C6x COFF Assembler PC v5.1.0 Fri Mar 25 16:51:07 2011

Tools Copyright (c) 1996-2005 Texas Instruments Incorporated
C:\DOCUME~1\yqhe\LOCALS~1\Temp\TI2522                                PAGE   60

    3246 000013f8 01800069-            MVKH    .S1     _buffCopyPoolHandle,A3 ; |751| 
    3247 000013fc 0200006A! ||         MVKH    .S2     _BUF_copyPool,B4  ; |751| 
    3248                    
    3249 00001400 020C0276             STW     .D1T2   B4,*A3            ; |751| 
    3250 00001404 00002000             NOP             2
    3251                            .dwpsn  "VideoInput2.c",758,2
    3252 00001408 01800E28-            MVKL    .S1     _buffCopyPoolHandle,A3 ; |758| 
    3253                    
    3254 0000140c 0FFD8013!            CALL    .S2     _BUF_alloc        ; |758| 
    3255 00001410 01800068- ||         MVKH    .S1     _buffCopyPoolHandle,A3 ; |758| 
    3256                    
    3257 00001414 020C0264             LDW     .D1T1   *A3,A4            ; |758| 
    3258 00001418 01876162             ADDKPC  .S2     RL85,B3,3         ; |758| 
    3259 0000141c           RL85:      ; CALL OCCURS {_BUF_alloc}        ; |758| 
    3260 0000141c 0200102A-            MVKL    .S2     _copyimg_ptr_l,B4 ; |758| 
    3261                    
    3262 00001420 02901FDB             MV      .L2X    A4,B5             ; |758| 
    3263 00001424 0200006A- ||         MVKH    .S2     _copyimg_ptr_l,B4 ; |758| 
    3264                    
    3265 00001428 029002F6             STW     .D2T2   B5,*B4            ; |758| 
    3266 0000142c 00002000             NOP             2
    3267                            .dwpsn  "VideoInput2.c",759,2
    3268 00001430 02000E2A-            MVKL    .S2     _buffCopyPoolHandle,B4 ; |759| 
    3269                    
    3270 00001434 0FFD7C11!            CALL    .S1     _BUF_alloc        ; |759| 
    3271 00001438 0200006A- ||         MVKH    .S2     _buffCopyPoolHandle,B4 ; |759| 
    3272                    
    3273 0000143c 021002E4             LDW     .D2T1   *B4,A4            ; |759| 
    3274 00001440 01816162             ADDKPC  .S2     RL86,B3,3         ; |759| 
    3275 00001444           RL86:      ; CALL OCCURS {_BUF_alloc}        ; |759| 
    3276 00001444 01801228-            MVKL    .S1     _copyimg_ptr_r,A3 ; |759| 
    3277                    
    3278 00001448 01800069-            MVKH    .S1     _copyimg_ptr_r,A3 ; |759| 
    3279 0000144c 02101FDA  ||         MV      .L2X    A4,B4             ; |759| 
    3280                    
    3281 00001450 020C0276             STW     .D1T2   B4,*A3            ; |759| 
    3282 00001454 00002000             NOP             2
    3283                            .dwpsn  "VideoInput2.c",761,2
    3284 00001458 01801028-            MVKL    .S1     _copyimg_ptr_l,A3 ; |761| 
    3285 0000145c 01800068-            MVKH    .S1     _copyimg_ptr_l,A3 ; |761| 
    3286 00001460 018C0264             LDW     .D1T1   *A3,A3            ; |761| 
    3287 00001464 00006000             NOP             4
    3288 00001468 01BD22F4             STW     .D2T1   A3,*+SP(36)       ; |761| 
    3289 0000146c 00002000             NOP             2
    3290                            .dwpsn  "VideoInput2.c",762,2
    3291                    
    3292 00001470 01DA1C29             MVKL    .S1     0x4b438,A3        ; |762| 
    3293 00001474 020C0FD8  ||         MV      .L1     A3,A4
    3294                    
    3295 00001478 01800268             MVKH    .S1     0x4b438,A3        ; |762| 
    3296 0000147c 01900274             STW     .D1T1   A3,*A4            ; |762| 
    3297 00001480 00002000             NOP             2
    3298                            .dwpsn  "VideoInput2.c",763,2
    3299 00001484 0200102A-            MVKL    .S2     _copyimg_ptr_l,B4 ; |763| 
    3300 00001488 0200006A-            MVKH    .S2     _copyimg_ptr_l,B4 ; |763| 
TMS320C6x COFF Assembler PC v5.1.0 Fri Mar 25 16:51:07 2011

Tools Copyright (c) 1996-2005 Texas Instruments Incorporated
C:\DOCUME~1\yqhe\LOCALS~1\Temp\TI2522                                PAGE   61

    3301 0000148c 029002E6             LDW     .D2T2   *B4,B5            ; |763| 
    3302 00001490 0FBD22E6             LDW     .D2T2   *+SP(36),B31      ; |763| 
    3303 00001494 00004000             NOP             3
    3304 00001498 0294805A             ADD     .L2     4,B5,B5           ; |763| 
    3305 0000149c 02FC22F6             STW     .D2T2   B5,*+B31(4)       ; |763| 
    3306 000014a0 00002000             NOP             2
    3307                            .dwpsn  "VideoInput2.c",764,2
    3308 000014a4 01802028-            MVKL    .S1     _tsk_used_reg,A3  ; |764| 
    3309 000014a8 01800068-            MVKH    .S1     _tsk_used_reg,A3  ; |764| 
    3310                    
    3311 000014ac 018C0265             LDW     .D1T1   *A3,A3            ; |764| 
    3312 000014b0 023D22E6  ||         LDW     .D2T2   *+SP(36),B4       ; |764| 
    3313                    
    3314 000014b4 00004000             NOP             3
    3315 000014b8 02001AA8             MVK     .S1     53,A4             ; |764| 
    3316 000014bc 020C8A76             STW     .D1T2   B4,*+A3[A4]       ; |764| 
    3317 000014c0 00002000             NOP             2
    3318                            .dwpsn  "VideoInput2.c",766,2
    3319 000014c4 01801228-            MVKL    .S1     _copyimg_ptr_r,A3 ; |766| 
    3320 000014c8 01800068-            MVKH    .S1     _copyimg_ptr_r,A3 ; |766| 
    3321 000014cc 018C0264             LDW     .D1T1   *A3,A3            ; |766| 
    3322 000014d0 00006000             NOP             4
    3323 000014d4 01BD22F4             STW     .D2T1   A3,*+SP(36)       ; |766| 
    3324 000014d8 00002000             NOP             2
    3325                            .dwpsn  "VideoInput2.c",767,2
    3326                    
    3327 000014dc 01DA1C29             MVKL    .S1     0x4b438,A3        ; |767| 
    3328 000014e0 020C0FD8  ||         MV      .L1     A3,A4
    3329                    
    3330 000014e4 01800268             MVKH    .S1     0x4b438,A3        ; |767| 
    3331 000014e8 01900274             STW     .D1T1   A3,*A4            ; |767| 
    3332 000014ec 00002000             NOP             2
    3333                            .dwpsn  "VideoInput2.c",768,2
    3334 000014f0 0200122A-            MVKL    .S2     _copyimg_ptr_r,B4 ; |768| 
    3335 000014f4 0200006A-            MVKH    .S2     _copyimg_ptr_r,B4 ; |768| 
    3336 000014f8 029002E6             LDW     .D2T2   *B4,B5            ; |768| 
    3337 000014fc 0F3D22E6             LDW     .D2T2   *+SP(36),B30      ; |768| 
    3338 00001500 00004000             NOP             3
    3339 00001504 0294805A             ADD     .L2     4,B5,B5           ; |768| 
    3340 00001508 02F822F6             STW     .D2T2   B5,*+B30(4)       ; |768| 
    3341 0000150c 00002000             NOP             2
    3342                            .dwpsn  "VideoInput2.c",769,2
    3343 00001510 0200202A-            MVKL    .S2     _tsk_used_reg,B4  ; |769| 
    3344                    
    3345 00001514 02BD22E7             LDW     .D2T2   *+SP(36),B5       ; |769| 
    3346 00001518 0200006A- ||         MVKH    .S2     _tsk_used_reg,B4  ; |769| 
    3347                    
    3348 0000151c 021002E6             LDW     .D2T2   *B4,B4            ; |769| 
    3349 00001520 00004000             NOP             3
    3350 00001524 03001B2A             MVK     .S2     54,B6             ; |769| 
    3351 00001528 0290CAF6             STW     .D2T2   B5,*+B4[B6]       ; |769| 
    3352 0000152c 00002000             NOP             2
    3353                            .dwpsn  "VideoInput2.c",772,2
    3354 00001530 0200102A-            MVKL    .S2     _copyimg_ptr_l,B4 ; |772| 
    3355 00001534 0200006A-            MVKH    .S2     _copyimg_ptr_l,B4 ; |772| 
TMS320C6x COFF Assembler PC v5.1.0 Fri Mar 25 16:51:07 2011

Tools Copyright (c) 1996-2005 Texas Instruments Incorporated
C:\DOCUME~1\yqhe\LOCALS~1\Temp\TI2522                                PAGE   62

    3356 00001538 021002E6             LDW     .D2T2   *B4,B4            ; |772| 
    3357 0000153c 0FFD5C10!            CALL    .S1     _FillBmpHeader    ; |772| 
    3358 00001540 01844162             ADDKPC  .S2     RL87,B3,2         ; |772| 
    3359 00001544 0300F028             MVK     .S1     0x1e0,A6          ; |772| 
    3360                    
    3361 00001548 0201402B             MVK     .S2     0x280,B4          ; |772| 
    3362 0000154c 02109058  ||         ADD     .L1X    4,B4,A4           ; |772| 
    3363                    
    3364                    RL87:      ; CALL OCCURS {_FillBmpHeader}    ; |772| 
    3365                            .dwpsn  "VideoInput2.c",773,2
    3366 00001550 0200122A-            MVKL    .S2     _copyimg_ptr_r,B4 ; |773| 
    3367 00001554 0200006A-            MVKH    .S2     _copyimg_ptr_r,B4 ; |773| 
    3368                    
    3369 00001558 0FFD5811!            CALL    .S1     _FillBmpHeader    ; |773| 
    3370 0000155c 029002E6  ||         LDW     .D2T2   *B4,B5            ; |773| 
    3371                    
    3372 00001560 0201402A             MVK     .S2     0x280,B4          ; |773| 
    3373 00001564 01842162             ADDKPC  .S2     RL88,B3,1         ; |773| 
    3374 00001568 0300F028             MVK     .S1     0x1e0,A6          ; |773| 
    3375 0000156c 02149058             ADD     .L1X    4,B5,A4           ; |773| 
    3376                    RL88:      ; CALL OCCURS {_FillBmpHeader}    ; |773| 
    3377                            .dwpsn  "VideoInput2.c",775,2
    3378 00001570 02001428-            MVKL    .S1     _buffFramePoolHandle,A4 ; |775| 
    3379 00001574 01800028!            MVKL    .S1     _BUF_capFrame,A3  ; |775| 
    3380 00001578 02000068-            MVKH    .S1     _buffFramePoolHandle,A4 ; |775| 
    3381 0000157c 01800068!            MVKH    .S1     _BUF_capFrame,A3  ; |775| 
    3382 00001580 01900274             STW     .D1T1   A3,*A4            ; |775| 
    3383 00001584 00002000             NOP             2
    3384                            .dwpsn  "VideoInput2.c",776,2
    3385 00001588 0200142A-            MVKL    .S2     _buffFramePoolHandle,B4 ; |776| 
    3386                    
    3387 0000158c 0FFD5011!            CALL    .S1     _BUF_alloc        ; |776| 
    3388 00001590 0200006A- ||         MVKH    .S2     _buffFramePoolHandle,B4 ; |776| 
    3389                    
    3390 00001594 021002E4             LDW     .D2T1   *B4,A4            ; |776| 
    3391 00001598 01876162             ADDKPC  .S2     RL89,B3,3         ; |776| 
    3392 0000159c           RL89:      ; CALL OCCURS {_BUF_alloc}        ; |776| 
    3393 0000159c 01801628-            MVKL    .S1     _capframe_ptr_l,A3 ; |776| 
    3394                    
    3395 000015a0 02101FDB             MV      .L2X    A4,B4             ; |776| 
    3396 000015a4 01800068- ||         MVKH    .S1     _capframe_ptr_l,A3 ; |776| 
    3397                    
    3398 000015a8 020C0276             STW     .D1T2   B4,*A3            ; |776| 
    3399 000015ac 00002000             NOP             2
    3400                            .dwpsn  "VideoInput2.c",777,2
    3401 000015b0 01801428-            MVKL    .S1     _buffFramePoolHandle,A3 ; |777| 
    3402                    
    3403 000015b4 0FFD4C13!            CALL    .S2     _BUF_alloc        ; |777| 
    3404 000015b8 01800068- ||         MVKH    .S1     _buffFramePoolHandle,A3 ; |777| 
    3405                    
    3406 000015bc 020C0264             LDW     .D1T1   *A3,A4            ; |777| 
    3407 000015c0 01816162             ADDKPC  .S2     RL90,B3,3         ; |777| 
    3408 000015c4           RL90:      ; CALL OCCURS {_BUF_alloc}        ; |777| 
    3409 000015c4 0200182A-            MVKL    .S2     _capframe_ptr_r,B4 ; |777| 
    3410 000015c8 0200006A-            MVKH    .S2     _capframe_ptr_r,B4 ; |777| 
TMS320C6x COFF Assembler PC v5.1.0 Fri Mar 25 16:51:07 2011

Tools Copyright (c) 1996-2005 Texas Instruments Incorporated
C:\DOCUME~1\yqhe\LOCALS~1\Temp\TI2522                                PAGE   63

    3411 000015cc 021002F4             STW     .D2T1   A4,*B4            ; |777| 
    3412 000015d0 00002000             NOP             2
    3413                            .dwpsn  "VideoInput2.c",782,2
    3414 000015d4 0200102A-            MVKL    .S2     _copyimg_ptr_l,B4 ; |782| 
    3415 000015d8 0200006A-            MVKH    .S2     _copyimg_ptr_l,B4 ; |782| 
    3416 000015dc 0280202A-            MVKL    .S2     _tsk_used_reg,B5  ; |782| 
    3417                    
    3418 000015e0 021002E7             LDW     .D2T2   *B4,B4            ; |782| 
    3419 000015e4 0280006A- ||         MVKH    .S2     _tsk_used_reg,B5  ; |782| 
    3420                    
    3421 000015e8 029402E6             LDW     .D2T2   *B5,B5            ; |782| 
    3422 000015ec 00002000             NOP             2
    3423 000015f0 03001DAA             MVK     .S2     59,B6             ; |782| 
    3424 000015f4 02021C52             ADDK    .S2     1080,B4           ; |782| 
    3425 000015f8 0214CAF6             STW     .D2T2   B4,*+B5[B6]       ; |782| 
    3426 000015fc 00002000             NOP             2
    3427                            .dwpsn  "VideoInput2.c",783,2
    3428 00001600 0200202A-            MVKL    .S2     _tsk_used_reg,B4  ; |783| 
    3429 00001604 0200006A-            MVKH    .S2     _tsk_used_reg,B4  ; |783| 
    3430 00001608 021002E6             LDW     .D2T2   *B4,B4            ; |783| 
    3431 0000160c 00000000             NOP             1
    3432 00001610 01D80428             MVKL    .S1     0x4b008,A3        ; |783| 
    3433 00001614 02801D2A             MVK     .S2     58,B5             ; |783| 
    3434 00001618 01800268             MVKH    .S1     0x4b008,A3        ; |783| 
    3435 0000161c 0190AAF4             STW     .D2T1   A3,*+B4[B5]       ; |783| 
    3436 00001620 00002000             NOP             2
    3437                            .dwpsn  "VideoInput2.c",785,2
    3438 00001624 01802028-            MVKL    .S1     _tsk_used_reg,A3  ; |785| 
    3439 00001628 01800068-            MVKH    .S1     _tsk_used_reg,A3  ; |785| 
    3440                    
    3441 0000162c 018C0265             LDW     .D1T1   *A3,A3            ; |785| 
    3442 00001630 02002028  ||         MVK     .S1     64,A4             ; |785| 
    3443                    
    3444                    ;** --------------------------------------------------------------------------*
    3445 00001634 02801228-            MVKL    .S1     _copyimg_ptr_r,A5 ; |785| 
    3446 00001638 02800068-            MVKH    .S1     _copyimg_ptr_r,A5 ; |785| 
    3447 0000163c 02940264             LDW     .D1T1   *A5,A5            ; |785| 
    3448 00001640 00006000             NOP             4
    3449 00001644 02821C50             ADDK    .S1     1080,A5           ; |785| 
    3450 00001648 028C8A74             STW     .D1T1   A5,*+A3[A4]       ; |785| 
    3451 0000164c 00002000             NOP             2
    3452                            .dwpsn  "VideoInput2.c",786,2
    3453 00001650 01802028-            MVKL    .S1     _tsk_used_reg,A3  ; |786| 
    3454 00001654 01800068-            MVKH    .S1     _tsk_used_reg,A3  ; |786| 
    3455 00001658 020C0264             LDW     .D1T1   *A3,A4            ; |786| 
    3456 0000165c 00000000             NOP             1
    3457 00001660 0258042A             MVKL    .S2     0x4b008,B4        ; |786| 
    3458 00001664 01801FA8             MVK     .S1     63,A3             ; |786| 
    3459 00001668 0200026A             MVKH    .S2     0x4b008,B4        ; |786| 
    3460 0000166c 02106A76             STW     .D1T2   B4,*+A4[A3]       ; |786| 
    3461 00001670 00002000             NOP             2
    3462                            .dwpsn  "VideoInput2.c",789,2
    3463 00001674 0200202A-            MVKL    .S2     _tsk_used_reg,B4  ; |789| 
    3464 00001678 0200006A-            MVKH    .S2     _tsk_used_reg,B4  ; |789| 
    3465 0000167c 029002E6             LDW     .D2T2   *B4,B5            ; |789| 
TMS320C6x COFF Assembler PC v5.1.0 Fri Mar 25 16:51:07 2011

Tools Copyright (c) 1996-2005 Texas Instruments Incorporated
C:\DOCUME~1\yqhe\LOCALS~1\Temp\TI2522                                PAGE   64

    3466 00001680 00002000             NOP             2
    3467 00001684 020026AA             MVK     .S2     77,B4             ; |789| 
    3468 00001688 0300A35A             ZERO    .L2     B6                ; |789| 
    3469 0000168c 03148AF6             STW     .D2T2   B6,*+B5[B4]       ; |789| 
    3470 00001690 00002000             NOP             2
    3471                            .dwpsn  "VideoInput2.c",791,2
    3472 00001694 0FFD3010!            CALL    .S1     _dsp_newalg_data_init ; |791| 
    3473 00001698 01878162             ADDKPC  .S2     RL91,B3,4         ; |791| 
    3474                    RL91:      ; CALL OCCURS {_dsp_newalg_data_init}  ; |791| 
    3475                            .dwpsn  "VideoInput2.c",793,1
    3476 0000169c 01BD52E6             LDW     .D2T2   *++SP(40),B3      ; |793| 
    3477 000016a0 00006000             NOP             4
    3478                            .dwcfa  0xc0, 19
    3479                            .dwcfa  0x0e, 0
    3480 000016a4 008CA362             RETNOP  .S2     B3,5              ; |793| 
    3481                               ; BRANCH OCCURS {B3}              ; |793| 
    3482                    
    3483                    DW$246  .dwtag  DW_TAG_loop
    3484                            .dwattr DW$246, DW_AT_name("C:\DOCUME~1\yqhe\LOCALS~1\Temp\TI2522:L36:1:1301043066")
    3485                            .dwattr DW$246, DW_AT_begin_file("VideoInput2.c")
    3486                            .dwattr DW$246, DW_AT_begin_line(0x2e2)
    3487                            .dwattr DW$246, DW_AT_end_line(0x2e2)
    3488                    DW$247  .dwtag  DW_TAG_loop_range
    3489                            .dwattr DW$247, DW_AT_low_pc(DW$L$_arm_dsp_data_init$2$B)
    3490                            .dwattr DW$247, DW_AT_high_pc(DW$L$_arm_dsp_data_init$2$E)
    3491                            .dwendtag DW$246
    3492                    
    3493                            .dwattr DW$240, DW_AT_end_file("VideoInput2.c")
    3494                            .dwattr DW$240, DW_AT_end_line(0x319)
    3495                            .dwattr DW$240, DW_AT_end_column(0x01)
    3496                            .dwendentry
    3497                            .dwendtag DW$240
    3498                    
    3499 000016a8                   .sect   ".text"
    3500                            .global _ClearImageMsg
    3501                    
    3502                    DW$248  .dwtag  DW_TAG_subprogram, DW_AT_name("ClearImageMsg"), DW_AT_symbol_name("_ClearImageMsg")
    3503                            .dwattr DW$248, DW_AT_low_pc(_ClearImageMsg)
    3504                            .dwattr DW$248, DW_AT_high_pc(0x00)
    3505                            .dwattr DW$248, DW_AT_begin_file("VideoInput2.c")
    3506                            .dwattr DW$248, DW_AT_begin_line(0x31b)
    3507                            .dwattr DW$248, DW_AT_begin_column(0x06)
    3508                            .dwpsn  "VideoInput2.c",796,1
    3509                    
    3510                            .dwfde DW$CIE
    3511                    
    3512                    ;******************************************************************************
    3513                    ;* FUNCTION NAME: _ClearImageMsg                                              *
    3514                    ;*                                                                            *
    3515                    ;*   Regs Modified     : A3,A4,B4,B5,SP                                       *
    3516                    ;*   Regs Used         : A3,A4,B3,B4,B5,SP                                    *
    3517                    ;*   Local Frame Size  : 0 Args + 4 Auto + 0 Save = 4 byte                    *
    3518                    ;******************************************************************************
    3519                    _ClearImageMsg:
    3520                    ;** --------------------------------------------------------------------------*
TMS320C6x COFF Assembler PC v5.1.0 Fri Mar 25 16:51:07 2011

Tools Copyright (c) 1996-2005 Texas Instruments Incorporated
C:\DOCUME~1\yqhe\LOCALS~1\Temp\TI2522                                PAGE   65

    3521                            .dwcfa  0x0e, 0
    3522                            .dwcfa  0x09, 126, 19
    3523 000016a8 07BF005A             SUB     .L2     SP,8,SP           ; |796| 
    3524                            .dwcfa  0x0e, 8
    3525                    DW$249  .dwtag  DW_TAG_formal_parameter, DW_AT_name("msg"), DW_AT_symbol_name("_msg")
    3526                            .dwattr DW$249, DW_AT_type(*DW$T$74)
    3527                            .dwattr DW$249, DW_AT_location[DW_OP_reg4]
    3528                    DW$250  .dwtag  DW_TAG_variable, DW_AT_name("msg"), DW_AT_symbol_name("_msg")
    3529                            .dwattr DW$250, DW_AT_type(*DW$T$74)
    3530                            .dwattr DW$250, DW_AT_location[DW_OP_breg31 4]
    3531 000016ac 023C22F4             STW     .D2T1   A4,*+SP(4)        ; |796| 
    3532 000016b0 00002000             NOP             2
    3533                            .dwpsn  "VideoInput2.c",797,2
    3534                    
    3535 000016b4 0200A359             ZERO    .L1     A4                ; |797| 
    3536 000016b8 019006A0  ||         MV      .S1     A4,A3
    3537                    
    3538 000016bc 020C4274             STW     .D1T1   A4,*+A3(8)        ; |797| 
    3539 000016c0 00002000             NOP             2
    3540                            .dwpsn  "VideoInput2.c",798,2
    3541 000016c4 01BC22E4             LDW     .D2T1   *+SP(4),A3        ; |798| 
    3542 000016c8 00004000             NOP             3
    3543 000016cc 0200A35A             ZERO    .L2     B4                ; |798| 
    3544 000016d0 020C6276             STW     .D1T2   B4,*+A3(12)       ; |798| 
    3545 000016d4 00002000             NOP             2
    3546                            .dwpsn  "VideoInput2.c",800,2
    3547 000016d8 01BC22E4             LDW     .D2T1   *+SP(4),A3        ; |800| 
    3548 000016dc 00006000             NOP             4
    3549 000016e0 020CC274             STW     .D1T1   A4,*+A3(24)       ; |800| 
    3550 000016e4 00002000             NOP             2
    3551                            .dwpsn  "VideoInput2.c",801,2
    3552 000016e8 01BC22E4             LDW     .D2T1   *+SP(4),A3        ; |801| 
    3553 000016ec 00006000             NOP             4
    3554 000016f0 020CE274             STW     .D1T1   A4,*+A3(28)       ; |801| 
    3555 000016f4 00002000             NOP             2
    3556                            .dwpsn  "VideoInput2.c",804,2
    3557 000016f8 01BC22E4             LDW     .D2T1   *+SP(4),A3        ; |804| 
    3558 000016fc 00006000             NOP             4
    3559 00001700 020D0274             STW     .D1T1   A4,*+A3(32)       ; |804| 
    3560 00001704 00002000             NOP             2
    3561                            .dwpsn  "VideoInput2.c",805,2
    3562 00001708 023C22E6             LDW     .D2T2   *+SP(4),B4        ; |805| 
    3563 0000170c 00004000             NOP             3
    3564 00001710 0280A35A             ZERO    .L2     B5                ; |805| 
    3565 00001714 029122F6             STW     .D2T2   B5,*+B4(36)       ; |805| 
    3566 00001718 00002000             NOP             2
    3567                            .dwpsn  "VideoInput2.c",806,1
    3568 0000171c 07BD005A             ADD     .L2     8,SP,SP           ; |806| 
    3569                            .dwcfa  0x0e, 0
    3570 00001720 008CA362             RETNOP  .S2     B3,5              ; |806| 
    3571                               ; BRANCH OCCURS {B3}              ; |806| 
    3572                            .dwattr DW$248, DW_AT_end_file("VideoInput2.c")
    3573                            .dwattr DW$248, DW_AT_end_line(0x326)
    3574                            .dwattr DW$248, DW_AT_end_column(0x01)
    3575                            .dwendentry
TMS320C6x COFF Assembler PC v5.1.0 Fri Mar 25 16:51:07 2011

Tools Copyright (c) 1996-2005 Texas Instruments Incorporated
C:\DOCUME~1\yqhe\LOCALS~1\Temp\TI2522                                PAGE   66

    3576                            .dwendtag DW$248
    3577                    
    3578 00001724                   .sect   ".text"
    3579                            .global _ClearResultMsg
    3580                    
    3581                    DW$251  .dwtag  DW_TAG_subprogram, DW_AT_name("ClearResultMsg"), DW_AT_symbol_name("_ClearResultMsg")
    3582                            .dwattr DW$251, DW_AT_low_pc(_ClearResultMsg)
    3583                            .dwattr DW$251, DW_AT_high_pc(0x00)
    3584                            .dwattr DW$251, DW_AT_begin_file("VideoInput2.c")
    3585                            .dwattr DW$251, DW_AT_begin_line(0x328)
    3586                            .dwattr DW$251, DW_AT_begin_column(0x06)
    3587                            .dwpsn  "VideoInput2.c",809,1
    3588                    
    3589                            .dwfde DW$CIE
    3590                    
    3591                    ;******************************************************************************
    3592                    ;* FUNCTION NAME: _ClearResultMsg                                             *
    3593                    ;*                                                                            *
    3594                    ;*   Regs Modified     : A3,A4,B4,B5,SP                                       *
    3595                    ;*   Regs Used         : A3,A4,B3,B4,B5,SP                                    *
    3596                    ;*   Local Frame Size  : 0 Args + 4 Auto + 0 Save = 4 byte                    *
    3597                    ;******************************************************************************
    3598                    _ClearResultMsg:
    3599                    ;** --------------------------------------------------------------------------*
    3600                            .dwcfa  0x0e, 0
    3601                            .dwcfa  0x09, 126, 19
    3602 00001724 07BF005A             SUB     .L2     SP,8,SP           ; |809| 
    3603                            .dwcfa  0x0e, 8
    3604                    DW$252  .dwtag  DW_TAG_formal_parameter, DW_AT_name("msg"), DW_AT_symbol_name("_msg")
    3605                            .dwattr DW$252, DW_AT_type(*DW$T$76)
    3606                            .dwattr DW$252, DW_AT_location[DW_OP_reg4]
    3607                    DW$253  .dwtag  DW_TAG_variable, DW_AT_name("msg"), DW_AT_symbol_name("_msg")
    3608                            .dwattr DW$253, DW_AT_type(*DW$T$76)
    3609                            .dwattr DW$253, DW_AT_location[DW_OP_breg31 4]
    3610 00001728 023C22F4             STW     .D2T1   A4,*+SP(4)        ; |809| 
    3611 0000172c 00002000             NOP             2
    3612                            .dwpsn  "VideoInput2.c",810,2
    3613                    
    3614 00001730 0200A359             ZERO    .L1     A4                ; |810| 
    3615 00001734 019006A0  ||         MV      .S1     A4,A3
    3616                    
    3617 00001738 020C8274             STW     .D1T1   A4,*+A3(16)       ; |810| 
    3618 0000173c 00002000             NOP             2
    3619                            .dwpsn  "VideoInput2.c",811,2
    3620 00001740 01BC22E4             LDW     .D2T1   *+SP(4),A3        ; |811| 
    3621 00001744 00006000             NOP             4
    3622 00001748 020CA274             STW     .D1T1   A4,*+A3(20)       ; |811| 
    3623 0000174c 00002000             NOP             2
    3624                            .dwpsn  "VideoInput2.c",812,2
    3625 00001750 01BC22E4             LDW     .D2T1   *+SP(4),A3        ; |812| 
    3626 00001754 00004000             NOP             3
    3627 00001758 027CA358             MVK     .L1     -1,A4             ; |812| 
    3628 0000175c 020C4274             STW     .D1T1   A4,*+A3(8)        ; |812| 
    3629 00001760 00002000             NOP             2
    3630                            .dwpsn  "VideoInput2.c",813,2
TMS320C6x COFF Assembler PC v5.1.0 Fri Mar 25 16:51:07 2011

Tools Copyright (c) 1996-2005 Texas Instruments Incorporated
C:\DOCUME~1\yqhe\LOCALS~1\Temp\TI2522                                PAGE   67

    3631 00001764 023C22E6             LDW     .D2T2   *+SP(4),B4        ; |813| 
    3632 00001768 00004000             NOP             3
    3633 0000176c 02FCA35A             MVK     .L2     -1,B5             ; |813| 
    3634 00001770 029062F6             STW     .D2T2   B5,*+B4(12)       ; |813| 
    3635 00001774 00002000             NOP             2
    3636                            .dwpsn  "VideoInput2.c",814,1
    3637 00001778 07BD005A             ADD     .L2     8,SP,SP           ; |814| 
    3638                            .dwcfa  0x0e, 0
    3639 0000177c 008CA362             RETNOP  .S2     B3,5              ; |814| 
    3640                               ; BRANCH OCCURS {B3}              ; |814| 
    3641                            .dwattr DW$251, DW_AT_end_file("VideoInput2.c")
    3642                            .dwattr DW$251, DW_AT_end_line(0x32e)
    3643                            .dwattr DW$251, DW_AT_end_column(0x01)
    3644                            .dwendentry
    3645                            .dwendtag DW$251
    3646                    
    3647 00001780                   .sect   ".text"
    3648                            .global _ClearDistanceValue
    3649                    
    3650                    DW$254  .dwtag  DW_TAG_subprogram, DW_AT_name("ClearDistanceValue"), DW_AT_symbol_name("_ClearDistance
    3651                            .dwattr DW$254, DW_AT_low_pc(_ClearDistanceValue)
    3652                            .dwattr DW$254, DW_AT_high_pc(0x00)
    3653                            .dwattr DW$254, DW_AT_begin_file("VideoInput2.c")
    3654                            .dwattr DW$254, DW_AT_begin_line(0x330)
    3655                            .dwattr DW$254, DW_AT_begin_column(0x06)
    3656                            .dwpsn  "VideoInput2.c",817,1
    3657                    
    3658                            .dwfde DW$CIE
    3659                    
    3660                    ;******************************************************************************
    3661                    ;* FUNCTION NAME: _ClearDistanceValue                                         *
    3662                    ;*                                                                            *
    3663                    ;*   Regs Modified     : A3,B4,B5                                             *
    3664                    ;*   Regs Used         : A3,B3,B4,B5                                          *
    3665                    ;*   Local Frame Size  : 0 Args + 0 Auto + 0 Save = 0 byte                    *
    3666                    ;******************************************************************************
    3667                    _ClearDistanceValue:
    3668                    ;** --------------------------------------------------------------------------*
    3669                            .dwcfa  0x0e, 0
    3670                            .dwcfa  0x09, 126, 19
    3671                            .dwpsn  "VideoInput2.c",818,2
    3672 00001780 02002E2A-            MVKL    .S2     _dsp_used_reg+24,B4 ; |818| 
    3673                    
    3674 00001784 0200006B-            MVKH    .S2     _dsp_used_reg+24,B4 ; |818| 
    3675 00001788 0180A358  ||         ZERO    .L1     A3                ; |818| 
    3676                    
    3677 0000178c 019002F4             STW     .D2T1   A3,*B4            ; |818| 
    3678 00001790 00002000             NOP             2
    3679                            .dwpsn  "VideoInput2.c",819,2
    3680 00001794 0200382A-            MVKL    .S2     _dsp_used_reg+44,B4 ; |819| 
    3681                    
    3682 00001798 0200006B-            MVKH    .S2     _dsp_used_reg+44,B4 ; |819| 
    3683 0000179c 0280A35A  ||         ZERO    .L2     B5                ; |819| 
    3684                    
    3685 000017a0 029002F6             STW     .D2T2   B5,*B4            ; |819| 
TMS320C6x COFF Assembler PC v5.1.0 Fri Mar 25 16:51:07 2011

Tools Copyright (c) 1996-2005 Texas Instruments Incorporated
C:\DOCUME~1\yqhe\LOCALS~1\Temp\TI2522                                PAGE   68

    3686 000017a4 00002000             NOP             2
    3687                            .dwpsn  "VideoInput2.c",820,2
    3688 000017a8 0200362A-            MVKL    .S2     _dsp_used_reg+40,B4 ; |820| 
    3689 000017ac 0200006A-            MVKH    .S2     _dsp_used_reg+40,B4 ; |820| 
    3690 000017b0 019002F4             STW     .D2T1   A3,*B4            ; |820| 
    3691 000017b4 00002000             NOP             2
    3692                            .dwpsn  "VideoInput2.c",821,2
    3693 000017b8 0200322A-            MVKL    .S2     _dsp_used_reg+32,B4 ; |821| 
    3694 000017bc 0200006A-            MVKH    .S2     _dsp_used_reg+32,B4 ; |821| 
    3695 000017c0 019002F4             STW     .D2T1   A3,*B4            ; |821| 
    3696 000017c4 00002000             NOP             2
    3697                            .dwpsn  "VideoInput2.c",822,2
    3698 000017c8 0200342A-            MVKL    .S2     _dsp_used_reg+36,B4 ; |822| 
    3699 000017cc 0200006A-            MVKH    .S2     _dsp_used_reg+36,B4 ; |822| 
    3700 000017d0 029002F6             STW     .D2T2   B5,*B4            ; |822| 
    3701 000017d4 00002000             NOP             2
    3702                            .dwpsn  "VideoInput2.c",823,2
    3703 000017d8 01802028-            MVKL    .S1     _tsk_used_reg,A3  ; |823| 
    3704 000017dc 01800068-            MVKH    .S1     _tsk_used_reg,A3  ; |823| 
    3705 000017e0 018C0264             LDW     .D1T1   *A3,A3            ; |823| 
    3706 000017e4 00002000             NOP             2
    3707 000017e8 0200302A-            MVKL    .S2     _dsp_used_reg+28,B4 ; |823| 
    3708 000017ec 0200006A-            MVKH    .S2     _dsp_used_reg+28,B4 ; |823| 
    3709 000017f0 01808250             ADDK    .S1     260,A3            ; |823| 
    3710 000017f4 018C0204             LDHU    .D1T1   *A3,A3            ; |823| 
    3711 000017f8 00006000             NOP             4
    3712 000017fc 019002F4             STW     .D2T1   A3,*B4            ; |823| 
    3713 00001800 00002000             NOP             2
    3714                            .dwpsn  "VideoInput2.c",824,2
    3715 00001804 02003A2A-            MVKL    .S2     _dsp_used_reg+48,B4 ; |824| 
    3716 00001808 0200006A-            MVKH    .S2     _dsp_used_reg+48,B4 ; |824| 
    3717 0000180c 029002F6             STW     .D2T2   B5,*B4            ; |824| 
    3718 00001810 00002000             NOP             2
    3719                            .dwpsn  "VideoInput2.c",825,2
    3720 00001814 02003C2A-            MVKL    .S2     _dsp_used_reg+52,B4 ; |825| 
    3721 00001818 0200006A-            MVKH    .S2     _dsp_used_reg+52,B4 ; |825| 
    3722 0000181c 029002F6             STW     .D2T2   B5,*B4            ; |825| 
    3723 00001820 00002000             NOP             2
    3724                            .dwpsn  "VideoInput2.c",827,2
    3725                            .dwpsn  "VideoInput2.c",828,1
    3726                            .dwcfa  0x0e, 0
    3727 00001824 008CA362             RETNOP  .S2     B3,5              ; |828| 
    3728                               ; BRANCH OCCURS {B3}              ; |828| 
    3729                            .dwattr DW$254, DW_AT_end_file("VideoInput2.c")
    3730                            .dwattr DW$254, DW_AT_end_line(0x33c)
    3731                            .dwattr DW$254, DW_AT_end_column(0x01)
    3732                            .dwendentry
    3733                            .dwendtag DW$254
    3734                    
    3735 00001828                   .sect   ".text"
    3736                            .global _testADCValue
    3737                    
    3738                    DW$255  .dwtag  DW_TAG_subprogram, DW_AT_name("testADCValue"), DW_AT_symbol_name("_testADCValue")
    3739                            .dwattr DW$255, DW_AT_low_pc(_testADCValue)
    3740                            .dwattr DW$255, DW_AT_high_pc(0x00)
TMS320C6x COFF Assembler PC v5.1.0 Fri Mar 25 16:51:07 2011

Tools Copyright (c) 1996-2005 Texas Instruments Incorporated
C:\DOCUME~1\yqhe\LOCALS~1\Temp\TI2522                                PAGE   69

    3741                            .dwattr DW$255, DW_AT_begin_file("VideoInput2.c")
    3742                            .dwattr DW$255, DW_AT_begin_line(0x341)
    3743                            .dwattr DW$255, DW_AT_begin_column(0x06)
    3744                            .dwpsn  "VideoInput2.c",834,1
    3745                    
    3746                            .dwfde DW$CIE
    3747                    
    3748                    ;******************************************************************************
    3749                    ;* FUNCTION NAME: _testADCValue                                               *
    3750                    ;*                                                                            *
    3751                    ;*   Regs Modified     : A0,A1,A2,A3,A4,A5,A6,A7,A8,A9,B0,B1,B2,B3,B4,B5,B6,  *
    3752                    ;*                           B7,B8,B9,SP,A16,A17,A18,A19,A20,A21,A22,A23,A24, *
    3753                    ;*                           A25,A26,A27,A28,A29,A30,A31,B16,B17,B18,B19,B20, *
    3754                    ;*                           B21,B22,B23,B24,B25,B26,B27,B28,B29,B30,B31      *
    3755                    ;*   Regs Used         : A0,A1,A2,A3,A4,A5,A6,A7,A8,A9,B0,B1,B2,B3,B4,B5,B6,  *
    3756                    ;*                           B7,B8,B9,SP,A16,A17,A18,A19,A20,A21,A22,A23,A24, *
    3757                    ;*                           A25,A26,A27,A28,A29,A30,A31,B16,B17,B18,B19,B20, *
    3758                    ;*                           B21,B22,B23,B24,B25,B26,B27,B28,B29,B30,B31      *
    3759                    ;*   Local Frame Size  : 0 Args + 8 Auto + 4 Save = 12 byte                   *
    3760                    ;******************************************************************************
    3761                    _testADCValue:
    3762                    ;** --------------------------------------------------------------------------*
    3763                            .dwcfa  0x0e, 0
    3764                            .dwcfa  0x09, 126, 19
    3765 00001828 01BC94F6             STW     .D2T2   B3,*SP--(16)      ; |834| 
    3766 0000182c 00002000             NOP             2
    3767                            .dwcfa  0x0e, 16
    3768                            .dwcfa  0x80, 19, 0
    3769                    DW$256  .dwtag  DW_TAG_variable, DW_AT_name("now_distance"), DW_AT_symbol_name("_now_distance")
    3770                            .dwattr DW$256, DW_AT_type(*DW$T$10)
    3771                            .dwattr DW$256, DW_AT_location[DW_OP_breg31 4]
    3772                    DW$257  .dwtag  DW_TAG_variable, DW_AT_name("sound_interval"), DW_AT_symbol_name("_sound_interval")
    3773                            .dwattr DW$257, DW_AT_type(*DW$T$10)
    3774                            .dwattr DW$257, DW_AT_location[DW_OP_breg31 8]
    3775                            .dwpsn  "VideoInput2.c",835,6
    3776 00001830 01802028-            MVKL    .S1     _tsk_used_reg,A3  ; |835| 
    3777 00001834 01800068-            MVKH    .S1     _tsk_used_reg,A3  ; |835| 
    3778 00001838 020C0266             LDW     .D1T2   *A3,B4            ; |835| 
    3779 0000183c 00006000             NOP             4
    3780 00001840 02008452             ADDK    .S2     264,B4            ; |835| 
    3781 00001844 02100286             LDHU    .D2T2   *B4,B4            ; |835| 
    3782 00001848 00006000             NOP             4
    3783 0000184c 023C22F6             STW     .D2T2   B4,*+SP(4)        ; |835| 
    3784 00001850 00002000             NOP             2
    3785                            .dwpsn  "VideoInput2.c",836,6
    3786 00001854 0200A35A             ZERO    .L2     B4                ; |836| 
    3787 00001858 023C42F6             STW     .D2T2   B4,*+SP(8)        ; |836| 
    3788 0000185c 00002000             NOP             2
    3789                            .dwpsn  "VideoInput2.c",837,2
    3790 00001860 02003C2A-            MVKL    .S2     _dsp_used_reg+52,B4 ; |837| 
    3791                    
    3792 00001864 0200006B-            MVKH    .S2     _dsp_used_reg+52,B4 ; |837| 
    3793 00001868 0184A358  ||         MVK     .L1     1,A3              ; |837| 
    3794                    
    3795 0000186c 019002F4             STW     .D2T1   A3,*B4            ; |837| 
TMS320C6x COFF Assembler PC v5.1.0 Fri Mar 25 16:51:07 2011

Tools Copyright (c) 1996-2005 Texas Instruments Incorporated
C:\DOCUME~1\yqhe\LOCALS~1\Temp\TI2522                                PAGE   70

    3796 00001870 00002000             NOP             2
    3797                            .dwpsn  "VideoInput2.c",840,2
    3798 00001874 01802028-            MVKL    .S1     _tsk_used_reg,A3  ; |840| 
    3799                    
    3800 00001878 01800069-            MVKH    .S1     _tsk_used_reg,A3  ; |840| 
    3801 0000187c 0200202A- ||         MVKL    .S2     _tsk_used_reg,B4  ; |840| 
    3802                    
    3803 00001880 018C0265             LDW     .D1T1   *A3,A3            ; |840| 
    3804 00001884 0200006A- ||         MVKH    .S2     _tsk_used_reg,B4  ; |840| 
    3805                    
    3806 00001888 021002E6             LDW     .D2T2   *B4,B4            ; |840| 
    3807 0000188c 00004000             NOP             3
    3808 00001890 01808250             ADDK    .S1     260,A3            ; |840| 
    3809                    
    3810 00001894 021042E7             LDW     .D2T2   *+B4(8),B4        ; |840| 
    3811 00001898 018C0204  ||         LDHU    .D1T1   *A3,A3            ; |840| 
    3812                    
    3813 0000189c 00006000             NOP             4
    3814 000018a0 000C9BFA             CMPLTU  .L2X    B4,A3,B0          ; |840| 
    3815 000018a4 201AA120     [ B0]   BNOP    .S1     L38,5             ; |840| 
    3816                               ; BRANCHCC OCCURS {L38}           ; |840| 
    3817                    ;** --------------------------------------------------------------------------*
    3818                            .dwpsn  "VideoInput2.c",842,3
    3819 000018a8 01802028-            MVKL    .S1     _tsk_used_reg,A3  ; |842| 
    3820 000018ac 01800068-            MVKH    .S1     _tsk_used_reg,A3  ; |842| 
    3821 000018b0 018C0264             LDW     .D1T1   *A3,A3            ; |842| 
    3822 000018b4 00006000             NOP             4
    3823 000018b8 01808250             ADDK    .S1     260,A3            ; |842| 
    3824 000018bc 018C0204             LDHU    .D1T1   *A3,A3            ; |842| 
    3825 000018c0 00006000             NOP             4
    3826 000018c4 01BC22F4             STW     .D2T1   A3,*+SP(4)        ; |842| 
    3827 000018c8 00002000             NOP             2
    3828                            .dwpsn  "VideoInput2.c",844,3
    3829 000018cc 01803628-            MVKL    .S1     _dsp_used_reg+40,A3 ; |844| 
    3830 000018d0 01800068-            MVKH    .S1     _dsp_used_reg+40,A3 ; |844| 
    3831 000018d4 020C0264             LDW     .D1T1   *A3,A4            ; |844| 
    3832 000018d8 00006000             NOP             4
    3833 000018dc 02102058             ADD     .L1     1,A4,A4           ; |844| 
    3834 000018e0 020C0274             STW     .D1T1   A4,*A3            ; |844| 
    3835 000018e4 00002000             NOP             2
    3836                            .dwpsn  "VideoInput2.c",845,3
    3837 000018e8 02003A2A-            MVKL    .S2     _dsp_used_reg+48,B4 ; |845| 
    3838 000018ec 0200006A-            MVKH    .S2     _dsp_used_reg+48,B4 ; |845| 
    3839 000018f0 029002E6             LDW     .D2T2   *B4,B5            ; |845| 
    3840 000018f4 00006000             NOP             4
    3841 000018f8 0294205A             ADD     .L2     1,B5,B5           ; |845| 
    3842 000018fc 029002F6             STW     .D2T2   B5,*B4            ; |845| 
    3843 00001900 00002000             NOP             2
    3844                            .dwpsn  "VideoInput2.c",846,2
    3845 00001904 004CA120             BNOP    .S1     L41,5             ; |846| 
    3846                               ; BRANCH OCCURS {L41}             ; |846| 
    3847                    ;** --------------------------------------------------------------------------*
    3848                    L38:    
    3849                            .dwpsn  "VideoInput2.c",847,7
    3850                    
TMS320C6x COFF Assembler PC v5.1.0 Fri Mar 25 16:51:07 2011

Tools Copyright (c) 1996-2005 Texas Instruments Incorporated
C:\DOCUME~1\yqhe\LOCALS~1\Temp\TI2522                                PAGE   71

    3851 00001908 01802029-            MVKL    .S1     _tsk_used_reg,A3  ; |847| 
    3852 0000190c 0200202A- ||         MVKL    .S2     _tsk_used_reg,B4  ; |847| 
    3853                    
    3854 00001910 01800069-            MVKH    .S1     _tsk_used_reg,A3  ; |847| 
    3855 00001914 0200006A- ||         MVKH    .S2     _tsk_used_reg,B4  ; |847| 
    3856                    
    3857 00001918 018C0265             LDW     .D1T1   *A3,A3            ; |847| 
    3858 0000191c 021002E6  ||         LDW     .D2T2   *B4,B4            ; |847| 
    3859                    
    3860 00001920 00004000             NOP             3
    3861 00001924 020041A8             MVK     .S1     131,A4            ; |847| 
    3862                    
    3863 00001928 021042E7             LDW     .D2T2   *+B4(8),B4        ; |847| 
    3864 0000192c 018C8A04  ||         LDHU    .D1T1   *+A3[A4],A3       ; |847| 
    3865                    
    3866 00001930 00006000             NOP             4
    3867 00001934 000C9BFA             CMPLTU  .L2X    B4,A3,B0          ; |847| 
    3868 00001938 2017A120     [ B0]   BNOP    .S1     L39,5             ; |847| 
    3869                               ; BRANCHCC OCCURS {L39}           ; |847| 
    3870                    ;** --------------------------------------------------------------------------*
    3871                            .dwpsn  "VideoInput2.c",849,3
    3872 0000193c 01802028-            MVKL    .S1     _tsk_used_reg,A3  ; |849| 
    3873 00001940 01800068-            MVKH    .S1     _tsk_used_reg,A3  ; |849| 
    3874 00001944 018C0264             LDW     .D1T1   *A3,A3            ; |849| 
    3875 00001948 00006000             NOP             4
    3876 0000194c 018C8A04             LDHU    .D1T1   *+A3[A4],A3       ; |849| 
    3877 00001950 00006000             NOP             4
    3878 00001954 01BC22F4             STW     .D2T1   A3,*+SP(4)        ; |849| 
    3879 00001958 00002000             NOP             2
    3880                            .dwpsn  "VideoInput2.c",851,3
    3881 0000195c 0200382A-            MVKL    .S2     _dsp_used_reg+44,B4 ; |851| 
    3882 00001960 0200006A-            MVKH    .S2     _dsp_used_reg+44,B4 ; |851| 
    3883 00001964 029002E6             LDW     .D2T2   *B4,B5            ; |851| 
    3884 00001968 00006000             NOP             4
    3885 0000196c 0294205A             ADD     .L2     1,B5,B5           ; |851| 
    3886 00001970 029002F6             STW     .D2T2   B5,*B4            ; |851| 
    3887 00001974 00002000             NOP             2
    3888                            .dwpsn  "VideoInput2.c",853,2
    3889 00001978 0034A120             BNOP    .S1     L41,5             ; |853| 
    3890                               ; BRANCH OCCURS {L41}             ; |853| 
    3891                    ;** --------------------------------------------------------------------------*
    3892                    L39:    
    3893                            .dwpsn  "VideoInput2.c",854,7
    3894 0000197c 01802028-            MVKL    .S1     _tsk_used_reg,A3  ; |854| 
    3895                    
    3896 00001980 01800069-            MVKH    .S1     _tsk_used_reg,A3  ; |854| 
    3897 00001984 0200202A- ||         MVKL    .S2     _tsk_used_reg,B4  ; |854| 
    3898                    
    3899 00001988 018C0265             LDW     .D1T1   *A3,A3            ; |854| 
    3900 0000198c 0200006A- ||         MVKH    .S2     _tsk_used_reg,B4  ; |854| 
    3901                    
    3902 00001990 021002E6             LDW     .D2T2   *B4,B4            ; |854| 
    3903 00001994 00004000             NOP             3
    3904 00001998 01808450             ADDK    .S1     264,A3            ; |854| 
    3905                    
TMS320C6x COFF Assembler PC v5.1.0 Fri Mar 25 16:51:07 2011

Tools Copyright (c) 1996-2005 Texas Instruments Incorporated
C:\DOCUME~1\yqhe\LOCALS~1\Temp\TI2522                                PAGE   72

    3906 0000199c 021042E7             LDW     .D2T2   *+B4(8),B4        ; |854| 
    3907 000019a0 018C0204  ||         LDHU    .D1T1   *A3,A3            ; |854| 
    3908                    
    3909 000019a4 00006000             NOP             4
    3910 000019a8 000C9BFA             CMPLTU  .L2X    B4,A3,B0          ; |854| 
    3911 000019ac 2015A120     [ B0]   BNOP    .S1     L40,5             ; |854| 
    3912                               ; BRANCHCC OCCURS {L40}           ; |854| 
    3913                    ;** --------------------------------------------------------------------------*
    3914                            .dwpsn  "VideoInput2.c",856,3
    3915 000019b0 01802028-            MVKL    .S1     _tsk_used_reg,A3  ; |856| 
    3916 000019b4 01800068-            MVKH    .S1     _tsk_used_reg,A3  ; |856| 
    3917 000019b8 018C0264             LDW     .D1T1   *A3,A3            ; |856| 
    3918 000019bc 00006000             NOP             4
    3919 000019c0 01808450             ADDK    .S1     264,A3            ; |856| 
    3920 000019c4 018C0204             LDHU    .D1T1   *A3,A3            ; |856| 
    3921 000019c8 00006000             NOP             4
    3922 000019cc 01BC22F4             STW     .D2T1   A3,*+SP(4)        ; |856| 
    3923 000019d0 00002000             NOP             2
    3924                            .dwpsn  "VideoInput2.c",857,3
    3925 000019d4 0200382A-            MVKL    .S2     _dsp_used_reg+44,B4 ; |857| 
    3926 000019d8 0200006A-            MVKH    .S2     _dsp_used_reg+44,B4 ; |857| 
    3927 000019dc 029002E6             LDW     .D2T2   *B4,B5            ; |857| 
    3928 000019e0 00006000             NOP             4
    3929 000019e4 0294205A             ADD     .L2     1,B5,B5           ; |857| 
    3930 000019e8 029002F6             STW     .D2T2   B5,*B4            ; |857| 
    3931 000019ec 00002000             NOP             2
    3932                            .dwpsn  "VideoInput2.c",858,2
    3933 000019f0 0014A120             BNOP    .S1     L41,5             ; |858| 
    3934                               ; BRANCH OCCURS {L41}             ; |858| 
    3935                    ;** --------------------------------------------------------------------------*
    3936                    L40:    
    3937                            .dwpsn  "VideoInput2.c",861,3
    3938 000019f4 01802028-            MVKL    .S1     _tsk_used_reg,A3  ; |861| 
    3939 000019f8 01800068-            MVKH    .S1     _tsk_used_reg,A3  ; |861| 
    3940 000019fc 018C0264             LDW     .D1T1   *A3,A3            ; |861| 
    3941 00001a00 00004000             NOP             3
    3942 00001a04 020042A8             MVK     .S1     133,A4            ; |861| 
    3943 00001a08 018C8A04             LDHU    .D1T1   *+A3[A4],A3       ; |861| 
    3944 00001a0c 00006000             NOP             4
    3945 00001a10 01BC22F4             STW     .D2T1   A3,*+SP(4)        ; |861| 
    3946 00001a14 00002000             NOP             2
    3947                            .dwpsn  "VideoInput2.c",862,3
    3948 00001a18 0280382A-            MVKL    .S2     _dsp_used_reg+44,B5 ; |862| 
    3949 00001a1c 0280006A-            MVKH    .S2     _dsp_used_reg+44,B5 ; |862| 
    3950 00001a20 021402E6             LDW     .D2T2   *B5,B4            ; |862| 
    3951 00001a24 00006000             NOP             4
    3952 00001a28 0210205A             ADD     .L2     1,B4,B4           ; |862| 
    3953 00001a2c 021402F6             STW     .D2T2   B4,*B5            ; |862| 
    3954                    ;** --------------------------------------------------------------------------*
    3955                    L41:    
    3956                            .dwpsn  "VideoInput2.c",866,2
    3957 00001a30 01802028-            MVKL    .S1     _tsk_used_reg,A3  ; |866| 
    3958 00001a34 01800068-            MVKH    .S1     _tsk_used_reg,A3  ; |866| 
    3959 00001a38 018C0264             LDW     .D1T1   *A3,A3            ; |866| 
    3960 00001a3c 00000000             NOP             1
TMS320C6x COFF Assembler PC v5.1.0 Fri Mar 25 16:51:07 2011

Tools Copyright (c) 1996-2005 Texas Instruments Incorporated
C:\DOCUME~1\yqhe\LOCALS~1\Temp\TI2522                                PAGE   73

    3961 00001a40 0200382A-            MVKL    .S2     _dsp_used_reg+44,B4 ; |866| 
    3962 00001a44 0200006A-            MVKH    .S2     _dsp_used_reg+44,B4 ; |866| 
    3963 00001a48 021002E6             LDW     .D2T2   *B4,B4            ; |866| 
    3964 00001a4c 01808650             ADDK    .S1     268,A3            ; |866| 
    3965 00001a50 018C0204             LDHU    .D1T1   *A3,A3            ; |866| 
    3966 00001a54 00006000             NOP             4
    3967 00001a58 000C9BFA             CMPLTU  .L2X    B4,A3,B0          ; |866| 
    3968 00001a5c 2021A120     [ B0]   BNOP    .S1     L42,5             ; |866| 
    3969                               ; BRANCHCC OCCURS {L42}           ; |866| 
    3970                    ;** --------------------------------------------------------------------------*
    3971                            .dwpsn  "VideoInput2.c",868,3
    3972 00001a60 01803228-            MVKL    .S1     _dsp_used_reg+32,A3 ; |868| 
    3973                    
    3974 00001a64 01800069-            MVKH    .S1     _dsp_used_reg+32,A3 ; |868| 
    3975 00001a68 0204A358  ||         MVK     .L1     1,A4              ; |868| 
    3976                    
    3977 00001a6c 020C0274             STW     .D1T1   A4,*A3            ; |868| 
    3978 00001a70 00002000             NOP             2
    3979                            .dwpsn  "VideoInput2.c",869,3
    3980 00001a74 02003C2A-            MVKL    .S2     _dsp_used_reg+52,B4 ; |869| 
    3981                    
    3982 00001a78 0200006B-            MVKH    .S2     _dsp_used_reg+52,B4 ; |869| 
    3983 00001a7c 0284A35A  ||         MVK     .L2     1,B5              ; |869| 
    3984                    
    3985 00001a80 029002F6             STW     .D2T2   B5,*B4            ; |869| 
    3986 00001a84 00002000             NOP             2
    3987                            .dwpsn  "VideoInput2.c",870,3
    3988 00001a88 01803828-            MVKL    .S1     _dsp_used_reg+44,A3 ; |870| 
    3989                    
    3990 00001a8c 01800069-            MVKH    .S1     _dsp_used_reg+44,A3 ; |870| 
    3991 00001a90 0200A358  ||         ZERO    .L1     A4                ; |870| 
    3992                    
    3993 00001a94 020C0274             STW     .D1T1   A4,*A3            ; |870| 
    3994 00001a98 00002000             NOP             2
    3995                            .dwpsn  "VideoInput2.c",871,3
    3996 00001a9c 0200362A-            MVKL    .S2     _dsp_used_reg+40,B4 ; |871| 
    3997                    
    3998 00001aa0 0200006B-            MVKH    .S2     _dsp_used_reg+40,B4 ; |871| 
    3999 00001aa4 0280A35A  ||         ZERO    .L2     B5                ; |871| 
    4000                    
    4001 00001aa8 029002F6             STW     .D2T2   B5,*B4            ; |871| 
    4002 00001aac 00002000             NOP             2
    4003                            .dwpsn  "VideoInput2.c",872,3
    4004 00001ab0 01803A28-            MVKL    .S1     _dsp_used_reg+48,A3 ; |872| 
    4005 00001ab4 01800068-            MVKH    .S1     _dsp_used_reg+48,A3 ; |872| 
    4006 00001ab8 020C0274             STW     .D1T1   A4,*A3            ; |872| 
    4007 00001abc 00002000             NOP             2
    4008                            .dwpsn  "VideoInput2.c",873,2
    4009 00001ac0 001AA120             BNOP    .S1     L43,5             ; |873| 
    4010                               ; BRANCH OCCURS {L43}             ; |873| 
    4011                    ;** --------------------------------------------------------------------------*
    4012                    L42:    
    4013                            .dwpsn  "VideoInput2.c",874,7
    4014 00001ac4 01802028-            MVKL    .S1     _tsk_used_reg,A3  ; |874| 
    4015 00001ac8 01800068-            MVKH    .S1     _tsk_used_reg,A3  ; |874| 
TMS320C6x COFF Assembler PC v5.1.0 Fri Mar 25 16:51:07 2011

Tools Copyright (c) 1996-2005 Texas Instruments Incorporated
C:\DOCUME~1\yqhe\LOCALS~1\Temp\TI2522                                PAGE   74

    4016 00001acc 018C0264             LDW     .D1T1   *A3,A3            ; |874| 
    4017 00001ad0 00000000             NOP             1
    4018 00001ad4 0200362A-            MVKL    .S2     _dsp_used_reg+40,B4 ; |874| 
    4019 00001ad8 0200006A-            MVKH    .S2     _dsp_used_reg+40,B4 ; |874| 
    4020 00001adc 021002E6             LDW     .D2T2   *B4,B4            ; |874| 
    4021 00001ae0 01808650             ADDK    .S1     268,A3            ; |874| 
    4022 00001ae4 018C0204             LDHU    .D1T1   *A3,A3            ; |874| 
    4023 00001ae8 00006000             NOP             4
    4024 00001aec 000C9BFA             CMPLTU  .L2X    B4,A3,B0          ; |874| 
    4025 00001af0 2012A120     [ B0]   BNOP    .S1     L43,5             ; |874| 
    4026                               ; BRANCHCC OCCURS {L43}           ; |874| 
    4027                    ;** --------------------------------------------------------------------------*
    4028                            .dwpsn  "VideoInput2.c",876,3
    4029 00001af4 01803228-            MVKL    .S1     _dsp_used_reg+32,A3 ; |876| 
    4030                    
    4031 00001af8 01800069-            MVKH    .S1     _dsp_used_reg+32,A3 ; |876| 
    4032 00001afc 0200A358  ||         ZERO    .L1     A4                ; |876| 
    4033                    
    4034 00001b00 020C0274             STW     .D1T1   A4,*A3            ; |876| 
    4035 00001b04 00002000             NOP             2
    4036                            .dwpsn  "VideoInput2.c",877,3
    4037 00001b08 0200382A-            MVKL    .S2     _dsp_used_reg+44,B4 ; |877| 
    4038                    
    4039 00001b0c 0200006B-            MVKH    .S2     _dsp_used_reg+44,B4 ; |877| 
    4040 00001b10 0280A35A  ||         ZERO    .L2     B5                ; |877| 
    4041                    
    4042 00001b14 029002F6             STW     .D2T2   B5,*B4            ; |877| 
    4043 00001b18 00002000             NOP             2
    4044                            .dwpsn  "VideoInput2.c",878,3
    4045 00001b1c 01803628-            MVKL    .S1     _dsp_used_reg+40,A3 ; |878| 
    4046 00001b20 01800068-            MVKH    .S1     _dsp_used_reg+40,A3 ; |878| 
    4047 00001b24 020C0274             STW     .D1T1   A4,*A3            ; |878| 
    4048                    ;** --------------------------------------------------------------------------*
    4049                    L43:    
    4050                            .dwpsn  "VideoInput2.c",882,2
    4051 00001b28 01802028-            MVKL    .S1     _tsk_used_reg,A3  ; |882| 
    4052 00001b2c 01800068-            MVKH    .S1     _tsk_used_reg,A3  ; |882| 
    4053 00001b30 018C0264             LDW     .D1T1   *A3,A3            ; |882| 
    4054 00001b34 02003A2A-            MVKL    .S2     _dsp_used_reg+48,B4 ; |882| 
    4055 00001b38 0200006A-            MVKH    .S2     _dsp_used_reg+48,B4 ; |882| 
    4056 00001b3c 020043A8             MVK     .S1     135,A4            ; |882| 
    4057 00001b40 021002E6             LDW     .D2T2   *B4,B4            ; |882| 
    4058 00001b44 018C8A04             LDHU    .D1T1   *+A3[A4],A3       ; |882| 
    4059 00001b48 00006000             NOP             4
    4060 00001b4c 000C9BFA             CMPLTU  .L2X    B4,A3,B0          ; |882| 
    4061 00001b50 201AA120     [ B0]   BNOP    .S1     L44,5             ; |882| 
    4062                               ; BRANCHCC OCCURS {L44}           ; |882| 
    4063                    ;** --------------------------------------------------------------------------*
    4064                            .dwpsn  "VideoInput2.c",884,3
    4065 00001b54 01803C28-            MVKL    .S1     _dsp_used_reg+52,A3 ; |884| 
    4066                    
    4067 00001b58 01800069-            MVKH    .S1     _dsp_used_reg+52,A3 ; |884| 
    4068 00001b5c 0200A358  ||         ZERO    .L1     A4                ; |884| 
    4069                    
    4070 00001b60 020C0274             STW     .D1T1   A4,*A3            ; |884| 
TMS320C6x COFF Assembler PC v5.1.0 Fri Mar 25 16:51:07 2011

Tools Copyright (c) 1996-2005 Texas Instruments Incorporated
C:\DOCUME~1\yqhe\LOCALS~1\Temp\TI2522                                PAGE   75

    4071 00001b64 00002000             NOP             2
    4072                            .dwpsn  "VideoInput2.c",887,3
    4073 00001b68 02003A2A-            MVKL    .S2     _dsp_used_reg+48,B4 ; |887| 
    4074                    
    4075 00001b6c 0200006B-            MVKH    .S2     _dsp_used_reg+48,B4 ; |887| 
    4076 00001b70 0280A35A  ||         ZERO    .L2     B5                ; |887| 
    4077                    
    4078 00001b74 029002F6             STW     .D2T2   B5,*B4            ; |887| 
    4079 00001b78 00002000             NOP             2
    4080                            .dwpsn  "VideoInput2.c",889,3
    4081 00001b7c 01800028!            MVKL    .S1     _vdis_buf,A3      ; |889| 
    4082                    
    4083 00001b80 0FFC9013!            CALL    .S2     _disp_draw_half_frame ; |889| 
    4084 00001b84 01800068! ||         MVKH    .S1     _vdis_buf,A3      ; |889| 
    4085                    
    4086 00001b88 020C0264             LDW     .D1T1   *A3,A4            ; |889| 
    4087 00001b8c 01846162             ADDKPC  .S2     RL92,B3,3         ; |889| 
    4088                    RL92:      ; CALL OCCURS {_disp_draw_half_frame}  ; |889| 
    4089                            .dwpsn  "VideoInput2.c",893,3
    4090 00001b90 0000FE90             CALL    .S1     _SwitchLED        ; |893| 
    4091 00001b94 01876162             ADDKPC  .S2     RL93,B3,3         ; |893| 
    4092 00001b98 0200A358             ZERO    .L1     A4                ; |893| 
    4093                    RL93:      ; CALL OCCURS {_SwitchLED}        ; |893| 
    4094                            .dwpsn  "VideoInput2.c",895,3
    4095 00001b9c 00011190             CALL    .S1     _SwitchCCD        ; |895| 
    4096 00001ba0 01826162             ADDKPC  .S2     RL94,B3,3         ; |895| 
    4097 00001ba4 0200A358             ZERO    .L1     A4                ; |895| 
    4098                    RL94:      ; CALL OCCURS {_SwitchCCD}        ; |895| 
    4099                    ;** --------------------------------------------------------------------------*
    4100                    L44:    
    4101                            .dwpsn  "VideoInput2.c",901,2
    4102 00001ba8 01803028-            MVKL    .S1     _dsp_used_reg+28,A3 ; |901| 
    4103 00001bac 01800068-            MVKH    .S1     _dsp_used_reg+28,A3 ; |901| 
    4104                    
    4105 00001bb0 018C0265             LDW     .D1T1   *A3,A3            ; |901| 
    4106 00001bb4 023C22E6  ||         LDW     .D2T2   *+SP(4),B4        ; |901| 
    4107                    
    4108 00001bb8 00006000             NOP             4
    4109 00001bbc 000C9A7A             CMPEQ   .L2X    A3,B4,B0          ; |901| 
    4110 00001bc0 2045A120     [ B0]   BNOP    .S1     L48,5             ; |901| 
    4111                               ; BRANCHCC OCCURS {L48}           ; |901| 
    4112                    ;** --------------------------------------------------------------------------*
    4113                            .dwpsn  "VideoInput2.c",903,3
    4114 00001bc4 02002E2A-            MVKL    .S2     _dsp_used_reg+24,B4 ; |903| 
    4115                    
    4116 00001bc8 0200006B-            MVKH    .S2     _dsp_used_reg+24,B4 ; |903| 
    4117 00001bcc 0280A35A  ||         ZERO    .L2     B5                ; |903| 
    4118                    
    4119 00001bd0 029002F6             STW     .D2T2   B5,*B4            ; |903| 
    4120 00001bd4 00002000             NOP             2
    4121                            .dwpsn  "VideoInput2.c",908,3
    4122 00001bd8 01802028-            MVKL    .S1     _tsk_used_reg,A3  ; |908| 
    4123 00001bdc 01800068-            MVKH    .S1     _tsk_used_reg,A3  ; |908| 
    4124 00001be0 018C0264             LDW     .D1T1   *A3,A3            ; |908| 
    4125 00001be4 00002000             NOP             2
TMS320C6x COFF Assembler PC v5.1.0 Fri Mar 25 16:51:07 2011

Tools Copyright (c) 1996-2005 Texas Instruments Incorporated
C:\DOCUME~1\yqhe\LOCALS~1\Temp\TI2522                                PAGE   76

    4126 00001be8 023C22E6             LDW     .D2T2   *+SP(4),B4        ; |908| 
    4127 00001bec 030042AA             MVK     .S2     133,B6            ; |908| 
    4128 00001bf0 01808450             ADDK    .S1     264,A3            ; |908| 
    4129 00001bf4 020C0204             LDHU    .D1T1   *A3,A4            ; |908| 
    4130 00001bf8 00000000             NOP             1
    4131 00001bfc 01802028-            MVKL    .S1     _tsk_used_reg,A3  ; |908| 
    4132 00001c00 02900FDA             MV      .L2     B4,B5             ; |908| 
    4133 00001c04 01800068-            MVKH    .S1     _tsk_used_reg,A3  ; |908| 
    4134 00001c08 00109A7A             CMPEQ   .L2X    B4,A4,B0          ; |908| 
    4135 00001c0c 2009A120     [ B0]   BNOP    .S1     L45,5             ; |908| 
    4136                               ; BRANCHCC OCCURS {L45}           ; |908| 
    4137                    ;** --------------------------------------------------------------------------*
    4138 00001c10 020C0266             LDW     .D1T2   *A3,B4            ; |908| 
    4139 00001c14 00006000             NOP             4
    4140 00001c18 0210CA86             LDHU    .D2T2   *+B4[B6],B4       ; |908| 
    4141 00001c1c 00006000             NOP             4
    4142 00001c20 0010AA7A             CMPEQ   .L2     B5,B4,B0          ; |908| 
    4143                    ;** --------------------------------------------------------------------------*
    4144 00001c24           L45:    
    4145 00001c24 301B6120     [!B0]   BNOP    .S1     L46,3             ; |908| 
    4146                    
    4147 00001c28 02000FDB             MV      .L2     B0,B4             ; |908| 
    4148 00001c2c 01803029- ||         MVKL    .S1     _dsp_used_reg+28,A3 ; |908| 
    4149 00001c30 0280202A- ||         MVKL    .S2     _tsk_used_reg,B5  ; |908| 
    4150                    
    4151 00001c34 0280006B-            MVKH    .S2     _tsk_used_reg,B5  ; |908| 
    4152 00001c38 01800068- ||         MVKH    .S1     _dsp_used_reg+28,A3 ; |908| 
    4153                    
    4154                               ; BRANCHCC OCCURS {L46}           ; |908| 
    4155                    ;** --------------------------------------------------------------------------*
    4156 00001c3c 021402E6             LDW     .D2T2   *B5,B4            ; |908| 
    4157 00001c40 018C0264             LDW     .D1T1   *A3,A3            ; |908| 
    4158 00001c44 0280202A-            MVKL    .S2     _tsk_used_reg,B5  ; |908| 
    4159 00001c48 02003028-            MVKL    .S1     _dsp_used_reg+28,A4 ; |908| 
    4160 00001c4c 0280006A-            MVKH    .S2     _tsk_used_reg,B5  ; |908| 
    4161 00001c50 02008452             ADDK    .S2     264,B4            ; |908| 
    4162 00001c54 02100286             LDHU    .D2T2   *B4,B4            ; |908| 
    4163 00001c58 00006000             NOP             4
    4164 00001c5c 00107A78             CMPEQ   .L1X    A3,B4,A0          ; |908| 
    4165 00001c60 D00B4120     [!A0]   BNOP    .S1     L46,2             ; |908| 
    4166 00001c64 01802DD8             XOR     .L1     1,A0,A3           ; |908| 
    4167 00001c68 020C1FDA             MV      .L2X    A3,B4             ; |908| 
    4168 00001c6c 02000068-            MVKH    .S1     _dsp_used_reg+28,A4 ; |908| 
    4169                               ; BRANCHCC OCCURS {L46}           ; |908| 
    4170                    ;** --------------------------------------------------------------------------*
    4171 00001c70 021402E6             LDW     .D2T2   *B5,B4            ; |908| 
    4172 00001c74 00004000             NOP             3
    4173 00001c78 01900264             LDW     .D1T1   *A4,A3            ; |908| 
    4174 00001c7c 0210CA86             LDHU    .D2T2   *+B4[B6],B4       ; |908| 
    4175 00001c80 00006000             NOP             4
    4176 00001c84 020C9A7A             CMPEQ   .L2X    A3,B4,B4          ; |908| 
    4177 00001c88 02102DDA             XOR     .L2     1,B4,B4           ; |908| 
    4178                    ;** --------------------------------------------------------------------------*
    4179 00001c8c           L46:    
    4180 00001c8c 00101FD8             MV      .L1X    B4,A0             ; |908| 
TMS320C6x COFF Assembler PC v5.1.0 Fri Mar 25 16:51:07 2011

Tools Copyright (c) 1996-2005 Texas Instruments Incorporated
C:\DOCUME~1\yqhe\LOCALS~1\Temp\TI2522                                PAGE   77

    4181 00001c90 D00EA120     [!A0]   BNOP    .S1     L47,5             ; |908| 
    4182                               ; BRANCHCC OCCURS {L47}           ; |908| 
    4183                    ;** --------------------------------------------------------------------------*
    4184                            .dwpsn  "VideoInput2.c",913,4
    4185 00001c94 01803E28-            MVKL    .S1     _dsp_used_reg+56,A3 ; |913| 
    4186 00001c98 01800068-            MVKH    .S1     _dsp_used_reg+56,A3 ; |913| 
    4187 00001c9c 000C0264             LDW     .D1T1   *A3,A0            ; |913| 
    4188 00001ca0 00006000             NOP             4
    4189 00001ca4 C006A120     [ A0]   BNOP    .S1     L47,5             ; |913| 
    4190                               ; BRANCHCC OCCURS {L47}           ; |913| 
    4191                    ;** --------------------------------------------------------------------------*
    4192                            .dwpsn  "VideoInput2.c",914,5
    4193 00001ca8 01803E28-            MVKL    .S1     _dsp_used_reg+56,A3 ; |914| 
    4194                    
    4195 00001cac 01800069-            MVKH    .S1     _dsp_used_reg+56,A3 ; |914| 
    4196 00001cb0 0220A358  ||         MVK     .L1     8,A4              ; |914| 
    4197                    
    4198 00001cb4 020C0274             STW     .D1T1   A4,*A3            ; |914| 
    4199                    ;** --------------------------------------------------------------------------*
    4200                    L47:    
    4201                            .dwpsn  "VideoInput2.c",917,3
    4202 00001cb8 023C22E6             LDW     .D2T2   *+SP(4),B4        ; |917| 
    4203 00001cbc 00002000             NOP             2
    4204 00001cc0 01803028-            MVKL    .S1     _dsp_used_reg+28,A3 ; |917| 
    4205 00001cc4 01800068-            MVKH    .S1     _dsp_used_reg+28,A3 ; |917| 
    4206 00001cc8 020C0276             STW     .D1T2   B4,*A3            ; |917| 
    4207 00001ccc 00002000             NOP             2
    4208                            .dwpsn  "VideoInput2.c",918,2
    4209 00001cd0 000BA120             BNOP    .S1     L49,5             ; |918| 
    4210                               ; BRANCH OCCURS {L49}             ; |918| 
    4211                    ;** --------------------------------------------------------------------------*
    4212                    L48:    
    4213                            .dwpsn  "VideoInput2.c",921,3
    4214 00001cd4 01802E28-            MVKL    .S1     _dsp_used_reg+24,A3 ; |921| 
    4215 00001cd8 01800068-            MVKH    .S1     _dsp_used_reg+24,A3 ; |921| 
    4216 00001cdc 020C0264             LDW     .D1T1   *A3,A4            ; |921| 
    4217 00001ce0 00006000             NOP             4
    4218 00001ce4 02102058             ADD     .L1     1,A4,A4           ; |921| 
    4219 00001ce8 020C0274             STW     .D1T1   A4,*A3            ; |921| 
    4220                    ;** --------------------------------------------------------------------------*
    4221                    L49:    
    4222                            .dwpsn  "VideoInput2.c",926,2
    4223 00001cec 01802028-            MVKL    .S1     _tsk_used_reg,A3  ; |926| 
    4224 00001cf0 01800068-            MVKH    .S1     _tsk_used_reg,A3  ; |926| 
    4225 00001cf4 018C0264             LDW     .D1T1   *A3,A3            ; |926| 
    4226 00001cf8 00000000             NOP             1
    4227 00001cfc 02002E2A-            MVKL    .S2     _dsp_used_reg+24,B4 ; |926| 
    4228 00001d00 0200006A-            MVKH    .S2     _dsp_used_reg+24,B4 ; |926| 
    4229 00001d04 021002E6             LDW     .D2T2   *B4,B4            ; |926| 
    4230 00001d08 01808850             ADDK    .S1     272,A3            ; |926| 
    4231 00001d0c 018C0204             LDHU    .D1T1   *A3,A3            ; |926| 
    4232 00001d10 00006000             NOP             4
    4233 00001d14 000C9BFA             CMPLTU  .L2X    B4,A3,B0          ; |926| 
    4234 00001d18 207BA120     [ B0]   BNOP    .S1     L54,5             ; |926| 
    4235                               ; BRANCHCC OCCURS {L54}           ; |926| 
TMS320C6x COFF Assembler PC v5.1.0 Fri Mar 25 16:51:07 2011

Tools Copyright (c) 1996-2005 Texas Instruments Incorporated
C:\DOCUME~1\yqhe\LOCALS~1\Temp\TI2522                                PAGE   78

    4236                    ;** --------------------------------------------------------------------------*
    4237                            .dwpsn  "VideoInput2.c",928,3
    4238 00001d1c 01802328-            MVKL    .S1     _dsp_used_reg+2,A3 ; |928| 
    4239 00001d20 01800068-            MVKH    .S1     _dsp_used_reg+2,A3 ; |928| 
    4240 00001d24 018C0204             LDHU    .D1T1   *A3,A3            ; |928| 
    4241 00001d28 00004000             NOP             3
    4242 00001d2c 020187AA             MVK     .S2     783,B4            ; |928| 
    4243 00001d30 000C9F7A             AND     .L2X    B4,A3,B0          ; |928| 
    4244 00001d34 306FA120     [!B0]   BNOP    .S1     L53,5             ; |928| 
    4245                               ; BRANCHCC OCCURS {L53}           ; |928| 
    4246                    ;** --------------------------------------------------------------------------*
    4247                            .dwpsn  "VideoInput2.c",930,4
    4248 00001d38 01802028-            MVKL    .S1     _tsk_used_reg,A3  ; |930| 
    4249 00001d3c 01800068-            MVKH    .S1     _tsk_used_reg,A3  ; |930| 
    4250 00001d40 018C0264             LDW     .D1T1   *A3,A3            ; |930| 
    4251 00001d44 00002000             NOP             2
    4252 00001d48 020041A8             MVK     .S1     131,A4            ; |930| 
    4253 00001d4c 023C22E6             LDW     .D2T2   *+SP(4),B4        ; |930| 
    4254 00001d50 018C8A04             LDHU    .D1T1   *+A3[A4],A3       ; |930| 
    4255 00001d54 00006000             NOP             4
    4256 00001d58 000C9A7A             CMPEQ   .L2X    B4,A3,B0          ; |930| 
    4257 00001d5c 3034A120     [!B0]   BNOP    .S1     L51,5             ; |930| 
    4258                               ; BRANCHCC OCCURS {L51}           ; |930| 
    4259                    ;** --------------------------------------------------------------------------*
    4260                            .dwpsn  "VideoInput2.c",932,5
    4261 00001d60 01802028-            MVKL    .S1     _tsk_used_reg,A3  ; |932| 
    4262 00001d64 01800068-            MVKH    .S1     _tsk_used_reg,A3  ; |932| 
    4263 00001d68 018C0264             LDW     .D1T1   *A3,A3            ; |932| 
    4264 00001d6c 00004000             NOP             3
    4265 00001d70 0224A358             MVK     .L1     9,A4              ; |932| 
    4266 00001d74 020EA274             STW     .D1T1   A4,*+A3(84)       ; |932| 
    4267 00001d78 00002000             NOP             2
    4268                            .dwpsn  "VideoInput2.c",934,5
    4269                    
    4270 00001d7c 01805429-            MVKL    .S1     _dsp_used_reg+100,A3 ; |934| 
    4271 00001d80 0200002A! ||         MVKL    .S2     _KNL_curtime,B4   ; |934| 
    4272                    
    4273 00001d84 01800069-            MVKH    .S1     _dsp_used_reg+100,A3 ; |934| 
    4274 00001d88 0200006A! ||         MVKH    .S2     _KNL_curtime,B4   ; |934| 
    4275                    
    4276 00001d8c 018C0265             LDW     .D1T1   *A3,A3            ; |934| 
    4277 00001d90 021002E6  ||         LDW     .D2T2   *B4,B4            ; |934| 
    4278                    
    4279 00001d94 00006000             NOP             4
    4280 00001d98 020C90FA             SUB     .L2X    B4,A3,B4          ; |934| 
    4281 00001d9c 023C42F6             STW     .D2T2   B4,*+SP(8)        ; |934| 
    4282 00001da0 00002000             NOP             2
    4283                            .dwpsn  "VideoInput2.c",935,5
    4284 00001da4 0283E82A             MVK     .S2     2000,B5           ; |935| 
    4285 00001da8 00148AFA             CMPLT   .L2     B4,B5,B0          ; |935| 
    4286 00001dac 20088120     [ B0]   BNOP    .S1     L50,4             ; |935| 
    4287 00001db0 02002DDA             XOR     .L2     1,B0,B4           ; |935| 
    4288                               ; BRANCHCC OCCURS {L50}           ; |935| 
    4289                    ;** --------------------------------------------------------------------------*
    4290 00001db4 0FFC4C10!            CALL    .S1     _CalcCurFeatureNum ; |935| 
TMS320C6x COFF Assembler PC v5.1.0 Fri Mar 25 16:51:07 2011

Tools Copyright (c) 1996-2005 Texas Instruments Incorporated
C:\DOCUME~1\yqhe\LOCALS~1\Temp\TI2522                                PAGE   79

    4291 00001db8 01878162             ADDKPC  .S2     RL95,B3,4         ; |935| 
    4292 00001dbc           RL95:      ; CALL OCCURS {_CalcCurFeatureNum}  ; |935| 
    4293 00001dbc 02101ADA             CMPGT   .L2X    A4,0,B4           ; |935| 
    4294                    ;** --------------------------------------------------------------------------*
    4295 00001dc0           L50:    
    4296 00001dc0 00101FD8             MV      .L1X    B4,A0             ; |935| 
    4297 00001dc4 D047A120     [!A0]   BNOP    .S1     L53,5             ; |935| 
    4298                               ; BRANCHCC OCCURS {L53}           ; |935| 
    4299                    ;** --------------------------------------------------------------------------*
    4300                            .dwpsn  "VideoInput2.c",938,6
    4301 00001dc8 0200002A!            MVKL    .S2     _KNL_curtime,B4   ; |938| 
    4302 00001dcc 0200006A!            MVKH    .S2     _KNL_curtime,B4   ; |938| 
    4303 00001dd0 029002E6             LDW     .D2T2   *B4,B5            ; |938| 
    4304 00001dd4 00002000             NOP             2
    4305 00001dd8 0F80542A-            MVKL    .S2     _dsp_used_reg+100,B31 ; |938| 
    4306 00001ddc 0F80006A-            MVKH    .S2     _dsp_used_reg+100,B31 ; |938| 
    4307 00001de0 02FC02F6             STW     .D2T2   B5,*B31           ; |938| 
    4308 00001de4 00002000             NOP             2
    4309                            .dwpsn  "VideoInput2.c",939,6
    4310 00001de8 01802028-            MVKL    .S1     _tsk_used_reg,A3  ; |939| 
    4311 00001dec 01800068-            MVKH    .S1     _tsk_used_reg,A3  ; |939| 
    4312 00001df0 018C0264             LDW     .D1T1   *A3,A3            ; |939| 
    4313 00001df4 00006000             NOP             4
    4314 00001df8 020EC264             LDW     .D1T1   *+A3(88),A4       ; |939| 
    4315 00001dfc 00006000             NOP             4
    4316 00001e00 02102058             ADD     .L1     1,A4,A4           ; |939| 
    4317 00001e04 020EC274             STW     .D1T1   A4,*+A3(88)       ; |939| 
    4318 00001e08 00002000             NOP             2
    4319                            .dwpsn  "VideoInput2.c",942,4
    4320 00001e0c 0037A120             BNOP    .S1     L53,5             ; |942| 
    4321                               ; BRANCH OCCURS {L53}             ; |942| 
    4322                    ;** --------------------------------------------------------------------------*
    4323                    L51:    
    4324                            .dwpsn  "VideoInput2.c",943,9
    4325 00001e10 01802028-            MVKL    .S1     _tsk_used_reg,A3  ; |943| 
    4326 00001e14 01800068-            MVKH    .S1     _tsk_used_reg,A3  ; |943| 
    4327 00001e18 018C0264             LDW     .D1T1   *A3,A3            ; |943| 
    4328 00001e1c 00004000             NOP             3
    4329 00001e20 020042A8             MVK     .S1     133,A4            ; |943| 
    4330 00001e24 018C8A04             LDHU    .D1T1   *+A3[A4],A3       ; |943| 
    4331 00001e28 00006000             NOP             4
    4332 00001e2c 000C9A7A             CMPEQ   .L2X    B4,A3,B0          ; |943| 
    4333 00001e30 302FA120     [!B0]   BNOP    .S1     L53,5             ; |943| 
    4334                               ; BRANCHCC OCCURS {L53}           ; |943| 
    4335                    ;** --------------------------------------------------------------------------*
    4336                            .dwpsn  "VideoInput2.c",945,5
    4337 00001e34 01802028-            MVKL    .S1     _tsk_used_reg,A3  ; |945| 
    4338 00001e38 01800068-            MVKH    .S1     _tsk_used_reg,A3  ; |945| 
    4339 00001e3c 018C0264             LDW     .D1T1   *A3,A3            ; |945| 
    4340 00001e40 00004000             NOP             3
    4341 00001e44 0228A358             MVK     .L1     10,A4             ; |945| 
    4342 00001e48 020EA274             STW     .D1T1   A4,*+A3(84)       ; |945| 
    4343 00001e4c 00002000             NOP             2
    4344                            .dwpsn  "VideoInput2.c",947,5
    4345                    
TMS320C6x COFF Assembler PC v5.1.0 Fri Mar 25 16:51:07 2011

Tools Copyright (c) 1996-2005 Texas Instruments Incorporated
C:\DOCUME~1\yqhe\LOCALS~1\Temp\TI2522                                PAGE   80

    4346 00001e50 01805429-            MVKL    .S1     _dsp_used_reg+100,A3 ; |947| 
    4347 00001e54 0200002A! ||         MVKL    .S2     _KNL_curtime,B4   ; |947| 
    4348                    
    4349 00001e58 01800069-            MVKH    .S1     _dsp_used_reg+100,A3 ; |947| 
    4350 00001e5c 0200006A! ||         MVKH    .S2     _KNL_curtime,B4   ; |947| 
    4351                    
    4352 00001e60 018C0265             LDW     .D1T1   *A3,A3            ; |947| 
    4353 00001e64 021002E6  ||         LDW     .D2T2   *B4,B4            ; |947| 
    4354                    
    4355 00001e68 00006000             NOP             4
    4356 00001e6c 020C90FA             SUB     .L2X    B4,A3,B4          ; |947| 
    4357 00001e70 023C42F6             STW     .D2T2   B4,*+SP(8)        ; |947| 
    4358 00001e74 00002000             NOP             2
    4359                            .dwpsn  "VideoInput2.c",948,5
    4360 00001e78 0283E82A             MVK     .S2     2000,B5           ; |948| 
    4361 00001e7c 00148AFA             CMPLT   .L2     B4,B5,B0          ; |948| 
    4362 00001e80 20058120     [ B0]   BNOP    .S1     L52,4             ; |948| 
    4363 00001e84 02002DDA             XOR     .L2     1,B0,B4           ; |948| 
    4364                               ; BRANCHCC OCCURS {L52}           ; |948| 
    4365                    ;** --------------------------------------------------------------------------*
    4366 00001e88 0FFC3010!            CALL    .S1     _CalcCurFeatureNum ; |948| 
    4367 00001e8c 01848162             ADDKPC  .S2     RL96,B3,4         ; |948| 
    4368 00001e90           RL96:      ; CALL OCCURS {_CalcCurFeatureNum}  ; |948| 
    4369 00001e90 02101ADA             CMPGT   .L2X    A4,0,B4           ; |948| 
    4370                    ;** --------------------------------------------------------------------------*
    4371 00001e94           L52:    
    4372 00001e94 00101FD8             MV      .L1X    B4,A0             ; |948| 
    4373 00001e98 D017A120     [!A0]   BNOP    .S1     L53,5             ; |948| 
    4374                               ; BRANCHCC OCCURS {L53}           ; |948| 
    4375                    ;** --------------------------------------------------------------------------*
    4376                            .dwpsn  "VideoInput2.c",951,6
    4377 00001e9c 0200002A!            MVKL    .S2     _KNL_curtime,B4   ; |951| 
    4378 00001ea0 0200006A!            MVKH    .S2     _KNL_curtime,B4   ; |951| 
    4379 00001ea4 029002E6             LDW     .D2T2   *B4,B5            ; |951| 
    4380 00001ea8 00002000             NOP             2
    4381 00001eac 0F80542A-            MVKL    .S2     _dsp_used_reg+100,B31 ; |951| 
    4382 00001eb0 0F80006A-            MVKH    .S2     _dsp_used_reg+100,B31 ; |951| 
    4383 00001eb4 02FC02F6             STW     .D2T2   B5,*B31           ; |951| 
    4384 00001eb8 00002000             NOP             2
    4385                            .dwpsn  "VideoInput2.c",952,6
    4386 00001ebc 01802028-            MVKL    .S1     _tsk_used_reg,A3  ; |952| 
    4387 00001ec0 01800068-            MVKH    .S1     _tsk_used_reg,A3  ; |952| 
    4388 00001ec4 018C0264             LDW     .D1T1   *A3,A3            ; |952| 
    4389 00001ec8 00006000             NOP             4
    4390 00001ecc 020EC264             LDW     .D1T1   *+A3(88),A4       ; |952| 
    4391 00001ed0 00006000             NOP             4
    4392 00001ed4 02102058             ADD     .L1     1,A4,A4           ; |952| 
    4393 00001ed8 020EC274             STW     .D1T1   A4,*+A3(88)       ; |952| 
    4394                    ;** --------------------------------------------------------------------------*
    4395                    L53:    
    4396                            .dwpsn  "VideoInput2.c",957,3
    4397 00001edc 01802E28-            MVKL    .S1     _dsp_used_reg+24,A3 ; |957| 
    4398                    
    4399 00001ee0 01800069-            MVKH    .S1     _dsp_used_reg+24,A3 ; |957| 
    4400 00001ee4 0200A358  ||         ZERO    .L1     A4                ; |957| 
TMS320C6x COFF Assembler PC v5.1.0 Fri Mar 25 16:51:07 2011

Tools Copyright (c) 1996-2005 Texas Instruments Incorporated
C:\DOCUME~1\yqhe\LOCALS~1\Temp\TI2522                                PAGE   81

    4401                    
    4402 00001ee8 020C0274             STW     .D1T1   A4,*A3            ; |957| 
    4403                    ;** --------------------------------------------------------------------------*
    4404                    L54:    
    4405                            .dwpsn  "VideoInput2.c",961,2
    4406 00001eec 01803428-            MVKL    .S1     _dsp_used_reg+36,A3 ; |961| 
    4407 00001ef0 01800068-            MVKH    .S1     _dsp_used_reg+36,A3 ; |961| 
    4408                    
    4409 00001ef4 018C0265             LDW     .D1T1   *A3,A3            ; |961| 
    4410 00001ef8 0200322A- ||         MVKL    .S2     _dsp_used_reg+32,B4 ; |961| 
    4411                    
    4412 00001efc 0200006A-            MVKH    .S2     _dsp_used_reg+32,B4 ; |961| 
    4413 00001f00 021002E6             LDW     .D2T2   *B4,B4            ; |961| 
    4414 00001f04 00002000             NOP             2
    4415 00001f08 0280A35A             ZERO    .L2     B5                ; |961| 
    4416 00001f0c 018C0A58             CMPEQ   .L1     A3,0,A3           ; |961| 
    4417 00001f10 00107A3A             CMPEQ   .L2X    B5:B4,A3,B0       ; |961| 
    4418 00001f14 3053A120     [!B0]   BNOP    .S1     L59,5             ; |961| 
    4419                               ; BRANCHCC OCCURS {L59}           ; |961| 
    4420                    ;** --------------------------------------------------------------------------*
    4421                            .dwpsn  "VideoInput2.c",963,3
    4422 00001f18 01803228-            MVKL    .S1     _dsp_used_reg+32,A3 ; |963| 
    4423 00001f1c 01800068-            MVKH    .S1     _dsp_used_reg+32,A3 ; |963| 
    4424 00001f20 018C0264             LDW     .D1T1   *A3,A3            ; |963| 
    4425 00001f24 00006000             NOP             4
    4426 00001f28 000C2A58             CMPEQ   .L1     A3,1,A0           ; |963| 
    4427 00001f2c D03CA120     [!A0]   BNOP    .S1     L57,5             ; |963| 
    4428                               ; BRANCHCC OCCURS {L57}           ; |963| 
    4429                    ;** --------------------------------------------------------------------------*
    4430                            .dwpsn  "VideoInput2.c",966,4
    4431 00001f30 01802328-            MVKL    .S1     _dsp_used_reg+2,A3 ; |966| 
    4432 00001f34 01800068-            MVKH    .S1     _dsp_used_reg+2,A3 ; |966| 
    4433 00001f38 018C0204             LDHU    .D1T1   *A3,A3            ; |966| 
    4434 00001f3c 00004000             NOP             3
    4435 00001f40 020187AA             MVK     .S2     783,B4            ; |966| 
    4436 00001f44 020C9F7A             AND     .L2X    B4,A3,B4          ; |966| 
    4437 00001f48 00100A5A             CMPEQ   .L2     B4,0,B0           ; |966| 
    4438 00001f4c 20088120     [ B0]   BNOP    .S1     L55,4             ; |966| 
    4439 00001f50 02002DDA             XOR     .L2     1,B0,B4           ; |966| 
    4440                               ; BRANCHCC OCCURS {L55}           ; |966| 
    4441                    ;** --------------------------------------------------------------------------*
    4442 00001f54 0FFC1810!            CALL    .S1     _CalcCurFeatureNum ; |966| 
    4443 00001f58 01878162             ADDKPC  .S2     RL97,B3,4         ; |966| 
    4444 00001f5c           RL97:      ; CALL OCCURS {_CalcCurFeatureNum}  ; |966| 
    4445 00001f5c 02101ADA             CMPGT   .L2X    A4,0,B4           ; |966| 
    4446                    ;** --------------------------------------------------------------------------*
    4447 00001f60           L55:    
    4448 00001f60 00101FD8             MV      .L1X    B4,A0             ; |966| 
    4449 00001f64 D01EA120     [!A0]   BNOP    .S1     L56,5             ; |966| 
    4450                               ; BRANCHCC OCCURS {L56}           ; |966| 
    4451                    ;** --------------------------------------------------------------------------*
    4452                            .dwpsn  "VideoInput2.c",969,5
    4453 00001f68 01802028-            MVKL    .S1     _tsk_used_reg,A3  ; |969| 
    4454 00001f6c 01800068-            MVKH    .S1     _tsk_used_reg,A3  ; |969| 
    4455 00001f70 018C0264             LDW     .D1T1   *A3,A3            ; |969| 
TMS320C6x COFF Assembler PC v5.1.0 Fri Mar 25 16:51:07 2011

Tools Copyright (c) 1996-2005 Texas Instruments Incorporated
C:\DOCUME~1\yqhe\LOCALS~1\Temp\TI2522                                PAGE   82

    4456 00001f74 00004000             NOP             3
    4457 00001f78 0220A358             MVK     .L1     8,A4              ; |969| 
    4458 00001f7c 020EA274             STW     .D1T1   A4,*+A3(84)       ; |969| 
    4459 00001f80 00002000             NOP             2
    4460                            .dwpsn  "VideoInput2.c",970,5
    4461 00001f84 01802028-            MVKL    .S1     _tsk_used_reg,A3  ; |970| 
    4462 00001f88 01800068-            MVKH    .S1     _tsk_used_reg,A3  ; |970| 
    4463 00001f8c 018C0264             LDW     .D1T1   *A3,A3            ; |970| 
    4464 00001f90 00006000             NOP             4
    4465 00001f94 020EC264             LDW     .D1T1   *+A3(88),A4       ; |970| 
    4466 00001f98 00006000             NOP             4
    4467 00001f9c 02102058             ADD     .L1     1,A4,A4           ; |970| 
    4468 00001fa0 020EC274             STW     .D1T1   A4,*+A3(88)       ; |970| 
    4469 00001fa4 00002000             NOP             2
    4470                            .dwpsn  "VideoInput2.c",971,5
    4471 00001fa8 0200562A-            MVKL    .S2     _dsp_used_reg+104,B4 ; |971| 
    4472                    
    4473 00001fac 0200006B-            MVKH    .S2     _dsp_used_reg+104,B4 ; |971| 
    4474 00001fb0 02A0A35A  ||         MVK     .L2     8,B5              ; |971| 
    4475                    
    4476 00001fb4 029002F6             STW     .D2T2   B5,*B4            ; |971| 
    4477 00001fb8 00002000             NOP             2
    4478                            .dwpsn  "VideoInput2.c",972,5
    4479 00001fbc 0200002A!            MVKL    .S2     _KNL_curtime,B4   ; |972| 
    4480 00001fc0 0200006A!            MVKH    .S2     _KNL_curtime,B4   ; |972| 
    4481 00001fc4 029002E6             LDW     .D2T2   *B4,B5            ; |972| 
    4482 00001fc8 00002000             NOP             2
    4483 00001fcc 0F80542A-            MVKL    .S2     _dsp_used_reg+100,B31 ; |972| 
    4484 00001fd0 0F80006A-            MVKH    .S2     _dsp_used_reg+100,B31 ; |972| 
    4485 00001fd4 02FC02F6             STW     .D2T2   B5,*B31           ; |972| 
    4486                    ;** --------------------------------------------------------------------------*
    4487                    L56:    
    4488                            .dwpsn  "VideoInput2.c",975,4
    4489 00001fd8 01802028-            MVKL    .S1     _tsk_used_reg,A3  ; |975| 
    4490 00001fdc 01800068-            MVKH    .S1     _tsk_used_reg,A3  ; |975| 
    4491 00001fe0 018C0264             LDW     .D1T1   *A3,A3            ; |975| 
    4492 00001fe4 00004000             NOP             3
    4493 00001fe8 0204A358             MVK     .L1     1,A4              ; |975| 
    4494 00001fec 020CC274             STW     .D1T1   A4,*+A3(24)       ; |975| 
    4495 00001ff0 00002000             NOP             2
    4496                            .dwpsn  "VideoInput2.c",979,3
    4497 00001ff4 00007290             CALL    .S1     _SwitchLED        ; |979| 
    4498 00001ff8 01886162             ADDKPC  .S2     RL98,B3,3         ; |979| 
    4499 00001ffc 0204A358             MVK     .L1     0x1,A4            ; |979| 
    4500                    RL98:      ; CALL OCCURS {_SwitchLED}        ; |979| 
    4501                            .dwpsn  "VideoInput2.c",981,3
    4502 00002000 00008190             CALL    .S1     _SwitchCCD        ; |981| 
    4503 00002004 01836162             ADDKPC  .S2     RL99,B3,3         ; |981| 
    4504 00002008 0204A358             MVK     .L1     0x1,A4            ; |981| 
    4505                    RL99:      ; CALL OCCURS {_SwitchCCD}        ; |981| 
    4506                            .dwpsn  "VideoInput2.c",985,3
    4507 0000200c 000AA120             BNOP    .S1     L58,5             ; |985| 
    4508                               ; BRANCH OCCURS {L58}             ; |985| 
    4509                    ;** --------------------------------------------------------------------------*
    4510                    L57:    
TMS320C6x COFF Assembler PC v5.1.0 Fri Mar 25 16:51:07 2011

Tools Copyright (c) 1996-2005 Texas Instruments Incorporated
C:\DOCUME~1\yqhe\LOCALS~1\Temp\TI2522                                PAGE   83

    4511                            .dwpsn  "VideoInput2.c",988,4
    4512 00002010 01802028-            MVKL    .S1     _tsk_used_reg,A3  ; |988| 
    4513 00002014 01800068-            MVKH    .S1     _tsk_used_reg,A3  ; |988| 
    4514 00002018 020C0264             LDW     .D1T1   *A3,A4            ; |988| 
    4515 0000201c 00004000             NOP             3
    4516 00002020 0F88A358             MVK     .L1     2,A31             ; |988| 
    4517 00002024 0F90C274             STW     .D1T1   A31,*+A4(24)      ; |988| 
    4518                    ;** --------------------------------------------------------------------------*
    4519                    L58:    
    4520                            .dwpsn  "VideoInput2.c",991,3
    4521 00002028 01803228-            MVKL    .S1     _dsp_used_reg+32,A3 ; |991| 
    4522 0000202c 01800068-            MVKH    .S1     _dsp_used_reg+32,A3 ; |991| 
    4523 00002030 018C0264             LDW     .D1T1   *A3,A3            ; |991| 
    4524 00002034 00000000             NOP             1
    4525 00002038 0200342A-            MVKL    .S2     _dsp_used_reg+36,B4 ; |991| 
    4526 0000203c 00000000             NOP             1
    4527 00002040 0200006A-            MVKH    .S2     _dsp_used_reg+36,B4 ; |991| 
    4528 00002044 019002F4             STW     .D2T1   A3,*B4            ; |991| 
    4529 00002048 00000000             NOP             1
    4530                            .dwpsn  "VideoInput2.c",992,2
    4531                    ;** --------------------------------------------------------------------------*
    4532                    L59:    
    4533                            .dwpsn  "VideoInput2.c",994,1
    4534 0000204c 01BC92E6             LDW     .D2T2   *++SP(16),B3      ; |994| 
    4535 00002050 00006000             NOP             4
    4536                            .dwcfa  0xc0, 19
    4537                            .dwcfa  0x0e, 0
    4538 00002054 008CA362             RETNOP  .S2     B3,5              ; |994| 
    4539                               ; BRANCH OCCURS {B3}              ; |994| 
    4540                            .dwattr DW$255, DW_AT_end_file("VideoInput2.c")
    4541                            .dwattr DW$255, DW_AT_end_line(0x3e2)
    4542                            .dwattr DW$255, DW_AT_end_column(0x01)
    4543                            .dwendentry
    4544                            .dwendtag DW$255
    4545                    
    4546 00002058                   .sect   ".text"
    4547                            .global _DispIcon
    4548                    
    4549                    DW$258  .dwtag  DW_TAG_subprogram, DW_AT_name("DispIcon"), DW_AT_symbol_name("_DispIcon")
    4550                            .dwattr DW$258, DW_AT_low_pc(_DispIcon)
    4551                            .dwattr DW$258, DW_AT_high_pc(0x00)
    4552                            .dwattr DW$258, DW_AT_begin_file("VideoInput2.c")
    4553                            .dwattr DW$258, DW_AT_begin_line(0x3e5)
    4554                            .dwattr DW$258, DW_AT_begin_column(0x06)
    4555                            .dwpsn  "VideoInput2.c",998,1
    4556                    
    4557                            .dwfde DW$CIE
    4558                    
    4559                    ;******************************************************************************
    4560                    ;* FUNCTION NAME: _DispIcon                                                   *
    4561                    ;*                                                                            *
    4562                    ;*   Regs Modified     : A0,A1,A2,A3,A4,A5,A6,A7,A8,A9,B0,B1,B2,B3,B4,B5,B6,  *
    4563                    ;*                           B7,B8,B9,SP,A16,A17,A18,A19,A20,A21,A22,A23,A24, *
    4564                    ;*                           A25,A26,A27,A28,A29,A30,A31,B16,B17,B18,B19,B20, *
    4565                    ;*                           B21,B22,B23,B24,B25,B26,B27,B28,B29,B30,B31      *
TMS320C6x COFF Assembler PC v5.1.0 Fri Mar 25 16:51:07 2011

Tools Copyright (c) 1996-2005 Texas Instruments Incorporated
C:\DOCUME~1\yqhe\LOCALS~1\Temp\TI2522                                PAGE   84

    4566                    ;*   Regs Used         : A0,A1,A2,A3,A4,A5,A6,A7,A8,A9,B0,B1,B2,B3,B4,B5,B6,  *
    4567                    ;*                           B7,B8,B9,SP,A16,A17,A18,A19,A20,A21,A22,A23,A24, *
    4568                    ;*                           A25,A26,A27,A28,A29,A30,A31,B16,B17,B18,B19,B20, *
    4569                    ;*                           B21,B22,B23,B24,B25,B26,B27,B28,B29,B30,B31      *
    4570                    ;*   Local Frame Size  : 0 Args + 48 Auto + 4 Save = 52 byte                  *
    4571                    ;******************************************************************************
    4572                    _DispIcon:
    4573                    ;** --------------------------------------------------------------------------*
    4574                            .dwcfa  0x0e, 0
    4575                            .dwcfa  0x09, 126, 19
    4576 00002058 01BDD4F6             STW     .D2T2   B3,*SP--(56)      ; |998| 
    4577 0000205c 00002000             NOP             2
    4578                            .dwcfa  0x0e, 56
    4579                            .dwcfa  0x80, 19, 0
    4580                    DW$259  .dwtag  DW_TAG_variable, DW_AT_name("base_addr"), DW_AT_symbol_name("_base_addr")
    4581                            .dwattr DW$259, DW_AT_type(*DW$T$11)
    4582                            .dwattr DW$259, DW_AT_location[DW_OP_breg31 4]
    4583                    DW$260  .dwtag  DW_TAG_variable, DW_AT_name("addr"), DW_AT_symbol_name("_addr")
    4584                            .dwattr DW$260, DW_AT_type(*DW$T$11)
    4585                            .dwattr DW$260, DW_AT_location[DW_OP_breg31 8]
    4586                    DW$261  .dwtag  DW_TAG_variable, DW_AT_name("len"), DW_AT_symbol_name("_len")
    4587                            .dwattr DW$261, DW_AT_type(*DW$T$11)
    4588                            .dwattr DW$261, DW_AT_location[DW_OP_breg31 12]
    4589                    DW$262  .dwtag  DW_TAG_variable, DW_AT_name("width"), DW_AT_symbol_name("_width")
    4590                            .dwattr DW$262, DW_AT_type(*DW$T$11)
    4591                            .dwattr DW$262, DW_AT_location[DW_OP_breg31 16]
    4592                    DW$263  .dwtag  DW_TAG_variable, DW_AT_name("height"), DW_AT_symbol_name("_height")
    4593                            .dwattr DW$263, DW_AT_type(*DW$T$11)
    4594                            .dwattr DW$263, DW_AT_location[DW_OP_breg31 20]
    4595                    DW$264  .dwtag  DW_TAG_variable, DW_AT_name("disp_left"), DW_AT_symbol_name("_disp_left")
    4596                            .dwattr DW$264, DW_AT_type(*DW$T$11)
    4597                            .dwattr DW$264, DW_AT_location[DW_OP_breg31 24]
    4598                    DW$265  .dwtag  DW_TAG_variable, DW_AT_name("disp_top"), DW_AT_symbol_name("_disp_top")
    4599                            .dwattr DW$265, DW_AT_type(*DW$T$11)
    4600                            .dwattr DW$265, DW_AT_location[DW_OP_breg31 28]
    4601                    DW$266  .dwtag  DW_TAG_variable, DW_AT_name("sq"), DW_AT_symbol_name("_sq")
    4602                            .dwattr DW$266, DW_AT_type(*DW$T$11)
    4603                            .dwattr DW$266, DW_AT_location[DW_OP_breg31 32]
    4604                    DW$267  .dwtag  DW_TAG_variable, DW_AT_name("bmp_data"), DW_AT_symbol_name("_bmp_data")
    4605                            .dwattr DW$267, DW_AT_type(*DW$T$172)
    4606                            .dwattr DW$267, DW_AT_location[DW_OP_breg31 36]
    4607                    DW$268  .dwtag  DW_TAG_variable, DW_AT_name("mask"), DW_AT_symbol_name("_mask")
    4608                            .dwattr DW$268, DW_AT_type(*DW$T$70)
    4609                            .dwattr DW$268, DW_AT_location[DW_OP_breg31 40]
    4610                    DW$269  .dwtag  DW_TAG_variable, DW_AT_name("bmp_ptr"), DW_AT_symbol_name("_bmp_ptr")
    4611                            .dwattr DW$269, DW_AT_type(*DW$T$254)
    4612                            .dwattr DW$269, DW_AT_location[DW_OP_breg31 44]
    4613                    DW$270  .dwtag  DW_TAG_variable, DW_AT_name("index"), DW_AT_symbol_name("_index")
    4614                            .dwattr DW$270, DW_AT_type(*DW$T$10)
    4615                            .dwattr DW$270, DW_AT_location[DW_OP_breg31 48]
    4616                            .dwpsn  "VideoInput2.c",1011,2
    4617 00002060 01802028-            MVKL    .S1     _tsk_used_reg,A3  ; |1011| 
    4618 00002064 01800068-            MVKH    .S1     _tsk_used_reg,A3  ; |1011| 
    4619 00002068 018C0264             LDW     .D1T1   *A3,A3            ; |1011| 
    4620 0000206c 0200202A-            MVKL    .S2     _tsk_used_reg,B4  ; |1011| 
TMS320C6x COFF Assembler PC v5.1.0 Fri Mar 25 16:51:07 2011

Tools Copyright (c) 1996-2005 Texas Instruments Incorporated
C:\DOCUME~1\yqhe\LOCALS~1\Temp\TI2522                                PAGE   85

    4621 00002070 0200006A-            MVKH    .S2     _tsk_used_reg,B4  ; |1011| 
    4622 00002074 02001728             MVK     .S1     46,A4             ; |1011| 
    4623 00002078 021002E6             LDW     .D2T2   *B4,B4            ; |1011| 
    4624 0000207c 018C8A64             LDW     .D1T1   *+A3[A4],A3       ; |1011| 
    4625 00002080 00004000             NOP             3
    4626 00002084 0280182A             MVK     .S2     48,B5             ; |1011| 
    4627 00002088 0190AAF4             STW     .D2T1   A3,*+B4[B5]       ; |1011| 
    4628 0000208c 00002000             NOP             2
    4629                            .dwpsn  "VideoInput2.c",1012,2
    4630 00002090 0200202A-            MVKL    .S2     _tsk_used_reg,B4  ; |1012| 
    4631 00002094 0200006A-            MVKH    .S2     _tsk_used_reg,B4  ; |1012| 
    4632 00002098 021002E6             LDW     .D2T2   *B4,B4            ; |1012| 
    4633 0000209c 00006000             NOP             4
    4634 000020a0 0010AAE6             LDW     .D2T2   *+B4[B5],B0       ; |1012| 
    4635 000020a4 00006000             NOP             4
    4636 000020a8 30B2A120     [!B0]   BNOP    .S1     L66,5             ; |1012| 
    4637                               ; BRANCHCC OCCURS {L66}           ; |1012| 
    4638                    ;** --------------------------------------------------------------------------*
    4639                            .dwpsn  "VideoInput2.c",1013,3
    4640                            .dwpsn  "VideoInput2.c",1015,2
    4641 000020ac 01802028-            MVKL    .S1     _tsk_used_reg,A3  ; |1015| 
    4642 000020b0 01800068-            MVKH    .S1     _tsk_used_reg,A3  ; |1015| 
    4643 000020b4 018C0264             LDW     .D1T1   *A3,A3            ; |1015| 
    4644 000020b8 0200782A-            MVKL    .S2     _dsp_used_reg+172,B4 ; |1015| 
    4645 000020bc 0200006A-            MVKH    .S2     _dsp_used_reg+172,B4 ; |1015| 
    4646 000020c0 020017A8             MVK     .S1     47,A4             ; |1015| 
    4647 000020c4 021002E6             LDW     .D2T2   *B4,B4            ; |1015| 
    4648 000020c8 018C8A64             LDW     .D1T1   *+A3[A4],A3       ; |1015| 
    4649 000020cc 00006000             NOP             4
    4650 000020d0 000C9A7A             CMPEQ   .L2X    A3,B4,B0          ; |1015| 
    4651 000020d4 20AAA120     [ B0]   BNOP    .S1     L66,5             ; |1015| 
    4652                               ; BRANCHCC OCCURS {L66}           ; |1015| 
    4653                    ;** --------------------------------------------------------------------------*
    4654                            .dwpsn  "VideoInput2.c",1016,3
    4655                            .dwpsn  "VideoInput2.c",1018,2
    4656 000020d8 01802028-            MVKL    .S1     _tsk_used_reg,A3  ; |1018| 
    4657 000020dc 01800068-            MVKH    .S1     _tsk_used_reg,A3  ; |1018| 
    4658 000020e0 018C0264             LDW     .D1T1   *A3,A3            ; |1018| 
    4659 000020e4 00002000             NOP             2
    4660 000020e8 0200782A-            MVKL    .S2     _dsp_used_reg+172,B4 ; |1018| 
    4661 000020ec 0200006A-            MVKH    .S2     _dsp_used_reg+172,B4 ; |1018| 
    4662 000020f0 018C8A64             LDW     .D1T1   *+A3[A4],A3       ; |1018| 
    4663 000020f4 00006000             NOP             4
    4664 000020f8 019002F4             STW     .D2T1   A3,*B4            ; |1018| 
    4665 000020fc 00002000             NOP             2
    4666                            .dwpsn  "VideoInput2.c",1020,2
    4667 00002100 02009A2A-            MVKL    .S2     _IMG_ICON_START_ADDR,B4 ; |1020| 
    4668 00002104 0200006A-            MVKH    .S2     _IMG_ICON_START_ADDR,B4 ; |1020| 
    4669 00002108 021002E6             LDW     .D2T2   *B4,B4            ; |1020| 
    4670 0000210c 00006000             NOP             4
    4671 00002110 023C22F6             STW     .D2T2   B4,*+SP(4)        ; |1020| 
    4672 00002114 00002000             NOP             2
    4673                            .dwpsn  "VideoInput2.c",1022,9
    4674 00002118 0010EF5A             AND     .L2     7,B4,B0           ; |1022| 
    4675 0000211c 300DA120     [!B0]   BNOP    .S1     L61,5             ; |1022| 
TMS320C6x COFF Assembler PC v5.1.0 Fri Mar 25 16:51:07 2011

Tools Copyright (c) 1996-2005 Texas Instruments Incorporated
C:\DOCUME~1\yqhe\LOCALS~1\Temp\TI2522                                PAGE   86

    4676                               ; BRANCHCC OCCURS {L61}           ; |1022| 
    4677                    ;*----------------------------------------------------------------------------*
    4678                    ;*   SOFTWARE PIPELINE INFORMATION
    4679                    ;*      Disqualified loop: Software pipelining disabled
    4680                    ;*----------------------------------------------------------------------------*
    4681                    L60:    
    4682                    DW$L$_DispIcon$4$B:
    4683                            .dwpsn  "VideoInput2.c",1022,34
    4684 00002120 0210205A             ADD     .L2     1,B4,B4           ; |1022| 
    4685 00002124 023C22F6             STW     .D2T2   B4,*+SP(4)        ; |1022| 
    4686 00002128 00002000             NOP             2
    4687                            .dwpsn  "VideoInput2.c",1022,9
    4688 0000212c 0010EF5A             AND     .L2     7,B4,B0           ; |1022| 
    4689 00002130 2000A120     [ B0]   BNOP    .S1     L60,5             ; |1022| 
    4690                               ; BRANCHCC OCCURS {L60}           ; |1022| 
    4691                    DW$L$_DispIcon$4$E:
    4692                    ;** --------------------------------------------------------------------------*
    4693                    L61:    
    4694                            .dwpsn  "VideoInput2.c",1024,2
    4695 00002134 023C42F6             STW     .D2T2   B4,*+SP(8)        ; |1024| 
    4696 00002138 00002000             NOP             2
    4697                            .dwpsn  "VideoInput2.c",1026,7
    4698 0000213c 0200A35A             ZERO    .L2     B4                ; |1026| 
    4699 00002140 023D82F6             STW     .D2T2   B4,*+SP(48)       ; |1026| 
    4700 00002144 00002000             NOP             2
    4701                            .dwpsn  "VideoInput2.c",1026,16
    4702 00002148 01802028-            MVKL    .S1     _tsk_used_reg,A3  ; |1026| 
    4703 0000214c 01800068-            MVKH    .S1     _tsk_used_reg,A3  ; |1026| 
    4704 00002150 018C0264             LDW     .D1T1   *A3,A3            ; |1026| 
    4705 00002154 00004000             NOP             3
    4706 00002158 023D82E6             LDW     .D2T2   *+SP(48),B4       ; |1026| 
    4707 0000215c 018C8A64             LDW     .D1T1   *+A3[A4],A3       ; |1026| 
    4708 00002160 00006000             NOP             4
    4709 00002164 000C9BFA             CMPLTU  .L2X    B4,A3,B0          ; |1026| 
    4710 00002168 303DA120     [!B0]   BNOP    .S1     L65,5             ; |1026| 
    4711                               ; BRANCHCC OCCURS {L65}           ; |1026| 
    4712                    ;** --------------------------------------------------------------------------*
    4713                    ;**   BEGIN LOOP L62
    4714                    ;** --------------------------------------------------------------------------*
    4715                    L62:    
    4716                    DW$L$_DispIcon$6$B:
    4717                            .dwpsn  "VideoInput2.c",1028,3
    4718 0000216c 023C42E6             LDW     .D2T2   *+SP(8),B4        ; |1028| 
    4719 00002170 00006000             NOP             4
    4720 00002174 023D62F6             STW     .D2T2   B4,*+SP(44)       ; |1028| 
    4721 00002178 00002000             NOP             2
    4722                            .dwpsn  "VideoInput2.c",1029,3
    4723 0000217c 021002E6             LDW     .D2T2   *B4,B4            ; |1029| 
    4724 00002180 00006000             NOP             4
    4725 00002184 023C82F6             STW     .D2T2   B4,*+SP(16)       ; |1029| 
    4726 00002188 00002000             NOP             2
    4727                            .dwpsn  "VideoInput2.c",1030,3
    4728 0000218c 023D62E6             LDW     .D2T2   *+SP(44),B4       ; |1030| 
    4729 00002190 00006000             NOP             4
    4730 00002194 021022E6             LDW     .D2T2   *+B4(4),B4        ; |1030| 
TMS320C6x COFF Assembler PC v5.1.0 Fri Mar 25 16:51:07 2011

Tools Copyright (c) 1996-2005 Texas Instruments Incorporated
C:\DOCUME~1\yqhe\LOCALS~1\Temp\TI2522                                PAGE   87

    4731 00002198 00006000             NOP             4
    4732 0000219c 023CA2F6             STW     .D2T2   B4,*+SP(20)       ; |1030| 
    4733 000021a0 00002000             NOP             2
    4734                            .dwpsn  "VideoInput2.c",1031,3
    4735 000021a4 033C82E6             LDW     .D2T2   *+SP(16),B6       ; |1031| 
    4736 000021a8 00004000             NOP             3
    4737 000021ac 03900FDA             MV      .L2     B4,B7             ; |1031| 
    4738 000021b0 0298E882             MPYLH   .M2     B7,B6,B5          ; |1031| 
    4739 000021b4 021CC882             MPYLH   .M2     B6,B7,B4          ; |1031| 
    4740 000021b8 0F98EF82             MPYU    .M2     B7,B6,B31         ; |1031| 
    4741 000021bc 0210A07A             ADD     .L2     B5,B4,B4          ; |1031| 
    4742 000021c0 02120CA2             SHL     .S2     B4,16,B4          ; |1031| 
    4743 000021c4 0213E07A             ADD     .L2     B31,B4,B4         ; |1031| 
    4744 000021c8 023D02F6             STW     .D2T2   B4,*+SP(32)       ; |1031| 
    4745 000021cc 00002000             NOP             2
    4746                            .dwpsn  "VideoInput2.c",1032,3
    4747                    
    4748 000021d0 021069A3             SHRU    .S2     B4,3,B4           ; |1032| 
    4749 000021d4 02900FDA  ||         MV      .L2     B4,B5
    4750                    
    4751 000021d8 0210BA42             ADDAH   .D2     B4,B5,B4          ; |1032| 
    4752 000021dc 0211005A             ADD     .L2     8,B4,B4           ; |1032| 
    4753 000021e0 023C62F6             STW     .D2T2   B4,*+SP(12)       ; |1032| 
    4754 000021e4 00002000             NOP             2
    4755                            .dwpsn  "VideoInput2.c",1034,10
    4756 000021e8 0010EF5A             AND     .L2     7,B4,B0           ; |1034| 
    4757 000021ec 3009A120     [!B0]   BNOP    .S1     L64,5             ; |1034| 
    4758                               ; BRANCHCC OCCURS {L64}           ; |1034| 
    4759                    DW$L$_DispIcon$6$E:
    4760                    ;*----------------------------------------------------------------------------*
    4761                    ;*   SOFTWARE PIPELINE INFORMATION
    4762                    ;*      Disqualified loop: Software pipelining disabled
    4763                    ;*----------------------------------------------------------------------------*
    4764                    L63:    
    4765                    DW$L$_DispIcon$7$B:
    4766                            .dwpsn  "VideoInput2.c",1034,29
    4767 000021f0 0210205A             ADD     .L2     1,B4,B4           ; |1034| 
    4768 000021f4 023C62F6             STW     .D2T2   B4,*+SP(12)       ; |1034| 
    4769 000021f8 00002000             NOP             2
    4770                            .dwpsn  "VideoInput2.c",1034,10
    4771 000021fc 0010EF5A             AND     .L2     7,B4,B0           ; |1034| 
    4772 00002200 2FFCA120     [ B0]   BNOP    .S1     L63,5             ; |1034| 
    4773                               ; BRANCHCC OCCURS {L63}           ; |1034| 
    4774                    DW$L$_DispIcon$7$E:
    4775                    ;** --------------------------------------------------------------------------*
    4776                    L64:    
    4777                    DW$L$_DispIcon$8$B:
    4778                            .dwpsn  "VideoInput2.c",1036,3
    4779 00002204 023C42E6             LDW     .D2T2   *+SP(8),B4        ; |1036| 
    4780 00002208 02BC62E6             LDW     .D2T2   *+SP(12),B5       ; |1036| 
    4781 0000220c 00006000             NOP             4
    4782 00002210 0210A07A             ADD     .L2     B5,B4,B4          ; |1036| 
    4783 00002214 023C42F6             STW     .D2T2   B4,*+SP(8)        ; |1036| 
    4784 00002218 00002000             NOP             2
    4785                            .dwpsn  "VideoInput2.c",1026,62
TMS320C6x COFF Assembler PC v5.1.0 Fri Mar 25 16:51:07 2011

Tools Copyright (c) 1996-2005 Texas Instruments Incorporated
C:\DOCUME~1\yqhe\LOCALS~1\Temp\TI2522                                PAGE   88

    4786 0000221c 023D82E6             LDW     .D2T2   *+SP(48),B4       ; |1026| 
    4787 00002220 00006000             NOP             4
    4788 00002224 0210205A             ADD     .L2     1,B4,B4           ; |1026| 
    4789 00002228 023D82F6             STW     .D2T2   B4,*+SP(48)       ; |1026| 
    4790 0000222c 00002000             NOP             2
    4791                            .dwpsn  "VideoInput2.c",1026,16
    4792 00002230 01802028-            MVKL    .S1     _tsk_used_reg,A3  ; |1026| 
    4793 00002234 01800068-            MVKH    .S1     _tsk_used_reg,A3  ; |1026| 
    4794 00002238 018C0264             LDW     .D1T1   *A3,A3            ; |1026| 
    4795 0000223c 00004000             NOP             3
    4796 00002240 023D82E6             LDW     .D2T2   *+SP(48),B4       ; |1026| 
    4797 00002244 018C8A64             LDW     .D1T1   *+A3[A4],A3       ; |1026| 
    4798 00002248 00006000             NOP             4
    4799 0000224c 000C9BFA             CMPLTU  .L2X    B4,A3,B0          ; |1026| 
    4800 00002250 2FCBA120     [ B0]   BNOP    .S1     L62,5             ; |1026| 
    4801                               ; BRANCHCC OCCURS {L62}           ; |1026| 
    4802                    DW$L$_DispIcon$8$E:
    4803                    ;** --------------------------------------------------------------------------*
    4804                    L65:    
    4805                            .dwpsn  "VideoInput2.c",1039,2
    4806 00002254 023C42E6             LDW     .D2T2   *+SP(8),B4        ; |1039| 
    4807 00002258 00006000             NOP             4
    4808 0000225c 023D62F6             STW     .D2T2   B4,*+SP(44)       ; |1039| 
    4809 00002260 00002000             NOP             2
    4810                            .dwpsn  "VideoInput2.c",1040,2
    4811 00002264 01901FD8             MV      .L1X    B4,A3
    4812 00002268 018C0264             LDW     .D1T1   *A3,A3            ; |1040| 
    4813 0000226c 00006000             NOP             4
    4814 00002270 01BC82F4             STW     .D2T1   A3,*+SP(16)       ; |1040| 
    4815 00002274 00002000             NOP             2
    4816                            .dwpsn  "VideoInput2.c",1041,2
    4817 00002278 01901FD8             MV      .L1X    B4,A3
    4818 0000227c 018C2264             LDW     .D1T1   *+A3(4),A3        ; |1041| 
    4819 00002280 00006000             NOP             4
    4820 00002284 01BCA2F4             STW     .D2T1   A3,*+SP(20)       ; |1041| 
    4821 00002288 00002000             NOP             2
    4822                            .dwpsn  "VideoInput2.c",1042,2
    4823 0000228c 02BC82E6             LDW     .D2T2   *+SP(16),B5       ; |1042| 
    4824 00002290 00004000             NOP             3
    4825 00002294 020C1FDA             MV      .L2X    A3,B4             ; |1042| 
    4826 00002298 03948882             MPYLH   .M2     B4,B5,B7          ; |1042| 
    4827 0000229c 0310A882             MPYLH   .M2     B5,B4,B6          ; |1042| 
    4828 000022a0 02948F82             MPYU    .M2     B4,B5,B5          ; |1042| 
    4829 000022a4 0218E07A             ADD     .L2     B7,B6,B4          ; |1042| 
    4830 000022a8 02120CA2             SHL     .S2     B4,16,B4          ; |1042| 
    4831 000022ac 0210A07A             ADD     .L2     B5,B4,B4          ; |1042| 
    4832 000022b0 023D02F6             STW     .D2T2   B4,*+SP(32)       ; |1042| 
    4833 000022b4 00002000             NOP             2
    4834                            .dwpsn  "VideoInput2.c",1044,2
    4835 000022b8 023C42E6             LDW     .D2T2   *+SP(8),B4        ; |1044| 
    4836 000022bc 00006000             NOP             4
    4837 000022c0 0211005A             ADD     .L2     8,B4,B4           ; |1044| 
    4838 000022c4 023D22F6             STW     .D2T2   B4,*+SP(36)       ; |1044| 
    4839 000022c8 00002000             NOP             2
    4840                            .dwpsn  "VideoInput2.c",1045,2
TMS320C6x COFF Assembler PC v5.1.0 Fri Mar 25 16:51:07 2011

Tools Copyright (c) 1996-2005 Texas Instruments Incorporated
C:\DOCUME~1\yqhe\LOCALS~1\Temp\TI2522                                PAGE   89

    4841 000022cc 023C42E4             LDW     .D2T1   *+SP(8),A4        ; |1045| 
    4842 000022d0 01BD02E4             LDW     .D2T1   *+SP(32),A3       ; |1045| 
    4843 000022d4 00006000             NOP             4
    4844 000022d8 01907A40             ADDAH   .D1     A4,A3,A3          ; |1045| 
    4845 000022dc 018D0058             ADD     .L1     8,A3,A3           ; |1045| 
    4846 000022e0 01BD42F4             STW     .D2T1   A3,*+SP(40)       ; |1045| 
    4847 000022e4 00002000             NOP             2
    4848                            .dwpsn  "VideoInput2.c",1047,2
    4849 000022e8 01BD62E4             LDW     .D2T1   *+SP(44),A3       ; |1047| 
    4850 000022ec 00004000             NOP             3
    4851 000022f0 0F805028             MVK     .S1     160,A31           ; |1047| 
    4852 000022f4 018C0264             LDW     .D1T1   *A3,A3            ; |1047| 
    4853 000022f8 00006000             NOP             4
    4854 000022fc 020FE9A0             SHRU    .S1     A3,31,A4          ; |1047| 
    4855 00002300 018C8078             ADD     .L1     A4,A3,A3          ; |1047| 
    4856 00002304 018C2DA0             SHR     .S1     A3,1,A3           ; |1047| 
    4857 00002308 018FE0F8             SUB     .L1     A31,A3,A3         ; |1047| 
    4858 0000230c 01BCC2F4             STW     .D2T1   A3,*+SP(24)       ; |1047| 
    4859 00002310 00002000             NOP             2
    4860                            .dwpsn  "VideoInput2.c",1048,2
    4861 00002314 023D62E6             LDW     .D2T2   *+SP(44),B4       ; |1048| 
    4862 00002318 00004000             NOP             3
    4863 0000231c 0F803C2A             MVK     .S2     120,B31           ; |1048| 
    4864 00002320 021022E6             LDW     .D2T2   *+B4(4),B4        ; |1048| 
    4865 00002324 00006000             NOP             4
    4866 00002328 0293E9A2             SHRU    .S2     B4,31,B5          ; |1048| 
    4867 0000232c 0290A07A             ADD     .L2     B5,B4,B5          ; |1048| 
    4868 00002330 02942DA2             SHR     .S2     B5,1,B5           ; |1048| 
    4869 00002334 0217E0FA             SUB     .L2     B31,B5,B4         ; |1048| 
    4870 00002338 023CE2F6             STW     .D2T2   B4,*+SP(28)       ; |1048| 
    4871 0000233c 00002000             NOP             2
    4872                            .dwpsn  "VideoInput2.c",1049,2
    4873 00002340 02BD62E6             LDW     .D2T2   *+SP(44),B5       ; |1049| 
    4874 00002344 033CE2E4             LDW     .D2T1   *+SP(28),A6       ; |1049| 
    4875 00002348 023D42E6             LDW     .D2T2   *+SP(40),B4       ; |1049| 
    4876 0000234c 033CC2E6             LDW     .D2T2   *+SP(24),B6       ; |1049| 
    4877 00002350 023D22E4             LDW     .D2T1   *+SP(36),A4       ; |1049| 
    4878                    
    4879 00002354 01941FD9             MV      .L1X    B5,A3             ; |1049| 
    4880 00002358 0FFB9810! ||         CALL    .S1     _disp_set_stamp   ; |1049| 
    4881                    
    4882 0000235c 040C0265             LDW     .D1T1   *A3,A8            ; |1049| 
    4883 00002360 041422E6  ||         LDW     .D2T2   *+B5(4),B8        ; |1049| 
    4884                    
    4885 00002364 01826162             ADDKPC  .S2     RL100,B3,3        ; |1049| 
    4886                    RL100:     ; CALL OCCURS {_disp_set_stamp}   ; |1049| 
    4887                    ;** --------------------------------------------------------------------------*
    4888                    L66:    
    4889                            .dwpsn  "VideoInput2.c",1050,1
    4890 00002368 01BDD2E6             LDW     .D2T2   *++SP(56),B3      ; |1050| 
    4891 0000236c 00006000             NOP             4
    4892                            .dwcfa  0xc0, 19
    4893                            .dwcfa  0x0e, 0
    4894 00002370 008CA362             RETNOP  .S2     B3,5              ; |1050| 
    4895                               ; BRANCH OCCURS {B3}              ; |1050| 
TMS320C6x COFF Assembler PC v5.1.0 Fri Mar 25 16:51:07 2011

Tools Copyright (c) 1996-2005 Texas Instruments Incorporated
C:\DOCUME~1\yqhe\LOCALS~1\Temp\TI2522                                PAGE   90

    4896                    
    4897                    DW$271  .dwtag  DW_TAG_loop
    4898                            .dwattr DW$271, DW_AT_name("C:\DOCUME~1\yqhe\LOCALS~1\Temp\TI2522:L62:1:1301043066")
    4899                            .dwattr DW$271, DW_AT_begin_file("VideoInput2.c")
    4900                            .dwattr DW$271, DW_AT_begin_line(0x402)
    4901                            .dwattr DW$271, DW_AT_end_line(0x40d)
    4902                    DW$272  .dwtag  DW_TAG_loop_range
    4903                            .dwattr DW$272, DW_AT_low_pc(DW$L$_DispIcon$6$B)
    4904                            .dwattr DW$272, DW_AT_high_pc(DW$L$_DispIcon$6$E)
    4905                    DW$273  .dwtag  DW_TAG_loop_range
    4906                            .dwattr DW$273, DW_AT_low_pc(DW$L$_DispIcon$8$B)
    4907                            .dwattr DW$273, DW_AT_high_pc(DW$L$_DispIcon$8$E)
    4908                    
    4909                    DW$274  .dwtag  DW_TAG_loop
    4910                            .dwattr DW$274, DW_AT_name("C:\DOCUME~1\yqhe\LOCALS~1\Temp\TI2522:L63:2:1301043066")
    4911                            .dwattr DW$274, DW_AT_begin_file("VideoInput2.c")
    4912                            .dwattr DW$274, DW_AT_begin_line(0x40a)
    4913                            .dwattr DW$274, DW_AT_end_line(0x40a)
    4914                    DW$275  .dwtag  DW_TAG_loop_range
    4915                            .dwattr DW$275, DW_AT_low_pc(DW$L$_DispIcon$7$B)
    4916                            .dwattr DW$275, DW_AT_high_pc(DW$L$_DispIcon$7$E)
    4917                            .dwendtag DW$274
    4918                    
    4919                            .dwendtag DW$271
    4920                    
    4921                    
    4922                    DW$276  .dwtag  DW_TAG_loop
    4923                            .dwattr DW$276, DW_AT_name("C:\DOCUME~1\yqhe\LOCALS~1\Temp\TI2522:L60:1:1301043066")
    4924                            .dwattr DW$276, DW_AT_begin_file("VideoInput2.c")
    4925                            .dwattr DW$276, DW_AT_begin_line(0x3fe)
    4926                            .dwattr DW$276, DW_AT_end_line(0x3fe)
    4927                    DW$277  .dwtag  DW_TAG_loop_range
    4928                            .dwattr DW$277, DW_AT_low_pc(DW$L$_DispIcon$4$B)
    4929                            .dwattr DW$277, DW_AT_high_pc(DW$L$_DispIcon$4$E)
    4930                            .dwendtag DW$276
    4931                    
    4932                            .dwattr DW$258, DW_AT_end_file("VideoInput2.c")
    4933                            .dwattr DW$258, DW_AT_end_line(0x41a)
    4934                            .dwattr DW$258, DW_AT_end_column(0x01)
    4935                            .dwendentry
    4936                            .dwendtag DW$258
    4937                    
    4938 00002374                   .sect   ".text"
    4939                            .global _SwitchLED
    4940                    
    4941                    DW$278  .dwtag  DW_TAG_subprogram, DW_AT_name("SwitchLED"), DW_AT_symbol_name("_SwitchLED")
    4942                            .dwattr DW$278, DW_AT_low_pc(_SwitchLED)
    4943                            .dwattr DW$278, DW_AT_high_pc(0x00)
    4944                            .dwattr DW$278, DW_AT_begin_file("VideoInput2.c")
    4945                            .dwattr DW$278, DW_AT_begin_line(0x41d)
    4946                            .dwattr DW$278, DW_AT_begin_column(0x06)
    4947                            .dwpsn  "VideoInput2.c",1054,1
    4948                    
    4949                            .dwfde DW$CIE
    4950                    
TMS320C6x COFF Assembler PC v5.1.0 Fri Mar 25 16:51:07 2011

Tools Copyright (c) 1996-2005 Texas Instruments Incorporated
C:\DOCUME~1\yqhe\LOCALS~1\Temp\TI2522                                PAGE   91

    4951                    ;******************************************************************************
    4952                    ;* FUNCTION NAME: _SwitchLED                                                  *
    4953                    ;*                                                                            *
    4954                    ;*   Regs Modified     : A0,A1,A2,A3,A4,A5,A6,A7,A8,A9,B0,B1,B2,B3,B4,B5,B6,  *
    4955                    ;*                           B7,B8,B9,SP,A16,A17,A18,A19,A20,A21,A22,A23,A24, *
    4956                    ;*                           A25,A26,A27,A28,A29,A30,A31,B16,B17,B18,B19,B20, *
    4957                    ;*                           B21,B22,B23,B24,B25,B26,B27,B28,B29,B30,B31      *
    4958                    ;*   Regs Used         : A0,A1,A2,A3,A4,A5,A6,A7,A8,A9,B0,B1,B2,B3,B4,B5,B6,  *
    4959                    ;*                           B7,B8,B9,SP,A16,A17,A18,A19,A20,A21,A22,A23,A24, *
    4960                    ;*                           A25,A26,A27,A28,A29,A30,A31,B16,B17,B18,B19,B20, *
    4961                    ;*                           B21,B22,B23,B24,B25,B26,B27,B28,B29,B30,B31      *
    4962                    ;*   Local Frame Size  : 0 Args + 8 Auto + 4 Save = 12 byte                   *
    4963                    ;******************************************************************************
    4964                    _SwitchLED:
    4965                    ;** --------------------------------------------------------------------------*
    4966                            .dwcfa  0x0e, 0
    4967                            .dwcfa  0x09, 126, 19
    4968 00002374 01BC94F6             STW     .D2T2   B3,*SP--(16)      ; |1054| 
    4969 00002378 00002000             NOP             2
    4970                            .dwcfa  0x0e, 16
    4971                            .dwcfa  0x80, 19, 0
    4972                    DW$279  .dwtag  DW_TAG_formal_parameter, DW_AT_name("ctrl"), DW_AT_symbol_name("_ctrl")
    4973                            .dwattr DW$279, DW_AT_type(*DW$T$10)
    4974                            .dwattr DW$279, DW_AT_location[DW_OP_reg4]
    4975                    DW$280  .dwtag  DW_TAG_variable, DW_AT_name("ctrl"), DW_AT_symbol_name("_ctrl")
    4976                            .dwattr DW$280, DW_AT_type(*DW$T$10)
    4977                            .dwattr DW$280, DW_AT_location[DW_OP_breg31 4]
    4978                    DW$281  .dwtag  DW_TAG_variable, DW_AT_name("PinID"), DW_AT_symbol_name("_PinID")
    4979                            .dwattr DW$281, DW_AT_type(*DW$T$19)
    4980                            .dwattr DW$281, DW_AT_location[DW_OP_breg31 8]
    4981 0000237c 023C22F4             STW     .D2T1   A4,*+SP(4)        ; |1054| 
    4982 00002380 00002000             NOP             2
    4983                            .dwpsn  "VideoInput2.c",1056,9
    4984 00002384 0200482A             MVK     .S2     144,B4            ; |1056| 
    4985 00002388 023C42F6             STW     .D2T2   B4,*+SP(8)        ; |1056| 
    4986 0000238c 00002000             NOP             2
    4987                            .dwpsn  "VideoInput2.c",1058,2
    4988 00002390 00103A5A             CMPEQ   .L2X    A4,1,B0           ; |1058| 
    4989 00002394 3010A120     [!B0]   BNOP    .S1     L67,5             ; |1058| 
    4990                               ; BRANCHCC OCCURS {L67}           ; |1058| 
    4991                    ;** --------------------------------------------------------------------------*
    4992                            .dwpsn  "VideoInput2.c",1061,3
    4993 00002398 0280002A!            MVKL    .S2     _GPIO_pinWrite,B5 ; |1061| 
    4994                    
    4995 0000239c 0280006B!            MVKH    .S2     _GPIO_pinWrite,B5 ; |1061| 
    4996 000023a0 01800028! ||         MVKL    .S1     _EMBGPIO_handle,A3 ; |1061| 
    4997                    
    4998 000023a4 00140363             CALL    .S2     B5                ; |1061| 
    4999 000023a8 01800068! ||         MVKH    .S1     _EMBGPIO_handle,A3 ; |1061| 
    5000                    
    5001 000023ac 020C0265             LDW     .D1T1   *A3,A4            ; |1061| 
    5002 000023b0 023C42E6  ||         LDW     .D2T2   *+SP(8),B4        ; |1061| 
    5003                    
    5004 000023b4 01874162             ADDKPC  .S2     RL101,B3,2        ; |1061| 
    5005 000023b8 0300A358             ZERO    .L1     A6                ; |1061| 
TMS320C6x COFF Assembler PC v5.1.0 Fri Mar 25 16:51:07 2011

Tools Copyright (c) 1996-2005 Texas Instruments Incorporated
C:\DOCUME~1\yqhe\LOCALS~1\Temp\TI2522                                PAGE   92

    5006                    RL101:     ; CALL OCCURS {_GPIO_pinWrite}    ; |1061| 
    5007                            .dwpsn  "VideoInput2.c",1062,2
    5008 000023bc 0013A120             BNOP    .S1     L68,5             ; |1062| 
    5009                               ; BRANCH OCCURS {L68}             ; |1062| 
    5010                    ;** --------------------------------------------------------------------------*
    5011                    L67:    
    5012                            .dwpsn  "VideoInput2.c",1063,7
    5013 000023c0 00101FDA             MV      .L2X    A4,B0
    5014 000023c4 200BA120     [ B0]   BNOP    .S1     L68,5             ; |1063| 
    5015                               ; BRANCHCC OCCURS {L68}           ; |1063| 
    5016                    ;** --------------------------------------------------------------------------*
    5017                            .dwpsn  "VideoInput2.c",1066,3
    5018 000023c8 0280002A!            MVKL    .S2     _GPIO_pinWrite,B5 ; |1066| 
    5019                    
    5020 000023cc 0280006B!            MVKH    .S2     _GPIO_pinWrite,B5 ; |1066| 
    5021 000023d0 01800028! ||         MVKL    .S1     _EMBGPIO_handle,A3 ; |1066| 
    5022                    
    5023 000023d4 00140363             CALL    .S2     B5                ; |1066| 
    5024 000023d8 01800068! ||         MVKH    .S1     _EMBGPIO_handle,A3 ; |1066| 
    5025                    
    5026 000023dc 020C0265             LDW     .D1T1   *A3,A4            ; |1066| 
    5027 000023e0 023C42E6  ||         LDW     .D2T2   *+SP(8),B4        ; |1066| 
    5028                    
    5029 000023e4 01834162             ADDKPC  .S2     RL102,B3,2        ; |1066| 
    5030 000023e8 0304A358             MVK     .L1     0x1,A6            ; |1066| 
    5031                    RL102:     ; CALL OCCURS {_GPIO_pinWrite}    ; |1066| 
    5032                            .dwpsn  "VideoInput2.c",1067,2
    5033                    ;** --------------------------------------------------------------------------*
    5034                    L68:    
    5035                            .dwpsn  "VideoInput2.c",1068,1
    5036 000023ec 01BC92E6             LDW     .D2T2   *++SP(16),B3      ; |1068| 
    5037 000023f0 00006000             NOP             4
    5038                            .dwcfa  0xc0, 19
    5039                            .dwcfa  0x0e, 0
    5040 000023f4 008CA362             RETNOP  .S2     B3,5              ; |1068| 
    5041                               ; BRANCH OCCURS {B3}              ; |1068| 
    5042                            .dwattr DW$278, DW_AT_end_file("VideoInput2.c")
    5043                            .dwattr DW$278, DW_AT_end_line(0x42c)
    5044                            .dwattr DW$278, DW_AT_end_column(0x01)
    5045                            .dwendentry
    5046                            .dwendtag DW$278
    5047                    
    5048 000023f8                   .sect   ".text"
    5049                            .global _ctrlCCD
    5050                    
    5051                    DW$282  .dwtag  DW_TAG_subprogram, DW_AT_name("ctrlCCD"), DW_AT_symbol_name("_ctrlCCD")
    5052                            .dwattr DW$282, DW_AT_low_pc(_ctrlCCD)
    5053                            .dwattr DW$282, DW_AT_high_pc(0x00)
    5054                            .dwattr DW$282, DW_AT_begin_file("VideoInput2.c")
    5055                            .dwattr DW$282, DW_AT_begin_line(0x430)
    5056                            .dwattr DW$282, DW_AT_begin_column(0x06)
    5057                            .dwpsn  "VideoInput2.c",1073,1
    5058                    
    5059                            .dwfde DW$CIE
    5060                    
TMS320C6x COFF Assembler PC v5.1.0 Fri Mar 25 16:51:07 2011

Tools Copyright (c) 1996-2005 Texas Instruments Incorporated
C:\DOCUME~1\yqhe\LOCALS~1\Temp\TI2522                                PAGE   93

    5061                    ;******************************************************************************
    5062                    ;* FUNCTION NAME: _ctrlCCD                                                    *
    5063                    ;*                                                                            *
    5064                    ;*   Regs Modified     : SP                                                   *
    5065                    ;*   Regs Used         : A4,B3,SP                                             *
    5066                    ;*   Local Frame Size  : 0 Args + 4 Auto + 0 Save = 4 byte                    *
    5067                    ;******************************************************************************
    5068                    _ctrlCCD:
    5069                    ;** --------------------------------------------------------------------------*
    5070                            .dwcfa  0x0e, 0
    5071                            .dwcfa  0x09, 126, 19
    5072 000023f8 07BF005A             SUB     .L2     SP,8,SP           ; |1073| 
    5073                            .dwcfa  0x0e, 8
    5074                    DW$283  .dwtag  DW_TAG_formal_parameter, DW_AT_name("ctrl_val"), DW_AT_symbol_name("_ctrl_val")
    5075                            .dwattr DW$283, DW_AT_type(*DW$T$19)
    5076                            .dwattr DW$283, DW_AT_location[DW_OP_reg4]
    5077                    DW$284  .dwtag  DW_TAG_variable, DW_AT_name("ctrl_val"), DW_AT_symbol_name("_ctrl_val")
    5078                            .dwattr DW$284, DW_AT_type(*DW$T$19)
    5079                            .dwattr DW$284, DW_AT_location[DW_OP_breg31 4]
    5080 000023fc 023C22F4             STW     .D2T1   A4,*+SP(4)        ; |1073| 
    5081 00002400 00002000             NOP             2
    5082                            .dwpsn  "VideoInput2.c",1098,1
    5083 00002404 07BD005A             ADD     .L2     8,SP,SP           ; |1098| 
    5084                            .dwcfa  0x0e, 0
    5085 00002408 008CA362             RETNOP  .S2     B3,5              ; |1098| 
    5086                               ; BRANCH OCCURS {B3}              ; |1098| 
    5087                            .dwattr DW$282, DW_AT_end_file("VideoInput2.c")
    5088                            .dwattr DW$282, DW_AT_end_line(0x44a)
    5089                            .dwattr DW$282, DW_AT_end_column(0x01)
    5090                            .dwendentry
    5091                            .dwendtag DW$282
    5092                    
    5093 0000240c                   .sect   ".text"
    5094                            .global _SwitchCCD
    5095                    
    5096                    DW$285  .dwtag  DW_TAG_subprogram, DW_AT_name("SwitchCCD"), DW_AT_symbol_name("_SwitchCCD")
    5097                            .dwattr DW$285, DW_AT_low_pc(_SwitchCCD)
    5098                            .dwattr DW$285, DW_AT_high_pc(0x00)
    5099                            .dwattr DW$285, DW_AT_begin_file("VideoInput2.c")
    5100                            .dwattr DW$285, DW_AT_begin_line(0x44c)
    5101                            .dwattr DW$285, DW_AT_begin_column(0x06)
    5102                            .dwpsn  "VideoInput2.c",1101,1
    5103                    
    5104                            .dwfde DW$CIE
    5105                    
    5106                    ;******************************************************************************
    5107                    ;* FUNCTION NAME: _SwitchCCD                                                  *
    5108                    ;*                                                                            *
    5109                    ;*   Regs Modified     : A0,A1,A2,A3,A4,A5,A6,A7,A8,A9,B0,B1,B2,B3,B4,B5,B6,  *
    5110                    ;*                           B7,B8,B9,SP,A16,A17,A18,A19,A20,A21,A22,A23,A24, *
    5111                    ;*                           A25,A26,A27,A28,A29,A30,A31,B16,B17,B18,B19,B20, *
    5112                    ;*                           B21,B22,B23,B24,B25,B26,B27,B28,B29,B30,B31      *
    5113                    ;*   Regs Used         : A0,A1,A2,A3,A4,A5,A6,A7,A8,A9,B0,B1,B2,B3,B4,B5,B6,  *
    5114                    ;*                           B7,B8,B9,SP,A16,A17,A18,A19,A20,A21,A22,A23,A24, *
    5115                    ;*                           A25,A26,A27,A28,A29,A30,A31,B16,B17,B18,B19,B20, *
TMS320C6x COFF Assembler PC v5.1.0 Fri Mar 25 16:51:07 2011

Tools Copyright (c) 1996-2005 Texas Instruments Incorporated
C:\DOCUME~1\yqhe\LOCALS~1\Temp\TI2522                                PAGE   94

    5116                    ;*                           B21,B22,B23,B24,B25,B26,B27,B28,B29,B30,B31      *
    5117                    ;*   Local Frame Size  : 8 Args + 8 Auto + 4 Save = 20 byte                   *
    5118                    ;******************************************************************************
    5119                    _SwitchCCD:
    5120                    ;** --------------------------------------------------------------------------*
    5121                            .dwcfa  0x0e, 0
    5122                            .dwcfa  0x09, 126, 19
    5123 0000240c 01BCD4F6             STW     .D2T2   B3,*SP--(24)      ; |1101| 
    5124 00002410 00002000             NOP             2
    5125                            .dwcfa  0x0e, 24
    5126                            .dwcfa  0x80, 19, 0
    5127                    DW$286  .dwtag  DW_TAG_formal_parameter, DW_AT_name("ctrl"), DW_AT_symbol_name("_ctrl")
    5128                            .dwattr DW$286, DW_AT_type(*DW$T$10)
    5129                            .dwattr DW$286, DW_AT_location[DW_OP_reg4]
    5130                    DW$287  .dwtag  DW_TAG_variable, DW_AT_name("ctrl"), DW_AT_symbol_name("_ctrl")
    5131                            .dwattr DW$287, DW_AT_type(*DW$T$10)
    5132                            .dwattr DW$287, DW_AT_location[DW_OP_breg31 12]
    5133                    DW$288  .dwtag  DW_TAG_variable, DW_AT_name("ctrl_bits"), DW_AT_symbol_name("_ctrl_bits")
    5134                            .dwattr DW$288, DW_AT_type(*DW$T$11)
    5135                            .dwattr DW$288, DW_AT_location[DW_OP_breg31 16]
    5136 00002414 023C62F4             STW     .D2T1   A4,*+SP(12)       ; |1101| 
    5137 00002418 00002000             NOP             2
    5138                            .dwpsn  "VideoInput2.c",1102,15
    5139 0000241c 0204A35A             MVK     .L2     1,B4              ; |1102| 
    5140 00002420 023C82F6             STW     .D2T2   B4,*+SP(16)       ; |1102| 
    5141 00002424 00002000             NOP             2
    5142                            .dwpsn  "VideoInput2.c",1104,2
    5143 00002428 00103A5A             CMPEQ   .L2X    A4,1,B0           ; |1104| 
    5144 0000242c 3015A120     [!B0]   BNOP    .S1     L69,5             ; |1104| 
    5145                               ; BRANCHCC OCCURS {L69}           ; |1104| 
    5146                    ;** --------------------------------------------------------------------------*
    5147                            .dwpsn  "VideoInput2.c",1108,3
    5148 00002430 01808428-            MVKL    .S1     _cur_ccd_val,A3   ; |1108| 
    5149 00002434 01800068-            MVKH    .S1     _cur_ccd_val,A3   ; |1108| 
    5150 00002438 018C0264             LDW     .D1T1   *A3,A3            ; |1108| 
    5151 0000243c 00006000             NOP             4
    5152 00002440 000C2A58             CMPEQ   .L1     A3,1,A0           ; |1108| 
    5153 00002444 C045A120     [ A0]   BNOP    .S1     L72,5             ; |1108| 
    5154                               ; BRANCHCC OCCURS {L72}           ; |1108| 
    5155                    ;** --------------------------------------------------------------------------*
    5156                            .dwpsn  "VideoInput2.c",1110,4
    5157 00002448 0200842A-            MVKL    .S2     _cur_ccd_val,B4   ; |1110| 
    5158                    
    5159 0000244c 0200006B-            MVKH    .S2     _cur_ccd_val,B4   ; |1110| 
    5160 00002450 0284A35A  ||         MVK     .L2     1,B5              ; |1110| 
    5161                    
    5162 00002454 029002F6             STW     .D2T2   B5,*B4            ; |1110| 
    5163 00002458 00002000             NOP             2
    5164                            .dwpsn  "VideoInput2.c",1111,4
    5165 0000245c 01808428-            MVKL    .S1     _cur_ccd_val,A3   ; |1111| 
    5166                    
    5167 00002460 0FFFF313             CALL    .S2     _ctrlCCD          ; |1111| 
    5168 00002464 01800068- ||         MVKH    .S1     _cur_ccd_val,A3   ; |1111| 
    5169                    
    5170 00002468 020C0264             LDW     .D1T1   *A3,A4            ; |1111| 
TMS320C6x COFF Assembler PC v5.1.0 Fri Mar 25 16:51:07 2011

Tools Copyright (c) 1996-2005 Texas Instruments Incorporated
C:\DOCUME~1\yqhe\LOCALS~1\Temp\TI2522                                PAGE   95

    5171 0000246c 01846162             ADDKPC  .S2     RL103,B3,3        ; |1111| 
    5172                    RL103:     ; CALL OCCURS {_ctrlCCD}          ; |1111| 
    5173                            .dwpsn  "VideoInput2.c",1114,2
    5174 00002470 003DA120             BNOP    .S1     L72,5             ; |1114| 
    5175                               ; BRANCH OCCURS {L72}             ; |1114| 
    5176                    ;** --------------------------------------------------------------------------*
    5177                    L69:    
    5178                            .dwpsn  "VideoInput2.c",1115,7
    5179 00002474 00101FDA             MV      .L2X    A4,B0
    5180 00002478 203DA120     [ B0]   BNOP    .S1     L72,5             ; |1115| 
    5181                               ; BRANCHCC OCCURS {L72}           ; |1115| 
    5182                    ;** --------------------------------------------------------------------------*
    5183                            .dwpsn  "VideoInput2.c",1118,3
    5184 0000247c 023C82E6             LDW     .D2T2   *+SP(16),B4       ; |1118| 
    5185 00002480 00006000             NOP             4
    5186                            .dwpsn  "VideoInput2.c",1120,3
    5187 00002484 01802028-            MVKL    .S1     _tsk_used_reg,A3  ; |1120| 
    5188 00002488 01800068-            MVKH    .S1     _tsk_used_reg,A3  ; |1120| 
    5189 0000248c 018C0264             LDW     .D1T1   *A3,A3            ; |1120| 
    5190 00002490 00004000             NOP             3
    5191 00002494 020026A8             MVK     .S1     77,A4             ; |1120| 
    5192 00002498 018C8A64             LDW     .D1T1   *+A3[A4],A3       ; |1120| 
    5193 0000249c 00006000             NOP             4
    5194 000024a0 020C9F7A             AND     .L2X    B4,A3,B4          ; |1120| 
    5195 000024a4 00102A5A             CMPEQ   .L2     B4,1,B0           ; |1120| 
    5196 000024a8 3013A120     [!B0]   BNOP    .S1     L70,5             ; |1120| 
    5197                               ; BRANCHCC OCCURS {L70}           ; |1120| 
    5198                    ;** --------------------------------------------------------------------------*
    5199                            .dwpsn  "VideoInput2.c",1124,4
    5200 000024ac 01808428-            MVKL    .S1     _cur_ccd_val,A3   ; |1124| 
    5201 000024b0 01800068-            MVKH    .S1     _cur_ccd_val,A3   ; |1124| 
    5202 000024b4 000C0264             LDW     .D1T1   *A3,A0            ; |1124| 
    5203 000024b8 00006000             NOP             4
    5204 000024bc D02DA120     [!A0]   BNOP    .S1     L72,5             ; |1124| 
    5205                               ; BRANCHCC OCCURS {L72}           ; |1124| 
    5206                    ;** --------------------------------------------------------------------------*
    5207                            .dwpsn  "VideoInput2.c",1126,5
    5208 000024c0 0200842A-            MVKL    .S2     _cur_ccd_val,B4   ; |1126| 
    5209                    
    5210 000024c4 0200006B-            MVKH    .S2     _cur_ccd_val,B4   ; |1126| 
    5211 000024c8 0280A35A  ||         ZERO    .L2     B5                ; |1126| 
    5212                    
    5213 000024cc 029002F6             STW     .D2T2   B5,*B4            ; |1126| 
    5214 000024d0 00002000             NOP             2
    5215                            .dwpsn  "VideoInput2.c",1127,5
    5216 000024d4 01808428-            MVKL    .S1     _cur_ccd_val,A3   ; |1127| 
    5217                    
    5218 000024d8 0FFFE713             CALL    .S2     _ctrlCCD          ; |1127| 
    5219 000024dc 01800068- ||         MVKH    .S1     _cur_ccd_val,A3   ; |1127| 
    5220                    
    5221 000024e0 020C0264             LDW     .D1T1   *A3,A4            ; |1127| 
    5222 000024e4 01826162             ADDKPC  .S2     RL104,B3,3        ; |1127| 
    5223                    RL104:     ; CALL OCCURS {_ctrlCCD}          ; |1127| 
    5224                            .dwpsn  "VideoInput2.c",1130,3
    5225 000024e8 001DA120             BNOP    .S1     L72,5             ; |1130| 
TMS320C6x COFF Assembler PC v5.1.0 Fri Mar 25 16:51:07 2011

Tools Copyright (c) 1996-2005 Texas Instruments Incorporated
C:\DOCUME~1\yqhe\LOCALS~1\Temp\TI2522                                PAGE   96

    5226                               ; BRANCH OCCURS {L72}             ; |1130| 
    5227                    ;** --------------------------------------------------------------------------*
    5228                    L70:    
    5229                            .dwpsn  "VideoInput2.c",1133,4
    5230 000024ec 01808428-            MVKL    .S1     _cur_ccd_val,A3   ; |1133| 
    5231 000024f0 01800068-            MVKH    .S1     _cur_ccd_val,A3   ; |1133| 
    5232 000024f4 000C0264             LDW     .D1T1   *A3,A0            ; |1133| 
    5233 000024f8 00006000             NOP             4
    5234 000024fc C018A120     [ A0]   BNOP    .S1     L71,5             ; |1133| 
    5235                               ; BRANCHCC OCCURS {L71}           ; |1133| 
    5236                    ;** --------------------------------------------------------------------------*
    5237                            .dwpsn  "VideoInput2.c",1135,5
    5238 00002500 01808428-            MVKL    .S1     _cur_ccd_val,A3   ; |1135| 
    5239                    
    5240 00002504 01800069-            MVKH    .S1     _cur_ccd_val,A3   ; |1135| 
    5241 00002508 0204A358  ||         MVK     .L1     1,A4              ; |1135| 
    5242                    
    5243 0000250c 020C0274             STW     .D1T1   A4,*A3            ; |1135| 
    5244 00002510 00002000             NOP             2
    5245                            .dwpsn  "VideoInput2.c",1136,5
    5246 00002514 01808428-            MVKL    .S1     _cur_ccd_val,A3   ; |1136| 
    5247                    
    5248 00002518 0FFFDF13             CALL    .S2     _ctrlCCD          ; |1136| 
    5249 0000251c 01800068- ||         MVKH    .S1     _cur_ccd_val,A3   ; |1136| 
    5250                    
    5251 00002520 020C0264             LDW     .D1T1   *A3,A4            ; |1136| 
    5252 00002524 01826162             ADDKPC  .S2     RL105,B3,3        ; |1136| 
    5253                    RL105:     ; CALL OCCURS {_ctrlCCD}          ; |1136| 
    5254                            .dwpsn  "VideoInput2.c",1137,5
    5255 00002528 0FFB5C10!            CALL    .S1     _dbg_output       ; |1137| 
    5256 0000252c 020052AA+            MVKL    .S2     SL10+0,B4         ; |1137| 
    5257 00002530 0200006A+            MVKH    .S2     SL10+0,B4         ; |1137| 
    5258 00002534 023C22F6             STW     .D2T2   B4,*+SP(4)        ; |1137| 
    5259 00002538 01872162             ADDKPC  .S2     RL106,B3,1        ; |1137| 
    5260                    RL106:     ; CALL OCCURS {_dbg_output}       ; |1137| 
    5261                            .dwpsn  "VideoInput2.c",1138,4
    5262 0000253c 000DA120             BNOP    .S1     L72,5             ; |1138| 
    5263                               ; BRANCH OCCURS {L72}             ; |1138| 
    5264                    ;** --------------------------------------------------------------------------*
    5265                    L71:    
    5266                            .dwpsn  "VideoInput2.c",1140,5
    5267 00002540 0FFB5810!            CALL    .S1     _dbg_output       ; |1140| 
    5268 00002544 01806928+            MVKL    .S1     SL11+0,A3         ; |1140| 
    5269 00002548 01800068+            MVKH    .S1     SL11+0,A3         ; |1140| 
    5270 0000254c 01BC22F4             STW     .D2T1   A3,*+SP(4)        ; |1140| 
    5271 00002550 01852162             ADDKPC  .S2     RL107,B3,1        ; |1140| 
    5272                    RL107:     ; CALL OCCURS {_dbg_output}       ; |1140| 
    5273                            .dwpsn  "VideoInput2.c",1142,2
    5274                    ;** --------------------------------------------------------------------------*
    5275                    L72:    
    5276                            .dwpsn  "VideoInput2.c",1158,1
    5277 00002554 01BCD2E6             LDW     .D2T2   *++SP(24),B3      ; |1158| 
    5278 00002558 00006000             NOP             4
    5279                            .dwcfa  0xc0, 19
    5280                            .dwcfa  0x0e, 0
TMS320C6x COFF Assembler PC v5.1.0 Fri Mar 25 16:51:07 2011

Tools Copyright (c) 1996-2005 Texas Instruments Incorporated
C:\DOCUME~1\yqhe\LOCALS~1\Temp\TI2522                                PAGE   97

    5281 0000255c 008CA362             RETNOP  .S2     B3,5              ; |1158| 
    5282                               ; BRANCH OCCURS {B3}              ; |1158| 
    5283                            .dwattr DW$285, DW_AT_end_file("VideoInput2.c")
    5284                            .dwattr DW$285, DW_AT_end_line(0x486)
    5285                            .dwattr DW$285, DW_AT_end_column(0x01)
    5286                            .dwendentry
    5287                            .dwendtag DW$285
    5288                    
    5289 00002560                   .sect   ".text"
    5290                            .global _SetMemoryAddr
    5291                    
    5292                    DW$289  .dwtag  DW_TAG_subprogram, DW_AT_name("SetMemoryAddr"), DW_AT_symbol_name("_SetMemoryAddr")
    5293                            .dwattr DW$289, DW_AT_low_pc(_SetMemoryAddr)
    5294                            .dwattr DW$289, DW_AT_high_pc(0x00)
    5295                            .dwattr DW$289, DW_AT_begin_file("VideoInput2.c")
    5296                            .dwattr DW$289, DW_AT_begin_line(0x4a2)
    5297                            .dwattr DW$289, DW_AT_begin_column(0x06)
    5298                            .dwpsn  "VideoInput2.c",1187,1
    5299                    
    5300                            .dwfde DW$CIE
    5301                    
    5302                    ;******************************************************************************
    5303                    ;* FUNCTION NAME: _SetMemoryAddr                                              *
    5304                    ;*                                                                            *
    5305                    ;*   Regs Modified     : A0,A1,A2,A3,A4,A6,B0,B1,B2,B3,B4,B5,B6,SP            *
    5306                    ;*   Regs Used         : A0,A1,A2,A3,A4,A6,B0,B1,B2,B3,B4,B5,B6,SP            *
    5307                    ;*   Local Frame Size  : 0 Args + 12 Auto + 4 Save = 16 byte                  *
    5308                    ;******************************************************************************
    5309                    _SetMemoryAddr:
    5310                    ;** --------------------------------------------------------------------------*
    5311                            .dwcfa  0x0e, 0
    5312                            .dwcfa  0x09, 126, 19
    5313 00002560 01BC94F6             STW     .D2T2   B3,*SP--(16)      ; |1187| 
    5314 00002564 00002000             NOP             2
    5315                            .dwcfa  0x0e, 16
    5316                            .dwcfa  0x80, 19, 0
    5317                    DW$290  .dwtag  DW_TAG_variable, DW_AT_name("icon_total_len"), DW_AT_symbol_name("_icon_total_len")
    5318                            .dwattr DW$290, DW_AT_type(*DW$T$232)
    5319                            .dwattr DW$290, DW_AT_location[DW_OP_breg31 4]
    5320                    DW$291  .dwtag  DW_TAG_variable, DW_AT_name("icon_mask_total_len"), DW_AT_symbol_name("_icon_mask_tota
    5321                            .dwattr DW$291, DW_AT_type(*DW$T$232)
    5322                            .dwattr DW$291, DW_AT_location[DW_OP_breg31 8]
    5323                    DW$292  .dwtag  DW_TAG_variable, DW_AT_name("free_memory_len"), DW_AT_symbol_name("_free_memory_len")
    5324                            .dwattr DW$292, DW_AT_type(*DW$T$232)
    5325                            .dwattr DW$292, DW_AT_location[DW_OP_breg31 12]
    5326                            .dwpsn  "VideoInput2.c",1197,2
    5327 00002568 01809028-            MVKL    .S1     _ENROLL_FEATURE_STRUCT_OFFSET,A3 ; |1197| 
    5328                    
    5329 0000256c 01800069-            MVKH    .S1     _ENROLL_FEATURE_STRUCT_OFFSET,A3 ; |1197| 
    5330 00002570 02002C2A  ||         MVK     .S2     88,B4             ; |1197| 
    5331                    
    5332 00002574 020C0276             STW     .D1T2   B4,*A3            ; |1197| 
    5333 00002578 00002000             NOP             2
    5334                            .dwpsn  "VideoInput2.c",1202,2
    5335 0000257c 01809028-            MVKL    .S1     _ENROLL_FEATURE_STRUCT_OFFSET,A3 ; |1202| 
TMS320C6x COFF Assembler PC v5.1.0 Fri Mar 25 16:51:07 2011

Tools Copyright (c) 1996-2005 Texas Instruments Incorporated
C:\DOCUME~1\yqhe\LOCALS~1\Temp\TI2522                                PAGE   98

    5336 00002580 01800068-            MVKH    .S1     _ENROLL_FEATURE_STRUCT_OFFSET,A3 ; |1202| 
    5337 00002584 018C0264             LDW     .D1T1   *A3,A3            ; |1202| 
    5338 00002588 00002000             NOP             2
    5339 0000258c 0200922A-            MVKL    .S2     _ENROLL_FEATURE_DATA_OFFSET,B4 ; |1202| 
    5340 00002590 0200006A-            MVKH    .S2     _ENROLL_FEATURE_DATA_OFFSET,B4 ; |1202| 
    5341 00002594 018C8058             ADD     .L1     4,A3,A3           ; |1202| 
    5342 00002598 019002F4             STW     .D2T1   A3,*B4            ; |1202| 
    5343 0000259c 00002000             NOP             2
    5344                            .dwpsn  "VideoInput2.c",1205,2
    5345 000025a0 01809028-            MVKL    .S1     _ENROLL_FEATURE_STRUCT_OFFSET,A3 ; |1205| 
    5346 000025a4 01800068-            MVKH    .S1     _ENROLL_FEATURE_STRUCT_OFFSET,A3 ; |1205| 
    5347 000025a8 020C0266             LDW     .D1T2   *A3,B4            ; |1205| 
    5348 000025ac 00002000             NOP             2
    5349 000025b0 0280942A-            MVKL    .S2     _ENROLL_IMAGE_STRUCT_OFFSET,B5 ; |1205| 
    5350 000025b4 0280006A-            MVKH    .S2     _ENROLL_IMAGE_STRUCT_OFFSET,B5 ; |1205| 
    5351 000025b8 02010252             ADDK    .S2     516,B4            ; |1205| 
    5352 000025bc 021402F6             STW     .D2T2   B4,*B5            ; |1205| 
    5353 000025c0 00002000             NOP             2
    5354                            .dwpsn  "VideoInput2.c",1207,2
    5355 000025c4 01809428-            MVKL    .S1     _ENROLL_IMAGE_STRUCT_OFFSET,A3 ; |1207| 
    5356 000025c8 01800068-            MVKH    .S1     _ENROLL_IMAGE_STRUCT_OFFSET,A3 ; |1207| 
    5357 000025cc 018C0264             LDW     .D1T1   *A3,A3            ; |1207| 
    5358 000025d0 00002000             NOP             2
    5359 000025d4 0200962A-            MVKL    .S2     _ENROLL_BMPHEAD_DATA_OFFSET,B4 ; |1207| 
    5360 000025d8 0200006A-            MVKH    .S2     _ENROLL_BMPHEAD_DATA_OFFSET,B4 ; |1207| 
    5361 000025dc 018C8058             ADD     .L1     4,A3,A3           ; |1207| 
    5362 000025e0 019002F4             STW     .D2T1   A3,*B4            ; |1207| 
    5363 000025e4 00002000             NOP             2
    5364                            .dwpsn  "VideoInput2.c",1209,2
    5365 000025e8 01809628-            MVKL    .S1     _ENROLL_BMPHEAD_DATA_OFFSET,A3 ; |1209| 
    5366 000025ec 01800068-            MVKH    .S1     _ENROLL_BMPHEAD_DATA_OFFSET,A3 ; |1209| 
    5367 000025f0 020C0266             LDW     .D1T2   *A3,B4            ; |1209| 
    5368 000025f4 00002000             NOP             2
    5369 000025f8 0280982A-            MVKL    .S2     _ENROLL_IMAGE_DATA_OFFSET,B5 ; |1209| 
    5370 000025fc 0280006A-            MVKH    .S2     _ENROLL_IMAGE_DATA_OFFSET,B5 ; |1209| 
    5371 00002600 02021B52             ADDK    .S2     1078,B4           ; |1209| 
    5372 00002604 021402F6             STW     .D2T2   B4,*B5            ; |1209| 
    5373 00002608 00002000             NOP             2
    5374                            .dwpsn  "VideoInput2.c",1211,2
    5375 0000260c 01809428-            MVKL    .S1     _ENROLL_IMAGE_STRUCT_OFFSET,A3 ; |1211| 
    5376 00002610 01800068-            MVKH    .S1     _ENROLL_IMAGE_STRUCT_OFFSET,A3 ; |1211| 
    5377 00002614 018C0264             LDW     .D1T1   *A3,A3            ; |1211| 
    5378 00002618 025A202A             MVKL    .S2     0x4b440,B4        ; |1211| 
    5379 0000261c 02808C2A-            MVKL    .S2     _ENROLL_RESULT_TOTAL_LEN,B5 ; |1211| 
    5380 00002620 0200026A             MVKH    .S2     0x4b440,B4        ; |1211| 
    5381 00002624 0280006A-            MVKH    .S2     _ENROLL_RESULT_TOTAL_LEN,B5 ; |1211| 
    5382 00002628 020C907A             ADD     .L2X    B4,A3,B4          ; |1211| 
    5383 0000262c 021402F6             STW     .D2T2   B4,*B5            ; |1211| 
    5384 00002630 00002000             NOP             2
    5385                            .dwpsn  "VideoInput2.c",1217,2
    5386 00002634 01808C28-            MVKL    .S1     _ENROLL_RESULT_TOTAL_LEN,A3 ; |1217| 
    5387 00002638 01800068-            MVKH    .S1     _ENROLL_RESULT_TOTAL_LEN,A3 ; |1217| 
    5388 0000263c 028C0266             LDW     .D1T2   *A3,B5            ; |1217| 
    5389 00002640 00002000             NOP             2
    5390 00002644 02008E2A-            MVKL    .S2     _ENROLL_RESULT_MAX_LEN,B4 ; |1217| 
TMS320C6x COFF Assembler PC v5.1.0 Fri Mar 25 16:51:07 2011

Tools Copyright (c) 1996-2005 Texas Instruments Incorporated
C:\DOCUME~1\yqhe\LOCALS~1\Temp\TI2522                                PAGE   99

    5391 00002648 0200006A-            MVKH    .S2     _ENROLL_RESULT_MAX_LEN,B4 ; |1217| 
    5392 0000264c 02820052             ADDK    .S2     1024,B5           ; |1217| 
    5393 00002650 029002F6             STW     .D2T2   B5,*B4            ; |1217| 
    5394 00002654 00002000             NOP             2
    5395                            .dwpsn  "VideoInput2.c",1221,2
    5396                    
    5397 00002658 0200102B             MVKL    .S2     0x82030020,B4     ; |1221| 
    5398 0000265c 01808628- ||         MVKL    .S1     _ENROLL_RESULT_ADDR,A3 ; |1221| 
    5399                    
    5400 00002660 024101EB             MVKH    .S2     0x82030020,B4     ; |1221| 
    5401 00002664 01800068- ||         MVKH    .S1     _ENROLL_RESULT_ADDR,A3 ; |1221| 
    5402                    
    5403 00002668 020C0276             STW     .D1T2   B4,*A3            ; |1221| 
    5404 0000266c 00002000             NOP             2
    5405                            .dwpsn  "VideoInput2.c",1223,2
    5406 00002670 01808628-            MVKL    .S1     _ENROLL_RESULT_ADDR,A3 ; |1223| 
    5407 00002674 01800068-            MVKH    .S1     _ENROLL_RESULT_ADDR,A3 ; |1223| 
    5408 00002678 018C0264             LDW     .D1T1   *A3,A3            ; |1223| 
    5409 0000267c 00002000             NOP             2
    5410 00002680 0200882A-            MVKL    .S2     _ENROLL_LEFT_STRUCT_ADDR1,B4 ; |1223| 
    5411 00002684 0200006A-            MVKH    .S2     _ENROLL_LEFT_STRUCT_ADDR1,B4 ; |1223| 
    5412 00002688 018D8058             ADD     .L1     12,A3,A3          ; |1223| 
    5413 0000268c 019002F4             STW     .D2T1   A3,*B4            ; |1223| 
    5414 00002690 00002000             NOP             2
    5415                            .dwpsn  "VideoInput2.c",1225,2
    5416 00002694 02008E28-            MVKL    .S1     _ENROLL_RESULT_MAX_LEN,A4 ; |1225| 
    5417 00002698 02000068-            MVKH    .S1     _ENROLL_RESULT_MAX_LEN,A4 ; |1225| 
    5418 0000269c 01808828-            MVKL    .S1     _ENROLL_LEFT_STRUCT_ADDR1,A3 ; |1225| 
    5419                    
    5420 000026a0 03100267             LDW     .D1T2   *A4,B6            ; |1225| 
    5421 000026a4 01800068- ||         MVKH    .S1     _ENROLL_LEFT_STRUCT_ADDR1,A3 ; |1225| 
    5422                    
    5423 000026a8 028C0266             LDW     .D1T2   *A3,B5            ; |1225| 
    5424 000026ac 00002000             NOP             2
    5425 000026b0 02008A2A-            MVKL    .S2     _ENROLL_RIGHT_STRUCT_ADDR1,B4 ; |1225| 
    5426 000026b4 0200006A-            MVKH    .S2     _ENROLL_RIGHT_STRUCT_ADDR1,B4 ; |1225| 
    5427 000026b8 0294DC42             ADDAW   .D2     B5,B6,B5          ; |1225| 
    5428 000026bc 029002F6             STW     .D2T2   B5,*B4            ; |1225| 
    5429 000026c0 00002000             NOP             2
    5430                            .dwpsn  "VideoInput2.c",1227,2
    5431 000026c4 0180AA28-            MVKL    .S1     _IMG_FEATURE_DATA_OFFSET,A3 ; |1227| 
    5432                    
    5433 000026c8 01800069-            MVKH    .S1     _IMG_FEATURE_DATA_OFFSET,A3 ; |1227| 
    5434 000026cc 0230A35A  ||         MVK     .L2     12,B4             ; |1227| 
    5435                    
    5436 000026d0 020C0276             STW     .D1T2   B4,*A3            ; |1227| 
    5437 000026d4 00002000             NOP             2
    5438                            .dwpsn  "VideoInput2.c",1229,2
    5439 000026d8 0200A35A             ZERO    .L2     B4                ; |1229| 
    5440 000026dc 0200016A             MVKH    .S2     0x20000,B4        ; |1229| 
    5441 000026e0 023C22F6             STW     .D2T2   B4,*+SP(4)        ; |1229| 
    5442 000026e4 00002000             NOP             2
    5443                            .dwpsn  "VideoInput2.c",1230,2
    5444 000026e8 021069A2             SHRU    .S2     B4,3,B4           ; |1230| 
    5445 000026ec 023C42F6             STW     .D2T2   B4,*+SP(8)        ; |1230| 
TMS320C6x COFF Assembler PC v5.1.0 Fri Mar 25 16:51:07 2011

Tools Copyright (c) 1996-2005 Texas Instruments Incorporated
C:\DOCUME~1\yqhe\LOCALS~1\Temp\TI2522                                PAGE  100

    5446 000026f0 00002000             NOP             2
    5447                            .dwpsn  "VideoInput2.c",1232,2
    5448 000026f4 01808A28-            MVKL    .S1     _ENROLL_RIGHT_STRUCT_ADDR1,A3 ; |1232| 
    5449 000026f8 02008E28-            MVKL    .S1     _ENROLL_RESULT_MAX_LEN,A4 ; |1232| 
    5450 000026fc 01800068-            MVKH    .S1     _ENROLL_RIGHT_STRUCT_ADDR1,A3 ; |1232| 
    5451                    
    5452 00002700 018C0265             LDW     .D1T1   *A3,A3            ; |1232| 
    5453 00002704 02000068- ||         MVKH    .S1     _ENROLL_RESULT_MAX_LEN,A4 ; |1232| 
    5454                    
    5455 00002708 02100264             LDW     .D1T1   *A4,A4            ; |1232| 
    5456 0000270c 00002000             NOP             2
    5457 00002710 0200A22A-            MVKL    .S2     _IMG_FEATURE_LEFT_STRUCT_ADDR,B4 ; |1232| 
    5458 00002714 0200006A-            MVKH    .S2     _IMG_FEATURE_LEFT_STRUCT_ADDR,B4 ; |1232| 
    5459 00002718 018C9C40             ADDAW   .D1     A3,A4,A3          ; |1232| 
    5460 0000271c 018C07C8             CLR     .S1     A3,0,7,A3         ; |1232| 
    5461 00002720 019002F4             STW     .D2T1   A3,*B4            ; |1232| 
    5462 00002724 00002000             NOP             2
    5463                            .dwpsn  "VideoInput2.c",1234,2
    5464 00002728 0180AA28-            MVKL    .S1     _IMG_FEATURE_DATA_OFFSET,A3 ; |1234| 
    5465 0000272c 01800068-            MVKH    .S1     _IMG_FEATURE_DATA_OFFSET,A3 ; |1234| 
    5466 00002730 0200A228-            MVKL    .S1     _IMG_FEATURE_LEFT_STRUCT_ADDR,A4 ; |1234| 
    5467                    
    5468 00002734 018C0265             LDW     .D1T1   *A3,A3            ; |1234| 
    5469 00002738 02000068- ||         MVKH    .S1     _IMG_FEATURE_LEFT_STRUCT_ADDR,A4 ; |1234| 
    5470                    
    5471 0000273c 02100266             LDW     .D1T2   *A4,B4            ; |1234| 
    5472 00002740 00002000             NOP             2
    5473 00002744 0280A42A-            MVKL    .S2     _IMG_FEATURE_LEFT_ADDR,B5 ; |1234| 
    5474 00002748 0280006A-            MVKH    .S2     _IMG_FEATURE_LEFT_ADDR,B5 ; |1234| 
    5475 0000274c 020C907A             ADD     .L2X    A3,B4,B4          ; |1234| 
    5476 00002750 021402F6             STW     .D2T2   B4,*B5            ; |1234| 
    5477 00002754 00002000             NOP             2
    5478                            .dwpsn  "VideoInput2.c",1236,2
    5479 00002758 0180A228-            MVKL    .S1     _IMG_FEATURE_LEFT_STRUCT_ADDR,A3 ; |1236| 
    5480 0000275c 01800068-            MVKH    .S1     _IMG_FEATURE_LEFT_STRUCT_ADDR,A3 ; |1236| 
    5481                    
    5482 00002760 018C0265             LDW     .D1T1   *A3,A3            ; |1236| 
    5483 00002764 02BC22E7  ||         LDW     .D2T2   *+SP(4),B5        ; |1236| 
    5484 00002768 0200AA2A- ||         MVKL    .S2     _IMG_FEATURE_DATA_OFFSET,B4 ; |1236| 
    5485                    
    5486 0000276c 033C42E7             LDW     .D2T2   *+SP(8),B6        ; |1236| 
    5487 00002770 0200006A- ||         MVKH    .S2     _IMG_FEATURE_DATA_OFFSET,B4 ; |1236| 
    5488                    
    5489 00002774 021002E6             LDW     .D2T2   *B4,B4            ; |1236| 
    5490 00002778 00002000             NOP             2
    5491                    
    5492 0000277c 0180A359             ZERO    .L1     A3                ; |1236| 
    5493 00002780 028CB07A  ||         ADD     .L2X    B5,A3,B5          ; |1236| 
    5494                    
    5495 00002784 0294C07B             ADD     .L2     B6,B5,B5          ; |1236| 
    5496 00002788 01C20068  ||         MVKH    .S1     0x84000000,A3     ; |1236| 
    5497                    
    5498 0000278c 02149A42             ADDAH   .D2     B5,B4,B4          ; |1236| 
    5499 00002790 021072FA             SUB     .L2X    A3,B4,B4          ; |1236| 
    5500 00002794 023C62F6             STW     .D2T2   B4,*+SP(12)       ; |1236| 
TMS320C6x COFF Assembler PC v5.1.0 Fri Mar 25 16:51:07 2011

Tools Copyright (c) 1996-2005 Texas Instruments Incorporated
C:\DOCUME~1\yqhe\LOCALS~1\Temp\TI2522                                PAGE  101

    5501 00002798 00002000             NOP             2
    5502                            .dwpsn  "VideoInput2.c",1240,2
    5503 0000279c 0FFB1010!            CALL    .S1     __divu            ; |1240| 
    5504 000027a0 023C62E4             LDW     .D2T1   *+SP(12),A4       ; |1240| 
    5505 000027a4 0201002A             MVK     .S2     0x200,B4          ; |1240| 
    5506 000027a8 01834162             ADDKPC  .S2     RL108,B3,2        ; |1240| 
    5507 000027ac           RL108:     ; CALL OCCURS {__divu}            ; |1240| 
    5508                    
    5509 000027ac 019029A1             SHRU    .S1     A4,1,A3           ; |1240| 
    5510 000027b0 02009E2A- ||         MVKL    .S2     _IMG_FEATURE_COUNT,B4 ; |1240| 
    5511                    
    5512 000027b4 018E0F59             AND     .L1     -16,A3,A3         ; |1240| 
    5513 000027b8 0200006A- ||         MVKH    .S2     _IMG_FEATURE_COUNT,B4 ; |1240| 
    5514                    
    5515 000027bc 019002F4             STW     .D2T1   A3,*B4            ; |1240| 
    5516 000027c0 00002000             NOP             2
    5517                            .dwpsn  "VideoInput2.c",1242,2
    5518 000027c4 02009E2A-            MVKL    .S2     _IMG_FEATURE_COUNT,B4 ; |1242| 
    5519 000027c8 0200006A-            MVKH    .S2     _IMG_FEATURE_COUNT,B4 ; |1242| 
    5520                    
    5521 000027cc 021002E7             LDW     .D2T2   *B4,B4            ; |1242| 
    5522 000027d0 0180AA28- ||         MVKL    .S1     _IMG_FEATURE_DATA_OFFSET,A3 ; |1242| 
    5523                    
    5524 000027d4 01800068-            MVKH    .S1     _IMG_FEATURE_DATA_OFFSET,A3 ; |1242| 
    5525 000027d8 020C0264             LDW     .D1T1   *A3,A4            ; |1242| 
    5526 000027dc 00000000             NOP             1
    5527 000027e0 0180A028-            MVKL    .S1     _IMG_FEATURE_STRUCT_TOTALSIZE,A3 ; |1242| 
    5528 000027e4 01800068-            MVKH    .S1     _IMG_FEATURE_STRUCT_TOTALSIZE,A3 ; |1242| 
    5529 000027e8 02112CA2             SHL     .S2     B4,9,B4           ; |1242| 
    5530 000027ec 02109078             ADD     .L1X    B4,A4,A4          ; |1242| 
    5531 000027f0 020C0274             STW     .D1T1   A4,*A3            ; |1242| 
    5532 000027f4 00002000             NOP             2
    5533                            .dwpsn  "VideoInput2.c",1244,2
    5534 000027f8 0200A028-            MVKL    .S1     _IMG_FEATURE_STRUCT_TOTALSIZE,A4 ; |1244| 
    5535 000027fc 0180A428-            MVKL    .S1     _IMG_FEATURE_LEFT_ADDR,A3 ; |1244| 
    5536 00002800 02000068-            MVKH    .S1     _IMG_FEATURE_STRUCT_TOTALSIZE,A4 ; |1244| 
    5537                    
    5538 00002804 02100265             LDW     .D1T1   *A4,A4            ; |1244| 
    5539 00002808 01800068- ||         MVKH    .S1     _IMG_FEATURE_LEFT_ADDR,A3 ; |1244| 
    5540                    
    5541 0000280c 018C0264             LDW     .D1T1   *A3,A3            ; |1244| 
    5542 00002810 00002000             NOP             2
    5543 00002814 0200A62A-            MVKL    .S2     _IMG_FEATURE_RIGHT_STRUCT_ADDR,B4 ; |1244| 
    5544 00002818 0200006A-            MVKH    .S2     _IMG_FEATURE_RIGHT_STRUCT_ADDR,B4 ; |1244| 
    5545 0000281c 018C8078             ADD     .L1     A4,A3,A3          ; |1244| 
    5546 00002820 019002F4             STW     .D2T1   A3,*B4            ; |1244| 
    5547 00002824 00002000             NOP             2
    5548                            .dwpsn  "VideoInput2.c",1245,2
    5549 00002828 0180A628-            MVKL    .S1     _IMG_FEATURE_RIGHT_STRUCT_ADDR,A3 ; |1245| 
    5550 0000282c 01800068-            MVKH    .S1     _IMG_FEATURE_RIGHT_STRUCT_ADDR,A3 ; |1245| 
    5551 00002830 0200AA28-            MVKL    .S1     _IMG_FEATURE_DATA_OFFSET,A4 ; |1245| 
    5552                    
    5553 00002834 018C0265             LDW     .D1T1   *A3,A3            ; |1245| 
    5554 00002838 02000068- ||         MVKH    .S1     _IMG_FEATURE_DATA_OFFSET,A4 ; |1245| 
    5555                    
TMS320C6x COFF Assembler PC v5.1.0 Fri Mar 25 16:51:07 2011

Tools Copyright (c) 1996-2005 Texas Instruments Incorporated
C:\DOCUME~1\yqhe\LOCALS~1\Temp\TI2522                                PAGE  102

    5556 0000283c 02100264             LDW     .D1T1   *A4,A4            ; |1245| 
    5557 00002840 00002000             NOP             2
    5558 00002844 0200A82A-            MVKL    .S2     _IMG_FEATURE_RIGHT_ADDR,B4 ; |1245| 
    5559 00002848 0200006A-            MVKH    .S2     _IMG_FEATURE_RIGHT_ADDR,B4 ; |1245| 
    5560 0000284c 018C8078             ADD     .L1     A4,A3,A3          ; |1245| 
    5561 00002850 019002F4             STW     .D2T1   A3,*B4            ; |1245| 
    5562 00002854 00002000             NOP             2
    5563                            .dwpsn  "VideoInput2.c",1247,2
    5564 00002858 0180A828-            MVKL    .S1     _IMG_FEATURE_RIGHT_ADDR,A3 ; |1247| 
    5565 0000285c 01800068-            MVKH    .S1     _IMG_FEATURE_RIGHT_ADDR,A3 ; |1247| 
    5566 00002860 0200A028-            MVKL    .S1     _IMG_FEATURE_STRUCT_TOTALSIZE,A4 ; |1247| 
    5567                    
    5568 00002864 018C0265             LDW     .D1T1   *A3,A3            ; |1247| 
    5569 00002868 02000068- ||         MVKH    .S1     _IMG_FEATURE_STRUCT_TOTALSIZE,A4 ; |1247| 
    5570                    
    5571 0000286c 02100264             LDW     .D1T1   *A4,A4            ; |1247| 
    5572 00002870 00002000             NOP             2
    5573 00002874 02009A2A-            MVKL    .S2     _IMG_ICON_START_ADDR,B4 ; |1247| 
    5574 00002878 0200006A-            MVKH    .S2     _IMG_ICON_START_ADDR,B4 ; |1247| 
    5575 0000287c 018C8078             ADD     .L1     A4,A3,A3          ; |1247| 
    5576 00002880 019002F4             STW     .D2T1   A3,*B4            ; |1247| 
    5577 00002884 00002000             NOP             2
    5578                            .dwpsn  "VideoInput2.c",1249,1
    5579 00002888 01BC92E6             LDW     .D2T2   *++SP(16),B3      ; |1249| 
    5580 0000288c 00006000             NOP             4
    5581                            .dwcfa  0xc0, 19
    5582                            .dwcfa  0x0e, 0
    5583 00002890 008CA362             RETNOP  .S2     B3,5              ; |1249| 
    5584                               ; BRANCH OCCURS {B3}              ; |1249| 
    5585                            .dwattr DW$289, DW_AT_end_file("VideoInput2.c")
    5586                            .dwattr DW$289, DW_AT_end_line(0x4e1)
    5587                            .dwattr DW$289, DW_AT_end_column(0x01)
    5588                            .dwendentry
    5589                            .dwendtag DW$289
    5590                    
    5591                    ;******************************************************************************
    5592                    ;* STRINGS                                                                    *
    5593                    ;******************************************************************************
    5594 00000000                   .sect   ".const"
    5595 00000000 0000002F  SL1:    .string "/VP1CAPTURE/A/1",0
         00000001 00000056 
         00000002 00000050 
         00000003 00000031 
         00000004 00000043 
         00000005 00000041 
         00000006 00000050 
         00000007 00000054 
         00000008 00000055 
         00000009 00000052 
         0000000a 00000045 
         0000000b 0000002F 
         0000000c 00000041 
         0000000d 0000002F 
         0000000e 00000031 
         0000000f 00000000 
TMS320C6x COFF Assembler PC v5.1.0 Fri Mar 25 16:51:07 2011

Tools Copyright (c) 1996-2005 Texas Instruments Incorporated
C:\DOCUME~1\yqhe\LOCALS~1\Temp\TI2522                                PAGE  103

    5596 00000010 0000002F  SL2:    .string "/VP0CAPTURE/A/0",0
         00000011 00000056 
         00000012 00000050 
         00000013 00000030 
         00000014 00000043 
         00000015 00000041 
         00000016 00000050 
         00000017 00000054 
         00000018 00000055 
         00000019 00000052 
         0000001a 00000045 
         0000001b 0000002F 
         0000001c 00000041 
         0000001d 0000002F 
         0000001e 00000030 
         0000001f 00000000 
    5597 00000020 00000049  SL3:    .string "Image Buffer allocation failed",10,0
         00000021 0000006D 
         00000022 00000061 
         00000023 00000067 
         00000024 00000065 
         00000025 00000020 
         00000026 00000042 
         00000027 00000075 
         00000028 00000066 
         00000029 00000066 
         0000002a 00000065 
         0000002b 00000072 
         0000002c 00000020 
         0000002d 00000061 
         0000002e 0000006C 
         0000002f 0000006C 
         00000030 0000006F 
         00000031 00000063 
         00000032 00000061 
         00000033 00000074 
         00000034 00000069 
         00000035 0000006F 
         00000036 0000006E 
         00000037 00000020 
         00000038 00000066 
         00000039 00000061 
         0000003a 00000069 
         0000003b 0000006C 
         0000003c 00000065 
         0000003d 00000064 
         0000003e 0000000A 
         0000003f 00000000 
    5598 00000040 0000004D  SL4:    .string "Memroy allocation failed",10,0
         00000041 00000065 
         00000042 0000006D 
         00000043 00000072 
         00000044 0000006F 
         00000045 00000079 
         00000046 00000020 
TMS320C6x COFF Assembler PC v5.1.0 Fri Mar 25 16:51:07 2011

Tools Copyright (c) 1996-2005 Texas Instruments Incorporated
C:\DOCUME~1\yqhe\LOCALS~1\Temp\TI2522                                PAGE  104

         00000047 00000061 
         00000048 0000006C 
         00000049 0000006C 
         0000004a 0000006F 
         0000004b 00000063 
         0000004c 00000061 
         0000004d 00000074 
         0000004e 00000069 
         0000004f 0000006F 
         00000050 0000006E 
         00000051 00000020 
         00000052 00000066 
         00000053 00000061 
         00000054 00000069 
         00000055 0000006C 
         00000056 00000065 
         00000057 00000064 
         00000058 0000000A 
         00000059 00000000 
    5599 0000005a 00000074  SL5:    .string "task image",10,0
         0000005b 00000061 
         0000005c 00000073 
         0000005d 0000006B 
         0000005e 00000020 
         0000005f 00000069 
         00000060 0000006D 
         00000061 00000061 
         00000062 00000067 
         00000063 00000065 
         00000064 0000000A 
         00000065 00000000 
    5600 00000066 00000025  SL6:    .string "%d frame active / %d frame discard",10,0
         00000067 00000064 
         00000068 00000020 
         00000069 00000066 
         0000006a 00000072 
         0000006b 00000061 
         0000006c 0000006D 
         0000006d 00000065 
         0000006e 00000020 
         0000006f 00000061 
         00000070 00000063 
         00000071 00000074 
         00000072 00000069 
         00000073 00000076 
         00000074 00000065 
         00000075 00000020 
         00000076 0000002F 
         00000077 00000020 
         00000078 00000025 
         00000079 00000064 
         0000007a 00000020 
         0000007b 00000066 
         0000007c 00000072 
         0000007d 00000061 
TMS320C6x COFF Assembler PC v5.1.0 Fri Mar 25 16:51:07 2011

Tools Copyright (c) 1996-2005 Texas Instruments Incorporated
C:\DOCUME~1\yqhe\LOCALS~1\Temp\TI2522                                PAGE  105

         0000007e 0000006D 
         0000007f 00000065 
         00000080 00000020 
         00000081 00000064 
         00000082 00000069 
         00000083 00000073 
         00000084 00000063 
         00000085 00000061 
         00000086 00000072 
         00000087 00000064 
         00000088 0000000A 
         00000089 00000000 
    5601 0000008a 00000031  SL7:    .string "16:51:06",0
         0000008b 00000036 
         0000008c 0000003A 
         0000008d 00000035 
         0000008e 00000031 
         0000008f 0000003A 
         00000090 00000030 
         00000091 00000036 
         00000092 00000000 
    5602 00000093 0000004D  SL8:    .string "Mar 25 2011",0
         00000094 00000061 
         00000095 00000072 
         00000096 00000020 
         00000097 00000032 
         00000098 00000035 
         00000099 00000020 
         0000009a 00000032 
         0000009b 00000030 
         0000009c 00000031 
         0000009d 00000031 
         0000009e 00000000 
    5603 0000009f 00000025  SL9:    .string "%s %s",0
         000000a0 00000073 
         000000a1 00000020 
         000000a2 00000025 
         000000a3 00000073 
         000000a4 00000000 
    5604 000000a5 00000030  SL10:   .string "0-OFF, but the control is ALSON, so turn on",10,0
         000000a6 0000002D 
         000000a7 0000004F 
         000000a8 00000046 
         000000a9 00000046 
         000000aa 0000002C 
         000000ab 00000020 
         000000ac 00000062 
         000000ad 00000075 
         000000ae 00000074 
         000000af 00000020 
         000000b0 00000074 
         000000b1 00000068 
         000000b2 00000065 
         000000b3 00000020 
         000000b4 00000063 
TMS320C6x COFF Assembler PC v5.1.0 Fri Mar 25 16:51:07 2011

Tools Copyright (c) 1996-2005 Texas Instruments Incorporated
C:\DOCUME~1\yqhe\LOCALS~1\Temp\TI2522                                PAGE  106

         000000b5 0000006F 
         000000b6 0000006E 
         000000b7 00000074 
         000000b8 00000072 
         000000b9 0000006F 
         000000ba 0000006C 
         000000bb 00000020 
         000000bc 00000069 
         000000bd 00000073 
         000000be 00000020 
         000000bf 00000041 
         000000c0 0000004C 
         000000c1 00000053 
         000000c2 0000004F 
         000000c3 0000004E 
         000000c4 0000002C 
         000000c5 00000020 
         000000c6 00000073 
         000000c7 0000006F 
         000000c8 00000020 
         000000c9 00000074 
         000000ca 00000075 
         000000cb 00000072 
         000000cc 0000006E 
         000000cd 00000020 
         000000ce 0000006F 
         000000cf 0000006E 
         000000d0 0000000A 
         000000d1 00000000 
    5605 000000d2 00000030  SL11:   .string "0-OFF, but the control is ALSON",10,0
         000000d3 0000002D 
         000000d4 0000004F 
         000000d5 00000046 
         000000d6 00000046 
         000000d7 0000002C 
         000000d8 00000020 
         000000d9 00000062 
         000000da 00000075 
         000000db 00000074 
         000000dc 00000020 
         000000dd 00000074 
         000000de 00000068 
         000000df 00000065 
         000000e0 00000020 
         000000e1 00000063 
         000000e2 0000006F 
         000000e3 0000006E 
         000000e4 00000074 
         000000e5 00000072 
         000000e6 0000006F 
         000000e7 0000006C 
         000000e8 00000020 
         000000e9 00000069 
         000000ea 00000073 
         000000eb 00000020 
TMS320C6x COFF Assembler PC v5.1.0 Fri Mar 25 16:51:07 2011

Tools Copyright (c) 1996-2005 Texas Instruments Incorporated
C:\DOCUME~1\yqhe\LOCALS~1\Temp\TI2522                                PAGE  107

         000000ec 00000041 
         000000ed 0000004C 
         000000ee 00000053 
         000000ef 0000004F 
         000000f0 0000004E 
         000000f1 0000000A 
         000000f2 00000000 
    5606                    ;******************************************************************************
    5607                    ;* UNDEFINED EXTERNAL REFERENCES                                              *
    5608                    ;******************************************************************************
    5609                            .global _CACHE_flush
    5610                            .global _CACHE_invL2
    5611                            .global _GPIO_pinWrite
    5612                            .global _MEM_alloc
    5613                            .global _SYS_abort
    5614                            .global _GIO_control
    5615                            .global _GIO_create
    5616                            .global _GIO_submit
    5617                            .global _sprintf
    5618                            .global _disp_init
    5619                            .global _disp_set_stamp
    5620                            .global _disp_rgb565
    5621                            .global _disp_draw_half_frame
    5622                            .global _disp_set_cb
    5623                            .global _dbg_output
    5624                            .global _dsp_newalg_data_init
    5625                            .global __tvp5150_i2c_addr
    5626                            .global __IIC_write
    5627                            .global __IIC_read
    5628                            .global _BUF_alloc
    5629                            .global _FillBmpHeader
    5630                            .global _fill_checksum
    5631                            .global _ProcessFlag
    5632                            .global _ProcessImg
    5633                            .global _CLK_getltime
    5634                            .global _CLK_getprd
    5635                            .global _CLK_countspms
    5636                            .global _memset
    5637                            .global _CalcCurFeatureNum
    5638                            .global _KNL_curtime
    5639                            .global _EMB_vCapParamsChan
    5640                            .global _EMBGPIO_handle
    5641                            .global _vdis_buf
    5642                            .global _BUF_imgPool
    5643                            .global _BUF_copyPool
    5644                            .global _BUF_capFrame
    5645                            .global _BUF_imgCap
    5646                            .global __divi
    5647                            .global _memcpy
    5648                            .global __divu
    5649                    
    5650                    ;******************************************************************************
    5651                    ;* TYPE INFORMATION                                                           *
    5652                    ;******************************************************************************
    5653                    DW$T$3  .dwtag  DW_TAG_pointer_type
TMS320C6x COFF Assembler PC v5.1.0 Fri Mar 25 16:51:07 2011

Tools Copyright (c) 1996-2005 Texas Instruments Incorporated
C:\DOCUME~1\yqhe\LOCALS~1\Temp\TI2522                                PAGE  108

    5654                            .dwattr DW$T$3, DW_AT_address_class(0x20)
    5655                    DW$T$26 .dwtag  DW_TAG_typedef, DW_AT_name("Ptr"), DW_AT_type(*DW$T$3)
    5656                            .dwattr DW$T$26, DW_AT_language(DW_LANG_C)
    5657                    
    5658                    DW$T$150        .dwtag  DW_TAG_subroutine_type, DW_AT_type(*DW$T$26)
    5659                            .dwattr DW$T$150, DW_AT_language(DW_LANG_C)
    5660                    DW$293  .dwtag  DW_TAG_formal_parameter, DW_AT_type(*DW$T$28)
    5661                    DW$294  .dwtag  DW_TAG_formal_parameter, DW_AT_type(*DW$T$27)
    5662                    DW$295  .dwtag  DW_TAG_formal_parameter, DW_AT_type(*DW$T$27)
    5663                            .dwendtag DW$T$150
    5664                    
    5665                    
    5666                    DW$T$154        .dwtag  DW_TAG_subroutine_type, DW_AT_type(*DW$T$26)
    5667                            .dwattr DW$T$154, DW_AT_language(DW_LANG_C)
    5668                    DW$296  .dwtag  DW_TAG_formal_parameter, DW_AT_type(*DW$T$153)
    5669                            .dwendtag DW$T$154
    5670                    
    5671                    
    5672                    DW$T$149        .dwtag  DW_TAG_subroutine_type, DW_AT_type(*DW$T$3)
    5673                            .dwattr DW$T$149, DW_AT_language(DW_LANG_C)
    5674                    DW$297  .dwtag  DW_TAG_formal_parameter, DW_AT_type(*DW$T$3)
    5675                    DW$298  .dwtag  DW_TAG_formal_parameter, DW_AT_type(*DW$T$148)
    5676                    DW$299  .dwtag  DW_TAG_formal_parameter, DW_AT_type(*DW$T$11)
    5677                            .dwendtag DW$T$149
    5678                    
    5679                    DW$T$148        .dwtag  DW_TAG_pointer_type, DW_AT_type(*DW$T$147)
    5680                            .dwattr DW$T$148, DW_AT_address_class(0x20)
    5681                    
    5682                    DW$T$158        .dwtag  DW_TAG_subroutine_type
    5683                            .dwattr DW$T$158, DW_AT_language(DW_LANG_C)
    5684                    DW$300  .dwtag  DW_TAG_formal_parameter, DW_AT_type(*DW$T$157)
    5685                    DW$301  .dwtag  DW_TAG_formal_parameter, DW_AT_type(*DW$T$3)
    5686                    DW$302  .dwtag  DW_TAG_formal_parameter, DW_AT_type(*DW$T$19)
    5687                            .dwendtag DW$T$158
    5688                    
    5689                    
    5690                    DW$T$162        .dwtag  DW_TAG_subroutine_type
    5691                            .dwattr DW$T$162, DW_AT_language(DW_LANG_C)
    5692                    DW$303  .dwtag  DW_TAG_formal_parameter, DW_AT_type(*DW$T$3)
    5693                    DW$304  .dwtag  DW_TAG_formal_parameter, DW_AT_type(*DW$T$19)
    5694                    DW$305  .dwtag  DW_TAG_formal_parameter, DW_AT_type(*DW$T$161)
    5695                            .dwendtag DW$T$162
    5696                    
    5697                    
    5698                    DW$T$166        .dwtag  DW_TAG_subroutine_type
    5699                            .dwattr DW$T$166, DW_AT_language(DW_LANG_C)
    5700                    DW$306  .dwtag  DW_TAG_formal_parameter, DW_AT_type(*DW$T$165)
    5701                    DW$307  .dwtag  DW_TAG_formal_parameter, DW_AT_type(*DW$T$19)
    5702                    DW$308  .dwtag  DW_TAG_formal_parameter, DW_AT_type(*DW$T$19)
    5703                            .dwendtag DW$T$166
    5704                    
    5705                    
    5706                    DW$T$168        .dwtag  DW_TAG_subroutine_type
    5707                            .dwattr DW$T$168, DW_AT_language(DW_LANG_C)
    5708                    DW$309  .dwtag  DW_TAG_formal_parameter, DW_AT_type(*DW$T$43)
TMS320C6x COFF Assembler PC v5.1.0 Fri Mar 25 16:51:07 2011

Tools Copyright (c) 1996-2005 Texas Instruments Incorporated
C:\DOCUME~1\yqhe\LOCALS~1\Temp\TI2522                                PAGE  109

    5709                    DW$310  .dwtag  DW_TAG_unspecified_parameters
    5710                            .dwendtag DW$T$168
    5711                    
    5712                    
    5713                    DW$T$170        .dwtag  DW_TAG_subroutine_type
    5714                            .dwattr DW$T$170, DW_AT_language(DW_LANG_C)
    5715                    
    5716                    DW$T$173        .dwtag  DW_TAG_subroutine_type
    5717                            .dwattr DW$T$173, DW_AT_language(DW_LANG_C)
    5718                    DW$311  .dwtag  DW_TAG_formal_parameter, DW_AT_type(*DW$T$172)
    5719                    DW$312  .dwtag  DW_TAG_formal_parameter, DW_AT_type(*DW$T$70)
    5720                    DW$313  .dwtag  DW_TAG_formal_parameter, DW_AT_type(*DW$T$10)
    5721                    DW$314  .dwtag  DW_TAG_formal_parameter, DW_AT_type(*DW$T$10)
    5722                    DW$315  .dwtag  DW_TAG_formal_parameter, DW_AT_type(*DW$T$10)
    5723                    DW$316  .dwtag  DW_TAG_formal_parameter, DW_AT_type(*DW$T$10)
    5724                            .dwendtag DW$T$173
    5725                    
    5726                    
    5727                    DW$T$175        .dwtag  DW_TAG_subroutine_type
    5728                            .dwattr DW$T$175, DW_AT_language(DW_LANG_C)
    5729                    
    5730                    DW$T$177        .dwtag  DW_TAG_subroutine_type
    5731                            .dwattr DW$T$177, DW_AT_language(DW_LANG_C)
    5732                    DW$317  .dwtag  DW_TAG_formal_parameter, DW_AT_type(*DW$T$42)
    5733                    DW$318  .dwtag  DW_TAG_formal_parameter, DW_AT_type(*DW$T$10)
    5734                            .dwendtag DW$T$177
    5735                    
    5736                    
    5737                    DW$T$181        .dwtag  DW_TAG_subroutine_type
    5738                            .dwattr DW$T$181, DW_AT_language(DW_LANG_C)
    5739                    DW$319  .dwtag  DW_TAG_formal_parameter, DW_AT_type(*DW$T$180)
    5740                    DW$320  .dwtag  DW_TAG_formal_parameter, DW_AT_type(*DW$T$10)
    5741                            .dwendtag DW$T$181
    5742                    
    5743                    
    5744                    DW$T$182        .dwtag  DW_TAG_subroutine_type
    5745                            .dwattr DW$T$182, DW_AT_language(DW_LANG_C)
    5746                    DW$321  .dwtag  DW_TAG_formal_parameter, DW_AT_type(*DW$T$180)
    5747                            .dwendtag DW$T$182
    5748                    
    5749                    
    5750                    DW$T$184        .dwtag  DW_TAG_subroutine_type
    5751                            .dwattr DW$T$184, DW_AT_language(DW_LANG_C)
    5752                    DW$322  .dwtag  DW_TAG_formal_parameter, DW_AT_type(*DW$T$183)
    5753                    DW$323  .dwtag  DW_TAG_formal_parameter, DW_AT_type(*DW$T$10)
    5754                            .dwendtag DW$T$184
    5755                    
    5756                    
    5757                    DW$T$188        .dwtag  DW_TAG_subroutine_type
    5758                            .dwattr DW$T$188, DW_AT_language(DW_LANG_C)
    5759                    DW$324  .dwtag  DW_TAG_formal_parameter, DW_AT_type(*DW$T$187)
    5760                            .dwendtag DW$T$188
    5761                    
    5762                    
    5763                    DW$T$190        .dwtag  DW_TAG_subroutine_type
TMS320C6x COFF Assembler PC v5.1.0 Fri Mar 25 16:51:07 2011

Tools Copyright (c) 1996-2005 Texas Instruments Incorporated
C:\DOCUME~1\yqhe\LOCALS~1\Temp\TI2522                                PAGE  110

    5764                            .dwattr DW$T$190, DW_AT_language(DW_LANG_C)
    5765                    DW$325  .dwtag  DW_TAG_formal_parameter, DW_AT_type(*DW$T$74)
    5766                            .dwendtag DW$T$190
    5767                    
    5768                    
    5769                    DW$T$192        .dwtag  DW_TAG_subroutine_type
    5770                            .dwattr DW$T$192, DW_AT_language(DW_LANG_C)
    5771                    DW$326  .dwtag  DW_TAG_formal_parameter, DW_AT_type(*DW$T$76)
    5772                            .dwendtag DW$T$192
    5773                    
    5774                    
    5775                    DW$T$194        .dwtag  DW_TAG_subroutine_type
    5776                            .dwattr DW$T$194, DW_AT_language(DW_LANG_C)
    5777                    DW$327  .dwtag  DW_TAG_formal_parameter, DW_AT_type(*DW$T$10)
    5778                            .dwendtag DW$T$194
    5779                    
    5780                    
    5781                    DW$T$196        .dwtag  DW_TAG_subroutine_type
    5782                            .dwattr DW$T$196, DW_AT_language(DW_LANG_C)
    5783                    DW$328  .dwtag  DW_TAG_formal_parameter, DW_AT_type(*DW$T$19)
    5784                            .dwendtag DW$T$196
    5785                    
    5786                    DW$T$70 .dwtag  DW_TAG_pointer_type, DW_AT_type(*DW$T$6)
    5787                            .dwattr DW$T$70, DW_AT_address_class(0x20)
    5788                    
    5789                    DW$T$198        .dwtag  DW_TAG_array_type, DW_AT_type(*DW$T$6)
    5790                            .dwattr DW$T$198, DW_AT_language(DW_LANG_C)
    5791                            .dwattr DW$T$198, DW_AT_byte_size(0x04)
    5792                    DW$329  .dwtag  DW_TAG_subrange_type
    5793                            .dwattr DW$329, DW_AT_upper_bound(0x03)
    5794                            .dwendtag DW$T$198
    5795                    
    5796                    DW$T$183        .dwtag  DW_TAG_pointer_type, DW_AT_type(*DW$T$80)
    5797                            .dwattr DW$T$183, DW_AT_address_class(0x20)
    5798                    DW$T$172        .dwtag  DW_TAG_pointer_type, DW_AT_type(*DW$T$9)
    5799                            .dwattr DW$T$172, DW_AT_address_class(0x20)
    5800                    DW$T$200        .dwtag  DW_TAG_restrict_type
    5801                            .dwattr DW$T$200, DW_AT_type(*DW$T$172)
    5802                    DW$T$10 .dwtag  DW_TAG_base_type, DW_AT_name("int")
    5803                            .dwattr DW$T$10, DW_AT_encoding(DW_ATE_signed)
    5804                            .dwattr DW$T$10, DW_AT_byte_size(0x04)
    5805                    DW$T$28 .dwtag  DW_TAG_typedef, DW_AT_name("Int"), DW_AT_type(*DW$T$10)
    5806                            .dwattr DW$T$28, DW_AT_language(DW_LANG_C)
    5807                    
    5808                    DW$T$203        .dwtag  DW_TAG_subroutine_type, DW_AT_type(*DW$T$28)
    5809                            .dwattr DW$T$203, DW_AT_language(DW_LANG_C)
    5810                    DW$330  .dwtag  DW_TAG_formal_parameter, DW_AT_type(*DW$T$202)
    5811                    DW$331  .dwtag  DW_TAG_formal_parameter, DW_AT_type(*DW$T$27)
    5812                    DW$332  .dwtag  DW_TAG_formal_parameter, DW_AT_type(*DW$T$26)
    5813                            .dwendtag DW$T$203
    5814                    
    5815                    DW$T$205        .dwtag  DW_TAG_pointer_type, DW_AT_type(*DW$T$28)
    5816                            .dwattr DW$T$205, DW_AT_address_class(0x20)
    5817                    
    5818                    DW$T$209        .dwtag  DW_TAG_subroutine_type, DW_AT_type(*DW$T$28)
TMS320C6x COFF Assembler PC v5.1.0 Fri Mar 25 16:51:07 2011

Tools Copyright (c) 1996-2005 Texas Instruments Incorporated
C:\DOCUME~1\yqhe\LOCALS~1\Temp\TI2522                                PAGE  111

    5819                            .dwattr DW$T$209, DW_AT_language(DW_LANG_C)
    5820                    DW$333  .dwtag  DW_TAG_formal_parameter, DW_AT_type(*DW$T$202)
    5821                    DW$334  .dwtag  DW_TAG_formal_parameter, DW_AT_type(*DW$T$27)
    5822                    DW$335  .dwtag  DW_TAG_formal_parameter, DW_AT_type(*DW$T$26)
    5823                    DW$336  .dwtag  DW_TAG_formal_parameter, DW_AT_type(*DW$T$206)
    5824                    DW$337  .dwtag  DW_TAG_formal_parameter, DW_AT_type(*DW$T$208)
    5825                            .dwendtag DW$T$209
    5826                    
    5827                    
    5828                    DW$T$213        .dwtag  DW_TAG_subroutine_type, DW_AT_type(*DW$T$10)
    5829                            .dwattr DW$T$213, DW_AT_language(DW_LANG_C)
    5830                    DW$338  .dwtag  DW_TAG_formal_parameter, DW_AT_type(*DW$T$42)
    5831                    DW$339  .dwtag  DW_TAG_formal_parameter, DW_AT_type(*DW$T$212)
    5832                    DW$340  .dwtag  DW_TAG_unspecified_parameters
    5833                            .dwendtag DW$T$213
    5834                    
    5835                    
    5836                    DW$T$215        .dwtag  DW_TAG_subroutine_type, DW_AT_type(*DW$T$10)
    5837                            .dwattr DW$T$215, DW_AT_language(DW_LANG_C)
    5838                    DW$341  .dwtag  DW_TAG_formal_parameter, DW_AT_type(*DW$T$70)
    5839                    DW$342  .dwtag  DW_TAG_formal_parameter, DW_AT_type(*DW$T$70)
    5840                    DW$343  .dwtag  DW_TAG_formal_parameter, DW_AT_type(*DW$T$200)
    5841                    DW$344  .dwtag  DW_TAG_formal_parameter, DW_AT_type(*DW$T$10)
    5842                            .dwendtag DW$T$215
    5843                    
    5844                    
    5845                    DW$T$217        .dwtag  DW_TAG_subroutine_type, DW_AT_type(*DW$T$10)
    5846                            .dwattr DW$T$217, DW_AT_language(DW_LANG_C)
    5847                    DW$345  .dwtag  DW_TAG_formal_parameter, DW_AT_type(*DW$T$200)
    5848                            .dwendtag DW$T$217
    5849                    
    5850                    
    5851                    DW$T$219        .dwtag  DW_TAG_subroutine_type, DW_AT_type(*DW$T$10)
    5852                            .dwattr DW$T$219, DW_AT_language(DW_LANG_C)
    5853                    DW$346  .dwtag  DW_TAG_formal_parameter, DW_AT_type(*DW$T$10)
    5854                    DW$347  .dwtag  DW_TAG_formal_parameter, DW_AT_type(*DW$T$10)
    5855                    DW$348  .dwtag  DW_TAG_formal_parameter, DW_AT_type(*DW$T$10)
    5856                    DW$349  .dwtag  DW_TAG_formal_parameter, DW_AT_type(*DW$T$10)
    5857                    DW$350  .dwtag  DW_TAG_formal_parameter, DW_AT_type(*DW$T$10)
    5858                    DW$351  .dwtag  DW_TAG_formal_parameter, DW_AT_type(*DW$T$10)
    5859                    DW$352  .dwtag  DW_TAG_formal_parameter, DW_AT_type(*DW$T$10)
    5860                            .dwendtag DW$T$219
    5861                    
    5862                    
    5863                    DW$T$221        .dwtag  DW_TAG_subroutine_type, DW_AT_type(*DW$T$10)
    5864                            .dwattr DW$T$221, DW_AT_language(DW_LANG_C)
    5865                    DW$353  .dwtag  DW_TAG_formal_parameter, DW_AT_type(*DW$T$42)
    5866                    DW$354  .dwtag  DW_TAG_unspecified_parameters
    5867                            .dwendtag DW$T$221
    5868                    
    5869                    
    5870                    DW$T$223        .dwtag  DW_TAG_subroutine_type, DW_AT_type(*DW$T$10)
    5871                            .dwattr DW$T$223, DW_AT_language(DW_LANG_C)
    5872                    
    5873                    DW$T$225        .dwtag  DW_TAG_subroutine_type, DW_AT_type(*DW$T$10)
TMS320C6x COFF Assembler PC v5.1.0 Fri Mar 25 16:51:07 2011

Tools Copyright (c) 1996-2005 Texas Instruments Incorporated
C:\DOCUME~1\yqhe\LOCALS~1\Temp\TI2522                                PAGE  112

    5874                            .dwattr DW$T$225, DW_AT_language(DW_LANG_C)
    5875                    DW$355  .dwtag  DW_TAG_formal_parameter, DW_AT_type(*DW$T$19)
    5876                    DW$356  .dwtag  DW_TAG_formal_parameter, DW_AT_type(*DW$T$10)
    5877                    DW$357  .dwtag  DW_TAG_formal_parameter, DW_AT_type(*DW$T$10)
    5878                            .dwendtag DW$T$225
    5879                    
    5880                    
    5881                    DW$T$227        .dwtag  DW_TAG_subroutine_type, DW_AT_type(*DW$T$10)
    5882                            .dwattr DW$T$227, DW_AT_language(DW_LANG_C)
    5883                    DW$358  .dwtag  DW_TAG_formal_parameter, DW_AT_type(*DW$T$187)
    5884                            .dwendtag DW$T$227
    5885                    
    5886                    DW$T$11 .dwtag  DW_TAG_base_type, DW_AT_name("unsigned int")
    5887                            .dwattr DW$T$11, DW_AT_encoding(DW_ATE_unsigned)
    5888                            .dwattr DW$T$11, DW_AT_byte_size(0x04)
    5889                    DW$T$19 .dwtag  DW_TAG_typedef, DW_AT_name("Uint32"), DW_AT_type(*DW$T$11)
    5890                            .dwattr DW$T$19, DW_AT_language(DW_LANG_C)
    5891                    DW$T$27 .dwtag  DW_TAG_typedef, DW_AT_name("Uns"), DW_AT_type(*DW$T$11)
    5892                            .dwattr DW$T$27, DW_AT_language(DW_LANG_C)
    5893                    DW$T$206        .dwtag  DW_TAG_pointer_type, DW_AT_type(*DW$T$27)
    5894                            .dwattr DW$T$206, DW_AT_address_class(0x20)
    5895                    DW$T$231        .dwtag  DW_TAG_volatile_type
    5896                            .dwattr DW$T$231, DW_AT_type(*DW$T$27)
    5897                    DW$T$232        .dwtag  DW_TAG_typedef, DW_AT_name("LgUns"), DW_AT_type(*DW$T$11)
    5898                            .dwattr DW$T$232, DW_AT_language(DW_LANG_C)
    5899                    DW$T$165        .dwtag  DW_TAG_typedef, DW_AT_name("GPIO_Handle"), DW_AT_type(*DW$T$164)
    5900                            .dwattr DW$T$165, DW_AT_language(DW_LANG_C)
    5901                    DW$T$42 .dwtag  DW_TAG_pointer_type, DW_AT_type(*DW$T$41)
    5902                            .dwattr DW$T$42, DW_AT_address_class(0x20)
    5903                    DW$T$43 .dwtag  DW_TAG_typedef, DW_AT_name("String"), DW_AT_type(*DW$T$42)
    5904                            .dwattr DW$T$43, DW_AT_language(DW_LANG_C)
    5905                    DW$T$212        .dwtag  DW_TAG_pointer_type, DW_AT_type(*DW$T$211)
    5906                            .dwattr DW$T$212, DW_AT_address_class(0x20)
    5907                    DW$T$202        .dwtag  DW_TAG_typedef, DW_AT_name("GIO_Handle"), DW_AT_type(*DW$T$201)
    5908                            .dwattr DW$T$202, DW_AT_language(DW_LANG_C)
    5909                    
    5910                    DW$T$238        .dwtag  DW_TAG_subroutine_type, DW_AT_type(*DW$T$202)
    5911                            .dwattr DW$T$238, DW_AT_language(DW_LANG_C)
    5912                    DW$359  .dwtag  DW_TAG_formal_parameter, DW_AT_type(*DW$T$43)
    5913                    DW$360  .dwtag  DW_TAG_formal_parameter, DW_AT_type(*DW$T$28)
    5914                    DW$361  .dwtag  DW_TAG_formal_parameter, DW_AT_type(*DW$T$205)
    5915                    DW$362  .dwtag  DW_TAG_formal_parameter, DW_AT_type(*DW$T$26)
    5916                    DW$363  .dwtag  DW_TAG_formal_parameter, DW_AT_type(*DW$T$237)
    5917                            .dwendtag DW$T$238
    5918                    
    5919                    DW$T$240        .dwtag  DW_TAG_typedef, DW_AT_name("FVID_Handle"), DW_AT_type(*DW$T$202)
    5920                            .dwattr DW$T$240, DW_AT_language(DW_LANG_C)
    5921                    DW$T$236        .dwtag  DW_TAG_typedef, DW_AT_name("GIO_Attrs"), DW_AT_type(*DW$T$62)
    5922                            .dwattr DW$T$236, DW_AT_language(DW_LANG_C)
    5923                    DW$T$237        .dwtag  DW_TAG_pointer_type, DW_AT_type(*DW$T$236)
    5924                            .dwattr DW$T$237, DW_AT_address_class(0x20)
    5925                    DW$T$208        .dwtag  DW_TAG_pointer_type, DW_AT_type(*DW$T$207)
    5926                            .dwattr DW$T$208, DW_AT_address_class(0x20)
    5927                    DW$T$180        .dwtag  DW_TAG_typedef, DW_AT_name("I2C_Handle"), DW_AT_type(*DW$T$179)
    5928                            .dwattr DW$T$180, DW_AT_language(DW_LANG_C)
TMS320C6x COFF Assembler PC v5.1.0 Fri Mar 25 16:51:07 2011

Tools Copyright (c) 1996-2005 Texas Instruments Incorporated
C:\DOCUME~1\yqhe\LOCALS~1\Temp\TI2522                                PAGE  113

    5929                    DW$T$153        .dwtag  DW_TAG_typedef, DW_AT_name("BUF_Handle"), DW_AT_type(*DW$T$152)
    5930                            .dwattr DW$T$153, DW_AT_language(DW_LANG_C)
    5931                    DW$T$241        .dwtag  DW_TAG_typedef, DW_AT_name("BUF_Obj"), DW_AT_type(*DW$T$69)
    5932                            .dwattr DW$T$241, DW_AT_language(DW_LANG_C)
    5933                    DW$T$74 .dwtag  DW_TAG_typedef, DW_AT_name("IMAGE_MSG"), DW_AT_type(*DW$T$73)
    5934                            .dwattr DW$T$74, DW_AT_language(DW_LANG_C)
    5935                    DW$T$76 .dwtag  DW_TAG_typedef, DW_AT_name("RESULT_MSG"), DW_AT_type(*DW$T$75)
    5936                            .dwattr DW$T$76, DW_AT_language(DW_LANG_C)
    5937                    DW$T$186        .dwtag  DW_TAG_typedef, DW_AT_name("dsp_procimg_t"), DW_AT_type(*DW$T$79)
    5938                            .dwattr DW$T$186, DW_AT_language(DW_LANG_C)
    5939                    DW$T$187        .dwtag  DW_TAG_pointer_type, DW_AT_type(*DW$T$186)
    5940                            .dwattr DW$T$187, DW_AT_address_class(0x20)
    5941                    DW$T$242        .dwtag  DW_TAG_typedef, DW_AT_name("VPORTCAP_Params"), DW_AT_type(*DW$T$81)
    5942                            .dwattr DW$T$242, DW_AT_language(DW_LANG_C)
    5943                    DW$T$245        .dwtag  DW_TAG_pointer_type, DW_AT_type(*DW$T$244)
    5944                            .dwattr DW$T$245, DW_AT_address_class(0x20)
    5945                    DW$T$108        .dwtag  DW_TAG_pointer_type, DW_AT_type(*DW$T$97)
    5946                            .dwattr DW$T$108, DW_AT_address_class(0x20)
    5947                    DW$T$248        .dwtag  DW_TAG_pointer_type, DW_AT_type(*DW$T$247)
    5948                            .dwattr DW$T$248, DW_AT_address_class(0x20)
    5949                    DW$T$249        .dwtag  DW_TAG_typedef, DW_AT_name("dsp_reg_t"), DW_AT_type(*DW$T$144)
    5950                            .dwattr DW$T$249, DW_AT_language(DW_LANG_C)
    5951                    DW$T$252        .dwtag  DW_TAG_typedef, DW_AT_name("MATCH_MSG"), DW_AT_type(*DW$T$251)
    5952                            .dwattr DW$T$252, DW_AT_language(DW_LANG_C)
    5953                    DW$T$254        .dwtag  DW_TAG_pointer_type, DW_AT_type(*DW$T$253)
    5954                            .dwattr DW$T$254, DW_AT_address_class(0x20)
    5955                    DW$T$157        .dwtag  DW_TAG_typedef, DW_AT_name("CACHE_Region"), DW_AT_type(*DW$T$156)
    5956                            .dwattr DW$T$157, DW_AT_language(DW_LANG_C)
    5957                    DW$T$161        .dwtag  DW_TAG_typedef, DW_AT_name("CACHE_Wait"), DW_AT_type(*DW$T$160)
    5958                            .dwattr DW$T$161, DW_AT_language(DW_LANG_C)
    5959                    DW$T$147        .dwtag  DW_TAG_const_type
    5960                    DW$T$6  .dwtag  DW_TAG_base_type, DW_AT_name("unsigned char")
    5961                            .dwattr DW$T$6, DW_AT_encoding(DW_ATE_unsigned_char)
    5962                            .dwattr DW$T$6, DW_AT_byte_size(0x01)
    5963                    DW$T$9  .dwtag  DW_TAG_base_type, DW_AT_name("unsigned short")
    5964                            .dwattr DW$T$9, DW_AT_encoding(DW_ATE_unsigned)
    5965                            .dwattr DW$T$9, DW_AT_byte_size(0x02)
    5966                    DW$T$80 .dwtag  DW_TAG_typedef, DW_AT_name("Uint16"), DW_AT_type(*DW$T$9)
    5967                            .dwattr DW$T$80, DW_AT_language(DW_LANG_C)
    5968                    DW$T$164        .dwtag  DW_TAG_pointer_type, DW_AT_type(*DW$T$22)
    5969                            .dwattr DW$T$164, DW_AT_address_class(0x20)
    5970                    DW$T$41 .dwtag  DW_TAG_base_type, DW_AT_name("signed char")
    5971                            .dwattr DW$T$41, DW_AT_encoding(DW_ATE_signed_char)
    5972                            .dwattr DW$T$41, DW_AT_byte_size(0x01)
    5973                    DW$T$211        .dwtag  DW_TAG_const_type
    5974                            .dwattr DW$T$211, DW_AT_type(*DW$T$41)
    5975                    DW$T$201        .dwtag  DW_TAG_pointer_type, DW_AT_type(*DW$T$61)
    5976                            .dwattr DW$T$201, DW_AT_address_class(0x20)
    5977                    
    5978                    DW$T$62 .dwtag  DW_TAG_structure_type
    5979                            .dwattr DW$T$62, DW_AT_name("GIO_Attrs")
    5980                            .dwattr DW$T$62, DW_AT_byte_size(0x08)
    5981                    DW$364  .dwtag  DW_TAG_member, DW_AT_type(*DW$T$28)
    5982                            .dwattr DW$364, DW_AT_name("nPackets"), DW_AT_symbol_name("_nPackets")
    5983                            .dwattr DW$364, DW_AT_data_member_location[DW_OP_plus_uconst 0x0]
TMS320C6x COFF Assembler PC v5.1.0 Fri Mar 25 16:51:07 2011

Tools Copyright (c) 1996-2005 Texas Instruments Incorporated
C:\DOCUME~1\yqhe\LOCALS~1\Temp\TI2522                                PAGE  114

    5984                            .dwattr DW$364, DW_AT_accessibility(DW_ACCESS_public)
    5985                    DW$365  .dwtag  DW_TAG_member, DW_AT_type(*DW$T$27)
    5986                            .dwattr DW$365, DW_AT_name("timeout"), DW_AT_symbol_name("_timeout")
    5987                            .dwattr DW$365, DW_AT_data_member_location[DW_OP_plus_uconst 0x4]
    5988                            .dwattr DW$365, DW_AT_accessibility(DW_ACCESS_public)
    5989                            .dwendtag DW$T$62
    5990                    
    5991                    DW$T$207        .dwtag  DW_TAG_typedef, DW_AT_name("GIO_AppCallback"), DW_AT_type(*DW$T$66)
    5992                            .dwattr DW$T$207, DW_AT_language(DW_LANG_C)
    5993                    DW$T$179        .dwtag  DW_TAG_pointer_type, DW_AT_type(*DW$T$67)
    5994                            .dwattr DW$T$179, DW_AT_address_class(0x20)
    5995                    
    5996                    DW$T$69 .dwtag  DW_TAG_structure_type
    5997                            .dwattr DW$T$69, DW_AT_name("BUF_Obj")
    5998                            .dwattr DW$T$69, DW_AT_byte_size(0x1c)
    5999                    DW$366  .dwtag  DW_TAG_member, DW_AT_type(*DW$T$26)
    6000                            .dwattr DW$366, DW_AT_name("startaddr"), DW_AT_symbol_name("_startaddr")
    6001                            .dwattr DW$366, DW_AT_data_member_location[DW_OP_plus_uconst 0x0]
    6002                            .dwattr DW$366, DW_AT_accessibility(DW_ACCESS_public)
    6003                    DW$367  .dwtag  DW_TAG_member, DW_AT_type(*DW$T$68)
    6004                            .dwattr DW$367, DW_AT_name("size"), DW_AT_symbol_name("_size")
    6005                            .dwattr DW$367, DW_AT_data_member_location[DW_OP_plus_uconst 0x4]
    6006                            .dwattr DW$367, DW_AT_accessibility(DW_ACCESS_public)
    6007                    DW$368  .dwtag  DW_TAG_member, DW_AT_type(*DW$T$68)
    6008                            .dwattr DW$368, DW_AT_name("postalignsize"), DW_AT_symbol_name("_postalignsize")
    6009                            .dwattr DW$368, DW_AT_data_member_location[DW_OP_plus_uconst 0x8]
    6010                            .dwattr DW$368, DW_AT_accessibility(DW_ACCESS_public)
    6011                    DW$369  .dwtag  DW_TAG_member, DW_AT_type(*DW$T$26)
    6012                            .dwattr DW$369, DW_AT_name("nextfree"), DW_AT_symbol_name("_nextfree")
    6013                            .dwattr DW$369, DW_AT_data_member_location[DW_OP_plus_uconst 0xc]
    6014                            .dwattr DW$369, DW_AT_accessibility(DW_ACCESS_public)
    6015                    DW$370  .dwtag  DW_TAG_member, DW_AT_type(*DW$T$27)
    6016                            .dwattr DW$370, DW_AT_name("totalbuffers"), DW_AT_symbol_name("_totalbuffers")
    6017                            .dwattr DW$370, DW_AT_data_member_location[DW_OP_plus_uconst 0x10]
    6018                            .dwattr DW$370, DW_AT_accessibility(DW_ACCESS_public)
    6019                    DW$371  .dwtag  DW_TAG_member, DW_AT_type(*DW$T$27)
    6020                            .dwattr DW$371, DW_AT_name("freebuffers"), DW_AT_symbol_name("_freebuffers")
    6021                            .dwattr DW$371, DW_AT_data_member_location[DW_OP_plus_uconst 0x14]
    6022                            .dwattr DW$371, DW_AT_accessibility(DW_ACCESS_public)
    6023                    DW$372  .dwtag  DW_TAG_member, DW_AT_type(*DW$T$28)
    6024                            .dwattr DW$372, DW_AT_name("segid"), DW_AT_symbol_name("_segid")
    6025                            .dwattr DW$372, DW_AT_data_member_location[DW_OP_plus_uconst 0x18]
    6026                            .dwattr DW$372, DW_AT_accessibility(DW_ACCESS_public)
    6027                            .dwendtag DW$T$69
    6028                    
    6029                    DW$T$152        .dwtag  DW_TAG_pointer_type, DW_AT_type(*DW$T$69)
    6030                            .dwattr DW$T$152, DW_AT_address_class(0x20)
    6031                    DW$T$73 .dwtag  DW_TAG_pointer_type, DW_AT_type(*DW$T$71)
    6032                            .dwattr DW$T$73, DW_AT_address_class(0x20)
    6033                    DW$T$75 .dwtag  DW_TAG_pointer_type, DW_AT_type(*DW$T$72)
    6034                            .dwattr DW$T$75, DW_AT_address_class(0x20)
    6035                    
    6036                    DW$T$79 .dwtag  DW_TAG_structure_type
    6037                            .dwattr DW$T$79, DW_AT_name("dsp_procimg_t")
    6038                            .dwattr DW$T$79, DW_AT_byte_size(0x1c)
TMS320C6x COFF Assembler PC v5.1.0 Fri Mar 25 16:51:07 2011

Tools Copyright (c) 1996-2005 Texas Instruments Incorporated
C:\DOCUME~1\yqhe\LOCALS~1\Temp\TI2522                                PAGE  115

    6039                    DW$373  .dwtag  DW_TAG_member, DW_AT_type(*DW$T$74)
    6040                            .dwattr DW$373, DW_AT_name("img_msg"), DW_AT_symbol_name("_img_msg")
    6041                            .dwattr DW$373, DW_AT_data_member_location[DW_OP_plus_uconst 0x0]
    6042                            .dwattr DW$373, DW_AT_accessibility(DW_ACCESS_public)
    6043                    DW$374  .dwtag  DW_TAG_member, DW_AT_type(*DW$T$76)
    6044                            .dwattr DW$374, DW_AT_name("result_msg"), DW_AT_symbol_name("_result_msg")
    6045                            .dwattr DW$374, DW_AT_data_member_location[DW_OP_plus_uconst 0x4]
    6046                            .dwattr DW$374, DW_AT_accessibility(DW_ACCESS_public)
    6047                    DW$375  .dwtag  DW_TAG_member, DW_AT_type(*DW$T$27)
    6048                            .dwattr DW$375, DW_AT_name("last_flag"), DW_AT_symbol_name("_last_flag")
    6049                            .dwattr DW$375, DW_AT_data_member_location[DW_OP_plus_uconst 0x8]
    6050                            .dwattr DW$375, DW_AT_accessibility(DW_ACCESS_public)
    6051                    DW$376  .dwtag  DW_TAG_member, DW_AT_type(*DW$T$27)
    6052                            .dwattr DW$376, DW_AT_name("img_grab_count"), DW_AT_symbol_name("_img_grab_count")
    6053                            .dwattr DW$376, DW_AT_data_member_location[DW_OP_plus_uconst 0xc]
    6054                            .dwattr DW$376, DW_AT_accessibility(DW_ACCESS_public)
    6055                    DW$377  .dwtag  DW_TAG_member, DW_AT_type(*DW$T$78)
    6056                            .dwattr DW$377, DW_AT_name("begin_quality"), DW_AT_symbol_name("_begin_quality")
    6057                            .dwattr DW$377, DW_AT_data_member_location[DW_OP_plus_uconst 0x10]
    6058                            .dwattr DW$377, DW_AT_accessibility(DW_ACCESS_public)
    6059                    DW$378  .dwtag  DW_TAG_member, DW_AT_type(*DW$T$10)
    6060                            .dwattr DW$378, DW_AT_name("need_eye"), DW_AT_symbol_name("_need_eye")
    6061                            .dwattr DW$378, DW_AT_data_member_location[DW_OP_plus_uconst 0x14]
    6062                            .dwattr DW$378, DW_AT_accessibility(DW_ACCESS_public)
    6063                    DW$379  .dwtag  DW_TAG_member, DW_AT_type(*DW$T$11)
    6064                            .dwattr DW$379, DW_AT_name("feature_tag"), DW_AT_symbol_name("_feature_tag")
    6065                            .dwattr DW$379, DW_AT_data_member_location[DW_OP_plus_uconst 0x18]
    6066                            .dwattr DW$379, DW_AT_accessibility(DW_ACCESS_public)
    6067                            .dwendtag DW$T$79
    6068                    
    6069                    
    6070                    DW$T$81 .dwtag  DW_TAG_structure_type
    6071                            .dwattr DW$T$81, DW_AT_byte_size(0x58)
    6072                    DW$380  .dwtag  DW_TAG_member, DW_AT_type(*DW$T$28)
    6073                            .dwattr DW$380, DW_AT_name("cmode"), DW_AT_symbol_name("_cmode")
    6074                            .dwattr DW$380, DW_AT_data_member_location[DW_OP_plus_uconst 0x0]
    6075                            .dwattr DW$380, DW_AT_accessibility(DW_ACCESS_public)
    6076                    DW$381  .dwtag  DW_TAG_member, DW_AT_type(*DW$T$28)
    6077                            .dwattr DW$381, DW_AT_name("fldOp"), DW_AT_symbol_name("_fldOp")
    6078                            .dwattr DW$381, DW_AT_data_member_location[DW_OP_plus_uconst 0x4]
    6079                            .dwattr DW$381, DW_AT_accessibility(DW_ACCESS_public)
    6080                    DW$382  .dwtag  DW_TAG_member, DW_AT_type(*DW$T$28)
    6081                            .dwattr DW$382, DW_AT_name("scale"), DW_AT_symbol_name("_scale")
    6082                            .dwattr DW$382, DW_AT_data_member_location[DW_OP_plus_uconst 0x8]
    6083                            .dwattr DW$382, DW_AT_accessibility(DW_ACCESS_public)
    6084                    DW$383  .dwtag  DW_TAG_member, DW_AT_type(*DW$T$28)
    6085                            .dwattr DW$383, DW_AT_name("resmpl"), DW_AT_symbol_name("_resmpl")
    6086                            .dwattr DW$383, DW_AT_data_member_location[DW_OP_plus_uconst 0xc]
    6087                            .dwattr DW$383, DW_AT_accessibility(DW_ACCESS_public)
    6088                    DW$384  .dwtag  DW_TAG_member, DW_AT_type(*DW$T$28)
    6089                            .dwattr DW$384, DW_AT_name("bpk10Bit"), DW_AT_symbol_name("_bpk10Bit")
    6090                            .dwattr DW$384, DW_AT_data_member_location[DW_OP_plus_uconst 0x10]
    6091                            .dwattr DW$384, DW_AT_accessibility(DW_ACCESS_public)
    6092                    DW$385  .dwtag  DW_TAG_member, DW_AT_type(*DW$T$28)
    6093                            .dwattr DW$385, DW_AT_name("hCtRst"), DW_AT_symbol_name("_hCtRst")
TMS320C6x COFF Assembler PC v5.1.0 Fri Mar 25 16:51:07 2011

Tools Copyright (c) 1996-2005 Texas Instruments Incorporated
C:\DOCUME~1\yqhe\LOCALS~1\Temp\TI2522                                PAGE  116

    6094                            .dwattr DW$385, DW_AT_data_member_location[DW_OP_plus_uconst 0x14]
    6095                            .dwattr DW$385, DW_AT_accessibility(DW_ACCESS_public)
    6096                    DW$386  .dwtag  DW_TAG_member, DW_AT_type(*DW$T$28)
    6097                            .dwattr DW$386, DW_AT_name("vCtRst"), DW_AT_symbol_name("_vCtRst")
    6098                            .dwattr DW$386, DW_AT_data_member_location[DW_OP_plus_uconst 0x18]
    6099                            .dwattr DW$386, DW_AT_accessibility(DW_ACCESS_public)
    6100                    DW$387  .dwtag  DW_TAG_member, DW_AT_type(*DW$T$28)
    6101                            .dwattr DW$387, DW_AT_name("fldDect"), DW_AT_symbol_name("_fldDect")
    6102                            .dwattr DW$387, DW_AT_data_member_location[DW_OP_plus_uconst 0x1c]
    6103                            .dwattr DW$387, DW_AT_accessibility(DW_ACCESS_public)
    6104                    DW$388  .dwtag  DW_TAG_member, DW_AT_type(*DW$T$28)
    6105                            .dwattr DW$388, DW_AT_name("extCtl"), DW_AT_symbol_name("_extCtl")
    6106                            .dwattr DW$388, DW_AT_data_member_location[DW_OP_plus_uconst 0x20]
    6107                            .dwattr DW$388, DW_AT_accessibility(DW_ACCESS_public)
    6108                    DW$389  .dwtag  DW_TAG_member, DW_AT_type(*DW$T$28)
    6109                            .dwattr DW$389, DW_AT_name("fldInv"), DW_AT_symbol_name("_fldInv")
    6110                            .dwattr DW$389, DW_AT_data_member_location[DW_OP_plus_uconst 0x24]
    6111                            .dwattr DW$389, DW_AT_accessibility(DW_ACCESS_public)
    6112                    DW$390  .dwtag  DW_TAG_member, DW_AT_type(*DW$T$80)
    6113                            .dwattr DW$390, DW_AT_name("sse"), DW_AT_symbol_name("_sse")
    6114                            .dwattr DW$390, DW_AT_data_member_location[DW_OP_plus_uconst 0x28]
    6115                            .dwattr DW$390, DW_AT_accessibility(DW_ACCESS_public)
    6116                    DW$391  .dwtag  DW_TAG_member, DW_AT_type(*DW$T$80)
    6117                            .dwattr DW$391, DW_AT_name("vcvblnkp"), DW_AT_symbol_name("_vcvblnkp")
    6118                            .dwattr DW$391, DW_AT_data_member_location[DW_OP_plus_uconst 0x2a]
    6119                            .dwattr DW$391, DW_AT_accessibility(DW_ACCESS_public)
    6120                    DW$392  .dwtag  DW_TAG_member, DW_AT_type(*DW$T$80)
    6121                            .dwattr DW$392, DW_AT_name("fldXStrt1"), DW_AT_symbol_name("_fldXStrt1")
    6122                            .dwattr DW$392, DW_AT_data_member_location[DW_OP_plus_uconst 0x2c]
    6123                            .dwattr DW$392, DW_AT_accessibility(DW_ACCESS_public)
    6124                    DW$393  .dwtag  DW_TAG_member, DW_AT_type(*DW$T$80)
    6125                            .dwattr DW$393, DW_AT_name("fldYStrt1"), DW_AT_symbol_name("_fldYStrt1")
    6126                            .dwattr DW$393, DW_AT_data_member_location[DW_OP_plus_uconst 0x2e]
    6127                            .dwattr DW$393, DW_AT_accessibility(DW_ACCESS_public)
    6128                    DW$394  .dwtag  DW_TAG_member, DW_AT_type(*DW$T$80)
    6129                            .dwattr DW$394, DW_AT_name("fldXStrt2"), DW_AT_symbol_name("_fldXStrt2")
    6130                            .dwattr DW$394, DW_AT_data_member_location[DW_OP_plus_uconst 0x30]
    6131                            .dwattr DW$394, DW_AT_accessibility(DW_ACCESS_public)
    6132                    DW$395  .dwtag  DW_TAG_member, DW_AT_type(*DW$T$80)
    6133                            .dwattr DW$395, DW_AT_name("fldYStrt2"), DW_AT_symbol_name("_fldYStrt2")
    6134                            .dwattr DW$395, DW_AT_data_member_location[DW_OP_plus_uconst 0x32]
    6135                            .dwattr DW$395, DW_AT_accessibility(DW_ACCESS_public)
    6136                    DW$396  .dwtag  DW_TAG_member, DW_AT_type(*DW$T$80)
    6137                            .dwattr DW$396, DW_AT_name("fldXStop1"), DW_AT_symbol_name("_fldXStop1")
    6138                            .dwattr DW$396, DW_AT_data_member_location[DW_OP_plus_uconst 0x34]
    6139                            .dwattr DW$396, DW_AT_accessibility(DW_ACCESS_public)
    6140                    DW$397  .dwtag  DW_TAG_member, DW_AT_type(*DW$T$80)
    6141                            .dwattr DW$397, DW_AT_name("fldYStop1"), DW_AT_symbol_name("_fldYStop1")
    6142                            .dwattr DW$397, DW_AT_data_member_location[DW_OP_plus_uconst 0x36]
    6143                            .dwattr DW$397, DW_AT_accessibility(DW_ACCESS_public)
    6144                    DW$398  .dwtag  DW_TAG_member, DW_AT_type(*DW$T$80)
    6145                            .dwattr DW$398, DW_AT_name("fldXStop2"), DW_AT_symbol_name("_fldXStop2")
    6146                            .dwattr DW$398, DW_AT_data_member_location[DW_OP_plus_uconst 0x38]
    6147                            .dwattr DW$398, DW_AT_accessibility(DW_ACCESS_public)
    6148                    DW$399  .dwtag  DW_TAG_member, DW_AT_type(*DW$T$80)
TMS320C6x COFF Assembler PC v5.1.0 Fri Mar 25 16:51:07 2011

Tools Copyright (c) 1996-2005 Texas Instruments Incorporated
C:\DOCUME~1\yqhe\LOCALS~1\Temp\TI2522                                PAGE  117

    6149                            .dwattr DW$399, DW_AT_name("fldYStop2"), DW_AT_symbol_name("_fldYStop2")
    6150                            .dwattr DW$399, DW_AT_data_member_location[DW_OP_plus_uconst 0x3a]
    6151                            .dwattr DW$399, DW_AT_accessibility(DW_ACCESS_public)
    6152                    DW$400  .dwtag  DW_TAG_member, DW_AT_type(*DW$T$80)
    6153                            .dwattr DW$400, DW_AT_name("thrld"), DW_AT_symbol_name("_thrld")
    6154                            .dwattr DW$400, DW_AT_data_member_location[DW_OP_plus_uconst 0x3c]
    6155                            .dwattr DW$400, DW_AT_accessibility(DW_ACCESS_public)
    6156                    DW$401  .dwtag  DW_TAG_member, DW_AT_type(*DW$T$28)
    6157                            .dwattr DW$401, DW_AT_name("numFrmBufs"), DW_AT_symbol_name("_numFrmBufs")
    6158                            .dwattr DW$401, DW_AT_data_member_location[DW_OP_plus_uconst 0x40]
    6159                            .dwattr DW$401, DW_AT_accessibility(DW_ACCESS_public)
    6160                    DW$402  .dwtag  DW_TAG_member, DW_AT_type(*DW$T$28)
    6161                            .dwattr DW$402, DW_AT_name("alignment"), DW_AT_symbol_name("_alignment")
    6162                            .dwattr DW$402, DW_AT_data_member_location[DW_OP_plus_uconst 0x44]
    6163                            .dwattr DW$402, DW_AT_accessibility(DW_ACCESS_public)
    6164                    DW$403  .dwtag  DW_TAG_member, DW_AT_type(*DW$T$28)
    6165                            .dwattr DW$403, DW_AT_name("mergeFlds"), DW_AT_symbol_name("_mergeFlds")
    6166                            .dwattr DW$403, DW_AT_data_member_location[DW_OP_plus_uconst 0x48]
    6167                            .dwattr DW$403, DW_AT_accessibility(DW_ACCESS_public)
    6168                    DW$404  .dwtag  DW_TAG_member, DW_AT_type(*DW$T$28)
    6169                            .dwattr DW$404, DW_AT_name("segId"), DW_AT_symbol_name("_segId")
    6170                            .dwattr DW$404, DW_AT_data_member_location[DW_OP_plus_uconst 0x4c]
    6171                            .dwattr DW$404, DW_AT_accessibility(DW_ACCESS_public)
    6172                    DW$405  .dwtag  DW_TAG_member, DW_AT_type(*DW$T$28)
    6173                            .dwattr DW$405, DW_AT_name("edmaPri"), DW_AT_symbol_name("_edmaPri")
    6174                            .dwattr DW$405, DW_AT_data_member_location[DW_OP_plus_uconst 0x50]
    6175                            .dwattr DW$405, DW_AT_accessibility(DW_ACCESS_public)
    6176                    DW$406  .dwtag  DW_TAG_member, DW_AT_type(*DW$T$28)
    6177                            .dwattr DW$406, DW_AT_name("irqId"), DW_AT_symbol_name("_irqId")
    6178                            .dwattr DW$406, DW_AT_data_member_location[DW_OP_plus_uconst 0x54]
    6179                            .dwattr DW$406, DW_AT_accessibility(DW_ACCESS_public)
    6180                            .dwendtag DW$T$81
    6181                    
    6182                    DW$T$244        .dwtag  DW_TAG_typedef, DW_AT_name("FVID_Frame"), DW_AT_type(*DW$T$93)
    6183                            .dwattr DW$T$244, DW_AT_language(DW_LANG_C)
    6184                    DW$T$97 .dwtag  DW_TAG_typedef, DW_AT_name("dsp_tsk_memory_t"), DW_AT_type(*DW$T$96)
    6185                            .dwattr DW$T$97, DW_AT_language(DW_LANG_C)
    6186                    DW$T$247        .dwtag  DW_TAG_typedef, DW_AT_name("dsp_tsk_totalreg_t"), DW_AT_type(*DW$T$130)
    6187                            .dwattr DW$T$247, DW_AT_language(DW_LANG_C)
    6188                    
    6189                    DW$T$144        .dwtag  DW_TAG_structure_type
    6190                            .dwattr DW$T$144, DW_AT_name("dsp_reg_t")
    6191                            .dwattr DW$T$144, DW_AT_byte_size(0xb4)
    6192                    DW$407  .dwtag  DW_TAG_member, DW_AT_type(*DW$T$138)
    6193                            .dwattr DW$407, DW_AT_name("status_reg"), DW_AT_symbol_name("_status_reg")
    6194                            .dwattr DW$407, DW_AT_data_member_location[DW_OP_plus_uconst 0x0]
    6195                            .dwattr DW$407, DW_AT_accessibility(DW_ACCESS_public)
    6196                    DW$408  .dwtag  DW_TAG_member, DW_AT_type(*DW$T$139)
    6197                            .dwattr DW$408, DW_AT_name("distance_reg"), DW_AT_symbol_name("_distance_reg")
    6198                            .dwattr DW$408, DW_AT_data_member_location[DW_OP_plus_uconst 0x18]
    6199                            .dwattr DW$408, DW_AT_accessibility(DW_ACCESS_public)
    6200                    DW$409  .dwtag  DW_TAG_member, DW_AT_type(*DW$T$140)
    6201                            .dwattr DW$409, DW_AT_name("policy_reg"), DW_AT_symbol_name("_policy_reg")
    6202                            .dwattr DW$409, DW_AT_data_member_location[DW_OP_plus_uconst 0x3c]
    6203                            .dwattr DW$409, DW_AT_accessibility(DW_ACCESS_public)
TMS320C6x COFF Assembler PC v5.1.0 Fri Mar 25 16:51:07 2011

Tools Copyright (c) 1996-2005 Texas Instruments Incorporated
C:\DOCUME~1\yqhe\LOCALS~1\Temp\TI2522                                PAGE  118

    6204                    DW$410  .dwtag  DW_TAG_member, DW_AT_type(*DW$T$141)
    6205                            .dwattr DW$410, DW_AT_name("sound_reg"), DW_AT_symbol_name("_sound_reg")
    6206                            .dwattr DW$410, DW_AT_data_member_location[DW_OP_plus_uconst 0x64]
    6207                            .dwattr DW$410, DW_AT_accessibility(DW_ACCESS_public)
    6208                    DW$411  .dwtag  DW_TAG_member, DW_AT_type(*DW$T$142)
    6209                            .dwattr DW$411, DW_AT_name("result_reg"), DW_AT_symbol_name("_result_reg")
    6210                            .dwattr DW$411, DW_AT_data_member_location[DW_OP_plus_uconst 0x6c]
    6211                            .dwattr DW$411, DW_AT_accessibility(DW_ACCESS_public)
    6212                    DW$412  .dwtag  DW_TAG_member, DW_AT_type(*DW$T$143)
    6213                            .dwattr DW$412, DW_AT_name("quality_value"), DW_AT_symbol_name("_quality_value")
    6214                            .dwattr DW$412, DW_AT_data_member_location[DW_OP_plus_uconst 0x78]
    6215                            .dwattr DW$412, DW_AT_accessibility(DW_ACCESS_public)
    6216                    DW$413  .dwtag  DW_TAG_member, DW_AT_type(*DW$T$10)
    6217                            .dwattr DW$413, DW_AT_name("quality_count"), DW_AT_symbol_name("_quality_count")
    6218                            .dwattr DW$413, DW_AT_data_member_location[DW_OP_plus_uconst 0xa0]
    6219                            .dwattr DW$413, DW_AT_accessibility(DW_ACCESS_public)
    6220                    DW$414  .dwtag  DW_TAG_member, DW_AT_type(*DW$T$11)
    6221                            .dwattr DW$414, DW_AT_name("alg_control_count"), DW_AT_symbol_name("_alg_control_count")
    6222                            .dwattr DW$414, DW_AT_data_member_location[DW_OP_plus_uconst 0xa4]
    6223                            .dwattr DW$414, DW_AT_accessibility(DW_ACCESS_public)
    6224                    DW$415  .dwtag  DW_TAG_member, DW_AT_type(*DW$T$10)
    6225                            .dwattr DW$415, DW_AT_name("last_img_quality"), DW_AT_symbol_name("_last_img_quality")
    6226                            .dwattr DW$415, DW_AT_data_member_location[DW_OP_plus_uconst 0xa8]
    6227                            .dwattr DW$415, DW_AT_accessibility(DW_ACCESS_public)
    6228                    DW$416  .dwtag  DW_TAG_member, DW_AT_type(*DW$T$10)
    6229                            .dwattr DW$416, DW_AT_name("last_icon_id"), DW_AT_symbol_name("_last_icon_id")
    6230                            .dwattr DW$416, DW_AT_data_member_location[DW_OP_plus_uconst 0xac]
    6231                            .dwattr DW$416, DW_AT_accessibility(DW_ACCESS_public)
    6232                    DW$417  .dwtag  DW_TAG_member, DW_AT_type(*DW$T$10)
    6233                            .dwattr DW$417, DW_AT_name("match_input_count"), DW_AT_symbol_name("_match_input_count")
    6234                            .dwattr DW$417, DW_AT_data_member_location[DW_OP_plus_uconst 0xb0]
    6235                            .dwattr DW$417, DW_AT_accessibility(DW_ACCESS_public)
    6236                            .dwendtag DW$T$144
    6237                    
    6238                    DW$T$251        .dwtag  DW_TAG_pointer_type, DW_AT_type(*DW$T$145)
    6239                            .dwattr DW$T$251, DW_AT_address_class(0x20)
    6240                    DW$T$253        .dwtag  DW_TAG_typedef, DW_AT_name("dsp_bmp_t"), DW_AT_type(*DW$T$146)
    6241                            .dwattr DW$T$253, DW_AT_language(DW_LANG_C)
    6242                    
    6243                    DW$T$156        .dwtag  DW_TAG_enumeration_type
    6244                            .dwattr DW$T$156, DW_AT_byte_size(0x04)
    6245                    DW$418  .dwtag  DW_TAG_enumerator, DW_AT_name("CACHE_L2"), DW_AT_const_value(0x00)
    6246                    DW$419  .dwtag  DW_TAG_enumerator, DW_AT_name("CACHE_L2ALL"), DW_AT_const_value(0x01)
    6247                    DW$420  .dwtag  DW_TAG_enumerator, DW_AT_name("CACHE_L1P"), DW_AT_const_value(0x02)
    6248                    DW$421  .dwtag  DW_TAG_enumerator, DW_AT_name("CACHE_L1PALL"), DW_AT_const_value(0x03)
    6249                    DW$422  .dwtag  DW_TAG_enumerator, DW_AT_name("CACHE_L1D"), DW_AT_const_value(0x04)
    6250                    DW$423  .dwtag  DW_TAG_enumerator, DW_AT_name("CACHE_L1DALL"), DW_AT_const_value(0x05)
    6251                            .dwendtag DW$T$156
    6252                    
    6253                    
    6254                    DW$T$160        .dwtag  DW_TAG_enumeration_type
    6255                            .dwattr DW$T$160, DW_AT_byte_size(0x04)
    6256                    DW$424  .dwtag  DW_TAG_enumerator, DW_AT_name("CACHE_NOWAIT"), DW_AT_const_value(0x00)
    6257                    DW$425  .dwtag  DW_TAG_enumerator, DW_AT_name("CACHE_WAIT"), DW_AT_const_value(0x01)
    6258                            .dwendtag DW$T$160
TMS320C6x COFF Assembler PC v5.1.0 Fri Mar 25 16:51:07 2011

Tools Copyright (c) 1996-2005 Texas Instruments Incorporated
C:\DOCUME~1\yqhe\LOCALS~1\Temp\TI2522                                PAGE  119

    6259                    
    6260                    DW$T$78 .dwtag  DW_TAG_typedef, DW_AT_name("Bool"), DW_AT_type(*DW$T$77)
    6261                            .dwattr DW$T$78, DW_AT_language(DW_LANG_C)
    6262                    
    6263                    DW$T$143        .dwtag  DW_TAG_array_type, DW_AT_type(*DW$T$10)
    6264                            .dwattr DW$T$143, DW_AT_language(DW_LANG_C)
    6265                            .dwattr DW$T$143, DW_AT_byte_size(0x28)
    6266                    DW$426  .dwtag  DW_TAG_subrange_type
    6267                            .dwattr DW$426, DW_AT_upper_bound(0x09)
    6268                            .dwendtag DW$T$143
    6269                    
    6270                    DW$T$68 .dwtag  DW_TAG_typedef, DW_AT_name("MEM_sizep"), DW_AT_type(*DW$T$11)
    6271                            .dwattr DW$T$68, DW_AT_language(DW_LANG_C)
    6272                    
    6273                    DW$T$22 .dwtag  DW_TAG_structure_type
    6274                            .dwattr DW$T$22, DW_AT_byte_size(0x0c)
    6275                    DW$427  .dwtag  DW_TAG_member, DW_AT_type(*DW$T$19)
    6276                            .dwattr DW$427, DW_AT_name("allocated"), DW_AT_symbol_name("_allocated")
    6277                            .dwattr DW$427, DW_AT_data_member_location[DW_OP_plus_uconst 0x0]
    6278                            .dwattr DW$427, DW_AT_accessibility(DW_ACCESS_public)
    6279                    DW$428  .dwtag  DW_TAG_member, DW_AT_type(*DW$T$21)
    6280                            .dwattr DW$428, DW_AT_name("baseAddr"), DW_AT_symbol_name("_baseAddr")
    6281                            .dwattr DW$428, DW_AT_data_member_location[DW_OP_plus_uconst 0x4]
    6282                            .dwattr DW$428, DW_AT_accessibility(DW_ACCESS_public)
    6283                    DW$429  .dwtag  DW_TAG_member, DW_AT_type(*DW$T$19)
    6284                            .dwattr DW$429, DW_AT_name("pinAllocMask"), DW_AT_symbol_name("_pinAllocMask")
    6285                            .dwattr DW$429, DW_AT_data_member_location[DW_OP_plus_uconst 0x8]
    6286                            .dwattr DW$429, DW_AT_accessibility(DW_ACCESS_public)
    6287                            .dwendtag DW$T$22
    6288                    
    6289                    
    6290                    DW$T$61 .dwtag  DW_TAG_structure_type
    6291                            .dwattr DW$T$61, DW_AT_name("GIO_Obj")
    6292                            .dwattr DW$T$61, DW_AT_byte_size(0x3c)
    6293                    DW$430  .dwtag  DW_TAG_member, DW_AT_type(*DW$T$59)
    6294                            .dwattr DW$430, DW_AT_name("fxns"), DW_AT_symbol_name("_fxns")
    6295                            .dwattr DW$430, DW_AT_data_member_location[DW_OP_plus_uconst 0x0]
    6296                            .dwattr DW$430, DW_AT_accessibility(DW_ACCESS_public)
    6297                    DW$431  .dwtag  DW_TAG_member, DW_AT_type(*DW$T$27)
    6298                            .dwattr DW$431, DW_AT_name("mode"), DW_AT_symbol_name("_mode")
    6299                            .dwattr DW$431, DW_AT_data_member_location[DW_OP_plus_uconst 0x4]
    6300                            .dwattr DW$431, DW_AT_accessibility(DW_ACCESS_public)
    6301                    DW$432  .dwtag  DW_TAG_member, DW_AT_type(*DW$T$27)
    6302                            .dwattr DW$432, DW_AT_name("timeout"), DW_AT_symbol_name("_timeout")
    6303                            .dwattr DW$432, DW_AT_data_member_location[DW_OP_plus_uconst 0x8]
    6304                            .dwattr DW$432, DW_AT_accessibility(DW_ACCESS_public)
    6305                    DW$433  .dwtag  DW_TAG_member, DW_AT_type(*DW$T$45)
    6306                            .dwattr DW$433, DW_AT_name("syncPacket"), DW_AT_symbol_name("_syncPacket")
    6307                            .dwattr DW$433, DW_AT_data_member_location[DW_OP_plus_uconst 0xc]
    6308                            .dwattr DW$433, DW_AT_accessibility(DW_ACCESS_public)
    6309                    DW$434  .dwtag  DW_TAG_member, DW_AT_type(*DW$T$60)
    6310                            .dwattr DW$434, DW_AT_name("freeList"), DW_AT_symbol_name("_freeList")
    6311                            .dwattr DW$434, DW_AT_data_member_location[DW_OP_plus_uconst 0x2c]
    6312                            .dwattr DW$434, DW_AT_accessibility(DW_ACCESS_public)
    6313                    DW$435  .dwtag  DW_TAG_member, DW_AT_type(*DW$T$26)
TMS320C6x COFF Assembler PC v5.1.0 Fri Mar 25 16:51:07 2011

Tools Copyright (c) 1996-2005 Texas Instruments Incorporated
C:\DOCUME~1\yqhe\LOCALS~1\Temp\TI2522                                PAGE  120

    6314                            .dwattr DW$435, DW_AT_name("syncObj"), DW_AT_symbol_name("_syncObj")
    6315                            .dwattr DW$435, DW_AT_data_member_location[DW_OP_plus_uconst 0x34]
    6316                            .dwattr DW$435, DW_AT_accessibility(DW_ACCESS_public)
    6317                    DW$436  .dwtag  DW_TAG_member, DW_AT_type(*DW$T$26)
    6318                            .dwattr DW$436, DW_AT_name("mdChan"), DW_AT_symbol_name("_mdChan")
    6319                            .dwattr DW$436, DW_AT_data_member_location[DW_OP_plus_uconst 0x38]
    6320                            .dwattr DW$436, DW_AT_accessibility(DW_ACCESS_public)
    6321                            .dwendtag DW$T$61
    6322                    
    6323                    
    6324                    DW$T$66 .dwtag  DW_TAG_structure_type
    6325                            .dwattr DW$T$66, DW_AT_name("GIO_AppCallback")
    6326                            .dwattr DW$T$66, DW_AT_byte_size(0x08)
    6327                    DW$437  .dwtag  DW_TAG_member, DW_AT_type(*DW$T$65)
    6328                            .dwattr DW$437, DW_AT_name("fxn"), DW_AT_symbol_name("_fxn")
    6329                            .dwattr DW$437, DW_AT_data_member_location[DW_OP_plus_uconst 0x0]
    6330                            .dwattr DW$437, DW_AT_accessibility(DW_ACCESS_public)
    6331                    DW$438  .dwtag  DW_TAG_member, DW_AT_type(*DW$T$26)
    6332                            .dwattr DW$438, DW_AT_name("arg"), DW_AT_symbol_name("_arg")
    6333                            .dwattr DW$438, DW_AT_data_member_location[DW_OP_plus_uconst 0x4]
    6334                            .dwattr DW$438, DW_AT_accessibility(DW_ACCESS_public)
    6335                            .dwendtag DW$T$66
    6336                    
    6337                    
    6338                    DW$T$67 .dwtag  DW_TAG_structure_type
    6339                            .dwattr DW$T$67, DW_AT_byte_size(0x14)
    6340                    DW$439  .dwtag  DW_TAG_member, DW_AT_type(*DW$T$19)
    6341                            .dwattr DW$439, DW_AT_name("allocated"), DW_AT_symbol_name("_allocated")
    6342                            .dwattr DW$439, DW_AT_data_member_location[DW_OP_plus_uconst 0x0]
    6343                            .dwattr DW$439, DW_AT_accessibility(DW_ACCESS_public)
    6344                    DW$440  .dwtag  DW_TAG_member, DW_AT_type(*DW$T$19)
    6345                            .dwattr DW$440, DW_AT_name("eventId"), DW_AT_symbol_name("_eventId")
    6346                            .dwattr DW$440, DW_AT_data_member_location[DW_OP_plus_uconst 0x4]
    6347                            .dwattr DW$440, DW_AT_accessibility(DW_ACCESS_public)
    6348                    DW$441  .dwtag  DW_TAG_member, DW_AT_type(*DW$T$21)
    6349                            .dwattr DW$441, DW_AT_name("baseAddr"), DW_AT_symbol_name("_baseAddr")
    6350                            .dwattr DW$441, DW_AT_data_member_location[DW_OP_plus_uconst 0x8]
    6351                            .dwattr DW$441, DW_AT_accessibility(DW_ACCESS_public)
    6352                    DW$442  .dwtag  DW_TAG_member, DW_AT_type(*DW$T$19)
    6353                            .dwattr DW$442, DW_AT_name("i2cdrrAddr"), DW_AT_symbol_name("_i2cdrrAddr")
    6354                            .dwattr DW$442, DW_AT_data_member_location[DW_OP_plus_uconst 0xc]
    6355                            .dwattr DW$442, DW_AT_accessibility(DW_ACCESS_public)
    6356                    DW$443  .dwtag  DW_TAG_member, DW_AT_type(*DW$T$19)
    6357                            .dwattr DW$443, DW_AT_name("i2cdxrAddr"), DW_AT_symbol_name("_i2cdxrAddr")
    6358                            .dwattr DW$443, DW_AT_data_member_location[DW_OP_plus_uconst 0x10]
    6359                            .dwattr DW$443, DW_AT_accessibility(DW_ACCESS_public)
    6360                            .dwendtag DW$T$67
    6361                    
    6362                    
    6363                    DW$T$71 .dwtag  DW_TAG_structure_type
    6364                            .dwattr DW$T$71, DW_AT_name("dsp_image_msg_t")
    6365                            .dwattr DW$T$71, DW_AT_byte_size(0x34)
    6366                    DW$444  .dwtag  DW_TAG_member, DW_AT_type(*DW$T$25)
    6367                            .dwattr DW$444, DW_AT_name("elem"), DW_AT_symbol_name("_elem")
    6368                            .dwattr DW$444, DW_AT_data_member_location[DW_OP_plus_uconst 0x0]
TMS320C6x COFF Assembler PC v5.1.0 Fri Mar 25 16:51:07 2011

Tools Copyright (c) 1996-2005 Texas Instruments Incorporated
C:\DOCUME~1\yqhe\LOCALS~1\Temp\TI2522                                PAGE  121

    6369                            .dwattr DW$444, DW_AT_accessibility(DW_ACCESS_public)
    6370                    DW$445  .dwtag  DW_TAG_member, DW_AT_type(*DW$T$11)
    6371                            .dwattr DW$445, DW_AT_name("img_saved_score_l"), DW_AT_symbol_name("_img_saved_score_l")
    6372                            .dwattr DW$445, DW_AT_data_member_location[DW_OP_plus_uconst 0x8]
    6373                            .dwattr DW$445, DW_AT_accessibility(DW_ACCESS_public)
    6374                    DW$446  .dwtag  DW_TAG_member, DW_AT_type(*DW$T$11)
    6375                            .dwattr DW$446, DW_AT_name("img_saved_score_r"), DW_AT_symbol_name("_img_saved_score_r")
    6376                            .dwattr DW$446, DW_AT_data_member_location[DW_OP_plus_uconst 0xc]
    6377                            .dwattr DW$446, DW_AT_accessibility(DW_ACCESS_public)
    6378                    DW$447  .dwtag  DW_TAG_member, DW_AT_type(*DW$T$70)
    6379                            .dwattr DW$447, DW_AT_name("img_ptr_l"), DW_AT_symbol_name("_img_ptr_l")
    6380                            .dwattr DW$447, DW_AT_data_member_location[DW_OP_plus_uconst 0x10]
    6381                            .dwattr DW$447, DW_AT_accessibility(DW_ACCESS_public)
    6382                    DW$448  .dwtag  DW_TAG_member, DW_AT_type(*DW$T$70)
    6383                            .dwattr DW$448, DW_AT_name("img_ptr_r"), DW_AT_symbol_name("_img_ptr_r")
    6384                            .dwattr DW$448, DW_AT_data_member_location[DW_OP_plus_uconst 0x14]
    6385                            .dwattr DW$448, DW_AT_accessibility(DW_ACCESS_public)
    6386                    DW$449  .dwtag  DW_TAG_member, DW_AT_type(*DW$T$10)
    6387                            .dwattr DW$449, DW_AT_name("eye_flag"), DW_AT_symbol_name("_eye_flag")
    6388                            .dwattr DW$449, DW_AT_data_member_location[DW_OP_plus_uconst 0x18]
    6389                            .dwattr DW$449, DW_AT_accessibility(DW_ACCESS_public)
    6390                    DW$450  .dwtag  DW_TAG_member, DW_AT_type(*DW$T$10)
    6391                            .dwattr DW$450, DW_AT_name("process_flag"), DW_AT_symbol_name("_process_flag")
    6392                            .dwattr DW$450, DW_AT_data_member_location[DW_OP_plus_uconst 0x1c]
    6393                            .dwattr DW$450, DW_AT_accessibility(DW_ACCESS_public)
    6394                    DW$451  .dwtag  DW_TAG_member, DW_AT_type(*DW$T$11)
    6395                            .dwattr DW$451, DW_AT_name("img_saved_count_l"), DW_AT_symbol_name("_img_saved_count_l")
    6396                            .dwattr DW$451, DW_AT_data_member_location[DW_OP_plus_uconst 0x20]
    6397                            .dwattr DW$451, DW_AT_accessibility(DW_ACCESS_public)
    6398                    DW$452  .dwtag  DW_TAG_member, DW_AT_type(*DW$T$11)
    6399                            .dwattr DW$452, DW_AT_name("img_saved_count_r"), DW_AT_symbol_name("_img_saved_count_r")
    6400                            .dwattr DW$452, DW_AT_data_member_location[DW_OP_plus_uconst 0x24]
    6401                            .dwattr DW$452, DW_AT_accessibility(DW_ACCESS_public)
    6402                    DW$453  .dwtag  DW_TAG_member, DW_AT_type(*DW$T$11)
    6403                            .dwattr DW$453, DW_AT_name("feature_tag"), DW_AT_symbol_name("_feature_tag")
    6404                            .dwattr DW$453, DW_AT_data_member_location[DW_OP_plus_uconst 0x28]
    6405                            .dwattr DW$453, DW_AT_accessibility(DW_ACCESS_public)
    6406                    DW$454  .dwtag  DW_TAG_member, DW_AT_type(*DW$T$11)
    6407                            .dwattr DW$454, DW_AT_name("data_type_l"), DW_AT_symbol_name("_data_type_l")
    6408                            .dwattr DW$454, DW_AT_data_member_location[DW_OP_plus_uconst 0x2c]
    6409                            .dwattr DW$454, DW_AT_accessibility(DW_ACCESS_public)
    6410                    DW$455  .dwtag  DW_TAG_member, DW_AT_type(*DW$T$11)
    6411                            .dwattr DW$455, DW_AT_name("data_type_r"), DW_AT_symbol_name("_data_type_r")
    6412                            .dwattr DW$455, DW_AT_data_member_location[DW_OP_plus_uconst 0x30]
    6413                            .dwattr DW$455, DW_AT_accessibility(DW_ACCESS_public)
    6414                            .dwendtag DW$T$71
    6415                    
    6416                    
    6417                    DW$T$72 .dwtag  DW_TAG_structure_type
    6418                            .dwattr DW$T$72, DW_AT_name("dsp_result_msg_t")
    6419                            .dwattr DW$T$72, DW_AT_byte_size(0x1c)
    6420                    DW$456  .dwtag  DW_TAG_member, DW_AT_type(*DW$T$25)
    6421                            .dwattr DW$456, DW_AT_name("elem"), DW_AT_symbol_name("_elem")
    6422                            .dwattr DW$456, DW_AT_data_member_location[DW_OP_plus_uconst 0x0]
    6423                            .dwattr DW$456, DW_AT_accessibility(DW_ACCESS_public)
TMS320C6x COFF Assembler PC v5.1.0 Fri Mar 25 16:51:07 2011

Tools Copyright (c) 1996-2005 Texas Instruments Incorporated
C:\DOCUME~1\yqhe\LOCALS~1\Temp\TI2522                                PAGE  122

    6424                    DW$457  .dwtag  DW_TAG_member, DW_AT_type(*DW$T$10)
    6425                            .dwattr DW$457, DW_AT_name("result_left"), DW_AT_symbol_name("_result_left")
    6426                            .dwattr DW$457, DW_AT_data_member_location[DW_OP_plus_uconst 0x8]
    6427                            .dwattr DW$457, DW_AT_accessibility(DW_ACCESS_public)
    6428                    DW$458  .dwtag  DW_TAG_member, DW_AT_type(*DW$T$10)
    6429                            .dwattr DW$458, DW_AT_name("result_right"), DW_AT_symbol_name("_result_right")
    6430                            .dwattr DW$458, DW_AT_data_member_location[DW_OP_plus_uconst 0xc]
    6431                            .dwattr DW$458, DW_AT_accessibility(DW_ACCESS_public)
    6432                    DW$459  .dwtag  DW_TAG_member, DW_AT_type(*DW$T$10)
    6433                            .dwattr DW$459, DW_AT_name("eye_flag"), DW_AT_symbol_name("_eye_flag")
    6434                            .dwattr DW$459, DW_AT_data_member_location[DW_OP_plus_uconst 0x10]
    6435                            .dwattr DW$459, DW_AT_accessibility(DW_ACCESS_public)
    6436                    DW$460  .dwtag  DW_TAG_member, DW_AT_type(*DW$T$10)
    6437                            .dwattr DW$460, DW_AT_name("process_flag"), DW_AT_symbol_name("_process_flag")
    6438                            .dwattr DW$460, DW_AT_data_member_location[DW_OP_plus_uconst 0x14]
    6439                            .dwattr DW$460, DW_AT_accessibility(DW_ACCESS_public)
    6440                    DW$461  .dwtag  DW_TAG_member, DW_AT_type(*DW$T$11)
    6441                            .dwattr DW$461, DW_AT_name("feature_tag"), DW_AT_symbol_name("_feature_tag")
    6442                            .dwattr DW$461, DW_AT_data_member_location[DW_OP_plus_uconst 0x18]
    6443                            .dwattr DW$461, DW_AT_accessibility(DW_ACCESS_public)
    6444                            .dwendtag DW$T$72
    6445                    
    6446                    
    6447                    DW$T$93 .dwtag  DW_TAG_structure_type
    6448                            .dwattr DW$T$93, DW_AT_name("FVID_Frame")
    6449                            .dwattr DW$T$93, DW_AT_byte_size(0x20)
    6450                    DW$462  .dwtag  DW_TAG_member, DW_AT_type(*DW$T$25)
    6451                            .dwattr DW$462, DW_AT_name("queElement"), DW_AT_symbol_name("_queElement")
    6452                            .dwattr DW$462, DW_AT_data_member_location[DW_OP_plus_uconst 0x0]
    6453                            .dwattr DW$462, DW_AT_accessibility(DW_ACCESS_public)
    6454                    DW$463  .dwtag  DW_TAG_member, DW_AT_type(*DW$T$92)
    6455                            .dwattr DW$463, DW_AT_name("frame"), DW_AT_symbol_name("_frame")
    6456                            .dwattr DW$463, DW_AT_data_member_location[DW_OP_plus_uconst 0x8]
    6457                            .dwattr DW$463, DW_AT_accessibility(DW_ACCESS_public)
    6458                            .dwendtag DW$T$93
    6459                    
    6460                    
    6461                    DW$T$96 .dwtag  DW_TAG_structure_type
    6462                            .dwattr DW$T$96, DW_AT_name("dsp_tsk_memory_t")
    6463                            .dwattr DW$T$96, DW_AT_byte_size(0x08)
    6464                    DW$464  .dwtag  DW_TAG_member, DW_AT_type(*DW$T$11)
    6465                            .dwattr DW$464, DW_AT_name("dataptr_len"), DW_AT_symbol_name("_dataptr_len")
    6466                            .dwattr DW$464, DW_AT_data_member_location[DW_OP_plus_uconst 0x0]
    6467                            .dwattr DW$464, DW_AT_accessibility(DW_ACCESS_public)
    6468                    DW$465  .dwtag  DW_TAG_member, DW_AT_type(*DW$T$3)
    6469                            .dwattr DW$465, DW_AT_name("data_ptr"), DW_AT_symbol_name("_data_ptr")
    6470                            .dwattr DW$465, DW_AT_data_member_location[DW_OP_plus_uconst 0x4]
    6471                            .dwattr DW$465, DW_AT_accessibility(DW_ACCESS_public)
    6472                            .dwendtag DW$T$96
    6473                    
    6474                    
    6475                    DW$T$130        .dwtag  DW_TAG_structure_type
    6476                            .dwattr DW$T$130, DW_AT_name("dsp_tsk_totalreg_t")
    6477                            .dwattr DW$T$130, DW_AT_byte_size(0x138)
    6478                    DW$466  .dwtag  DW_TAG_member, DW_AT_type(*DW$T$117)
TMS320C6x COFF Assembler PC v5.1.0 Fri Mar 25 16:51:07 2011

Tools Copyright (c) 1996-2005 Texas Instruments Incorporated
C:\DOCUME~1\yqhe\LOCALS~1\Temp\TI2522                                PAGE  123

    6479                            .dwattr DW$466, DW_AT_name("tsk_control_reg"), DW_AT_symbol_name("_tsk_control_reg")
    6480                            .dwattr DW$466, DW_AT_data_member_location[DW_OP_plus_uconst 0x0]
    6481                            .dwattr DW$466, DW_AT_accessibility(DW_ACCESS_public)
    6482                    DW$467  .dwtag  DW_TAG_member, DW_AT_type(*DW$T$99)
    6483                            .dwattr DW$467, DW_AT_name("tsk_policy_reg"), DW_AT_symbol_name("_tsk_policy_reg")
    6484                            .dwattr DW$467, DW_AT_data_member_location[DW_OP_plus_uconst 0xc]
    6485                            .dwattr DW$467, DW_AT_accessibility(DW_ACCESS_public)
    6486                    DW$468  .dwtag  DW_TAG_member, DW_AT_type(*DW$T$118)
    6487                            .dwattr DW$468, DW_AT_name("tsk_flag_reg"), DW_AT_symbol_name("_tsk_flag_reg")
    6488                            .dwattr DW$468, DW_AT_data_member_location[DW_OP_plus_uconst 0x18]
    6489                            .dwattr DW$468, DW_AT_accessibility(DW_ACCESS_public)
    6490                    DW$469  .dwtag  DW_TAG_member, DW_AT_type(*DW$T$119)
    6491                            .dwattr DW$469, DW_AT_name("alg_result_reg"), DW_AT_symbol_name("_alg_result_reg")
    6492                            .dwattr DW$469, DW_AT_data_member_location[DW_OP_plus_uconst 0x34]
    6493                            .dwattr DW$469, DW_AT_accessibility(DW_ACCESS_public)
    6494                    DW$470  .dwtag  DW_TAG_member, DW_AT_type(*DW$T$120)
    6495                            .dwattr DW$470, DW_AT_name("alg_sound_reg"), DW_AT_symbol_name("_alg_sound_reg")
    6496                            .dwattr DW$470, DW_AT_data_member_location[DW_OP_plus_uconst 0x54]
    6497                            .dwattr DW$470, DW_AT_accessibility(DW_ACCESS_public)
    6498                    DW$471  .dwtag  DW_TAG_member, DW_AT_type(*DW$T$121)
    6499                            .dwattr DW$471, DW_AT_name("alg_devparam_reg"), DW_AT_symbol_name("_alg_devparam_reg")
    6500                            .dwattr DW$471, DW_AT_data_member_location[DW_OP_plus_uconst 0x5c]
    6501                            .dwattr DW$471, DW_AT_accessibility(DW_ACCESS_public)
    6502                    DW$472  .dwtag  DW_TAG_member, DW_AT_type(*DW$T$122)
    6503                            .dwattr DW$472, DW_AT_name("tsk_watchdog_reg"), DW_AT_symbol_name("_tsk_watchdog_reg")
    6504                            .dwattr DW$472, DW_AT_data_member_location[DW_OP_plus_uconst 0xb0]
    6505                            .dwattr DW$472, DW_AT_accessibility(DW_ACCESS_public)
    6506                    DW$473  .dwtag  DW_TAG_member, DW_AT_type(*DW$T$123)
    6507                            .dwattr DW$473, DW_AT_name("img_icon_reg"), DW_AT_symbol_name("_img_icon_reg")
    6508                            .dwattr DW$473, DW_AT_data_member_location[DW_OP_plus_uconst 0xb8]
    6509                            .dwattr DW$473, DW_AT_accessibility(DW_ACCESS_public)
    6510                    DW$474  .dwtag  DW_TAG_member, DW_AT_type(*DW$T$124)
    6511                            .dwattr DW$474, DW_AT_name("dsp_mac_reg"), DW_AT_symbol_name("_dsp_mac_reg")
    6512                            .dwattr DW$474, DW_AT_data_member_location[DW_OP_plus_uconst 0xcc]
    6513                            .dwattr DW$474, DW_AT_accessibility(DW_ACCESS_public)
    6514                    DW$475  .dwtag  DW_TAG_member, DW_AT_type(*DW$T$125)
    6515                            .dwattr DW$475, DW_AT_name("dsp_copyimg_reg"), DW_AT_symbol_name("_dsp_copyimg_reg")
    6516                            .dwattr DW$475, DW_AT_data_member_location[DW_OP_plus_uconst 0xd4]
    6517                            .dwattr DW$475, DW_AT_accessibility(DW_ACCESS_public)
    6518                    DW$476  .dwtag  DW_TAG_member, DW_AT_type(*DW$T$126)
    6519                            .dwattr DW$476, DW_AT_name("dsp_testimg_reg"), DW_AT_symbol_name("_dsp_testimg_reg")
    6520                            .dwattr DW$476, DW_AT_data_member_location[DW_OP_plus_uconst 0xdc]
    6521                            .dwattr DW$476, DW_AT_accessibility(DW_ACCESS_public)
    6522                    DW$477  .dwtag  DW_TAG_member, DW_AT_type(*DW$T$127)
    6523                            .dwattr DW$477, DW_AT_name("dsp_distance_ctrl_reg"), DW_AT_symbol_name("_dsp_distance_ctrl_reg
    6524                            .dwattr DW$477, DW_AT_data_member_location[DW_OP_plus_uconst 0x104]
    6525                            .dwattr DW$477, DW_AT_accessibility(DW_ACCESS_public)
    6526                    DW$478  .dwtag  DW_TAG_member, DW_AT_type(*DW$T$128)
    6527                            .dwattr DW$478, DW_AT_name("dsp_buildtime_reg"), DW_AT_symbol_name("_dsp_buildtime_reg")
    6528                            .dwattr DW$478, DW_AT_data_member_location[DW_OP_plus_uconst 0x114]
    6529                            .dwattr DW$478, DW_AT_accessibility(DW_ACCESS_public)
    6530                    DW$479  .dwtag  DW_TAG_member, DW_AT_type(*DW$T$129)
    6531                            .dwattr DW$479, DW_AT_name("switch_control_reg"), DW_AT_symbol_name("_switch_control_reg")
    6532                            .dwattr DW$479, DW_AT_data_member_location[DW_OP_plus_uconst 0x134]
    6533                            .dwattr DW$479, DW_AT_accessibility(DW_ACCESS_public)
TMS320C6x COFF Assembler PC v5.1.0 Fri Mar 25 16:51:07 2011

Tools Copyright (c) 1996-2005 Texas Instruments Incorporated
C:\DOCUME~1\yqhe\LOCALS~1\Temp\TI2522                                PAGE  124

    6534                            .dwendtag DW$T$130
    6535                    
    6536                    DW$T$138        .dwtag  DW_TAG_typedef, DW_AT_name("dsp_status_t"), DW_AT_type(*DW$T$131)
    6537                            .dwattr DW$T$138, DW_AT_language(DW_LANG_C)
    6538                    DW$T$139        .dwtag  DW_TAG_typedef, DW_AT_name("dsp_distance_t"), DW_AT_type(*DW$T$132)
    6539                            .dwattr DW$T$139, DW_AT_language(DW_LANG_C)
    6540                    DW$T$140        .dwtag  DW_TAG_typedef, DW_AT_name("policy_t"), DW_AT_type(*DW$T$134)
    6541                            .dwattr DW$T$140, DW_AT_language(DW_LANG_C)
    6542                    DW$T$141        .dwtag  DW_TAG_typedef, DW_AT_name("dsp_sound_t"), DW_AT_type(*DW$T$135)
    6543                            .dwattr DW$T$141, DW_AT_language(DW_LANG_C)
    6544                    DW$T$142        .dwtag  DW_TAG_typedef, DW_AT_name("dsp_result_t"), DW_AT_type(*DW$T$137)
    6545                            .dwattr DW$T$142, DW_AT_language(DW_LANG_C)
    6546                    
    6547                    DW$T$145        .dwtag  DW_TAG_structure_type
    6548                            .dwattr DW$T$145, DW_AT_name("dsp_match_msg_t")
    6549                            .dwattr DW$T$145, DW_AT_byte_size(0x0c)
    6550                    DW$480  .dwtag  DW_TAG_member, DW_AT_type(*DW$T$25)
    6551                            .dwattr DW$480, DW_AT_name("elem"), DW_AT_symbol_name("_elem")
    6552                            .dwattr DW$480, DW_AT_data_member_location[DW_OP_plus_uconst 0x0]
    6553                            .dwattr DW$480, DW_AT_accessibility(DW_ACCESS_public)
    6554                    DW$481  .dwtag  DW_TAG_member, DW_AT_type(*DW$T$10)
    6555                            .dwattr DW$481, DW_AT_name("process_flag"), DW_AT_symbol_name("_process_flag")
    6556                            .dwattr DW$481, DW_AT_data_member_location[DW_OP_plus_uconst 0x8]
    6557                            .dwattr DW$481, DW_AT_accessibility(DW_ACCESS_public)
    6558                            .dwendtag DW$T$145
    6559                    
    6560                    
    6561                    DW$T$146        .dwtag  DW_TAG_structure_type
    6562                            .dwattr DW$T$146, DW_AT_name("dsp_bmp_t")
    6563                            .dwattr DW$T$146, DW_AT_byte_size(0x08)
    6564                    DW$482  .dwtag  DW_TAG_member, DW_AT_type(*DW$T$10)
    6565                            .dwattr DW$482, DW_AT_name("width"), DW_AT_symbol_name("_width")
    6566                            .dwattr DW$482, DW_AT_data_member_location[DW_OP_plus_uconst 0x0]
    6567                            .dwattr DW$482, DW_AT_accessibility(DW_ACCESS_public)
    6568                    DW$483  .dwtag  DW_TAG_member, DW_AT_type(*DW$T$10)
    6569                            .dwattr DW$483, DW_AT_name("height"), DW_AT_symbol_name("_height")
    6570                            .dwattr DW$483, DW_AT_data_member_location[DW_OP_plus_uconst 0x4]
    6571                            .dwattr DW$483, DW_AT_accessibility(DW_ACCESS_public)
    6572                            .dwendtag DW$T$146
    6573                    
    6574                    DW$T$65 .dwtag  DW_TAG_typedef, DW_AT_name("GIO_TappCallback"), DW_AT_type(*DW$T$64)
    6575                            .dwattr DW$T$65, DW_AT_language(DW_LANG_C)
    6576                    DW$T$77 .dwtag  DW_TAG_typedef, DW_AT_name("MdUns"), DW_AT_type(*DW$T$9)
    6577                            .dwattr DW$T$77, DW_AT_language(DW_LANG_C)
    6578                    DW$T$21 .dwtag  DW_TAG_pointer_type, DW_AT_type(*DW$T$20)
    6579                            .dwattr DW$T$21, DW_AT_address_class(0x20)
    6580                    DW$T$25 .dwtag  DW_TAG_typedef, DW_AT_name("QUE_Elem"), DW_AT_type(*DW$T$24)
    6581                            .dwattr DW$T$25, DW_AT_language(DW_LANG_C)
    6582                    DW$T$60 .dwtag  DW_TAG_typedef, DW_AT_name("QUE_Obj"), DW_AT_type(*DW$T$24)
    6583                            .dwattr DW$T$60, DW_AT_language(DW_LANG_C)
    6584                    DW$T$45 .dwtag  DW_TAG_typedef, DW_AT_name("IOM_Packet"), DW_AT_type(*DW$T$44)
    6585                            .dwattr DW$T$45, DW_AT_language(DW_LANG_C)
    6586                    DW$T$59 .dwtag  DW_TAG_pointer_type, DW_AT_type(*DW$T$58)
    6587                            .dwattr DW$T$59, DW_AT_address_class(0x20)
    6588                    
TMS320C6x COFF Assembler PC v5.1.0 Fri Mar 25 16:51:07 2011

Tools Copyright (c) 1996-2005 Texas Instruments Incorporated
C:\DOCUME~1\yqhe\LOCALS~1\Temp\TI2522                                PAGE  125

    6589                    DW$T$92 .dwtag  DW_TAG_union_type
    6590                            .dwattr DW$T$92, DW_AT_byte_size(0x18)
    6591                    DW$484  .dwtag  DW_TAG_member, DW_AT_type(*DW$T$88)
    6592                            .dwattr DW$484, DW_AT_name("iFrm"), DW_AT_symbol_name("_iFrm")
    6593                            .dwattr DW$484, DW_AT_data_member_location[DW_OP_plus_uconst 0x0]
    6594                            .dwattr DW$484, DW_AT_accessibility(DW_ACCESS_public)
    6595                    DW$485  .dwtag  DW_TAG_member, DW_AT_type(*DW$T$89)
    6596                            .dwattr DW$485, DW_AT_name("pFrm"), DW_AT_symbol_name("_pFrm")
    6597                            .dwattr DW$485, DW_AT_data_member_location[DW_OP_plus_uconst 0x0]
    6598                            .dwattr DW$485, DW_AT_accessibility(DW_ACCESS_public)
    6599                    DW$486  .dwtag  DW_TAG_member, DW_AT_type(*DW$T$90)
    6600                            .dwattr DW$486, DW_AT_name("riFrm"), DW_AT_symbol_name("_riFrm")
    6601                            .dwattr DW$486, DW_AT_data_member_location[DW_OP_plus_uconst 0x0]
    6602                            .dwattr DW$486, DW_AT_accessibility(DW_ACCESS_public)
    6603                    DW$487  .dwtag  DW_TAG_member, DW_AT_type(*DW$T$91)
    6604                            .dwattr DW$487, DW_AT_name("rpFrm"), DW_AT_symbol_name("_rpFrm")
    6605                            .dwattr DW$487, DW_AT_data_member_location[DW_OP_plus_uconst 0x0]
    6606                            .dwattr DW$487, DW_AT_accessibility(DW_ACCESS_public)
    6607                            .dwendtag DW$T$92
    6608                    
    6609                    DW$T$117        .dwtag  DW_TAG_typedef, DW_AT_name("dsp_tsk_control_t"), DW_AT_type(*DW$T$94)
    6610                            .dwattr DW$T$117, DW_AT_language(DW_LANG_C)
    6611                    DW$T$99 .dwtag  DW_TAG_typedef, DW_AT_name("dsp_tsk_policy_t"), DW_AT_type(*DW$T$95)
    6612                            .dwattr DW$T$99, DW_AT_language(DW_LANG_C)
    6613                    DW$T$118        .dwtag  DW_TAG_typedef, DW_AT_name("dsp_tsk_flag_t"), DW_AT_type(*DW$T$98)
    6614                            .dwattr DW$T$118, DW_AT_language(DW_LANG_C)
    6615                    DW$T$119        .dwtag  DW_TAG_typedef, DW_AT_name("dsp_algorithm_result_t"), DW_AT_type(*DW$T$100)
    6616                            .dwattr DW$T$119, DW_AT_language(DW_LANG_C)
    6617                    DW$T$120        .dwtag  DW_TAG_typedef, DW_AT_name("dsp_algorithm_sound_t"), DW_AT_type(*DW$T$101)
    6618                            .dwattr DW$T$120, DW_AT_language(DW_LANG_C)
    6619                    DW$T$121        .dwtag  DW_TAG_typedef, DW_AT_name("dsp_algorithm_devparam_t"), DW_AT_type(*DW$T$103)
    6620                            .dwattr DW$T$121, DW_AT_language(DW_LANG_C)
    6621                    DW$T$122        .dwtag  DW_TAG_typedef, DW_AT_name("dsp_tsk_watchdog_t"), DW_AT_type(*DW$T$104)
    6622                            .dwattr DW$T$122, DW_AT_language(DW_LANG_C)
    6623                    DW$T$123        .dwtag  DW_TAG_typedef, DW_AT_name("dsp_icon_t"), DW_AT_type(*DW$T$105)
    6624                            .dwattr DW$T$123, DW_AT_language(DW_LANG_C)
    6625                    DW$T$124        .dwtag  DW_TAG_typedef, DW_AT_name("dsp_mac_t"), DW_AT_type(*DW$T$107)
    6626                            .dwattr DW$T$124, DW_AT_language(DW_LANG_C)
    6627                    DW$T$125        .dwtag  DW_TAG_typedef, DW_AT_name("dsp_copyimg_t"), DW_AT_type(*DW$T$109)
    6628                            .dwattr DW$T$125, DW_AT_language(DW_LANG_C)
    6629                    DW$T$126        .dwtag  DW_TAG_typedef, DW_AT_name("dsp_testimg_t"), DW_AT_type(*DW$T$112)
    6630                            .dwattr DW$T$126, DW_AT_language(DW_LANG_C)
    6631                    DW$T$127        .dwtag  DW_TAG_typedef, DW_AT_name("dsp_distance_ctrl_t"), DW_AT_type(*DW$T$113)
    6632                            .dwattr DW$T$127, DW_AT_language(DW_LANG_C)
    6633                    DW$T$128        .dwtag  DW_TAG_typedef, DW_AT_name("dsp_buildtime_t"), DW_AT_type(*DW$T$115)
    6634                            .dwattr DW$T$128, DW_AT_language(DW_LANG_C)
    6635                    DW$T$129        .dwtag  DW_TAG_typedef, DW_AT_name("switch_control_t"), DW_AT_type(*DW$T$116)
    6636                            .dwattr DW$T$129, DW_AT_language(DW_LANG_C)
    6637                    
    6638                    DW$T$131        .dwtag  DW_TAG_structure_type
    6639                            .dwattr DW$T$131, DW_AT_name("dsp_status_t")
    6640                            .dwattr DW$T$131, DW_AT_byte_size(0x18)
    6641                    DW$488  .dwtag  DW_TAG_member, DW_AT_type(*DW$T$9)
    6642                            .dwattr DW$488, DW_AT_name("tsk_img_status"), DW_AT_symbol_name("_tsk_img_status")
    6643                            .dwattr DW$488, DW_AT_data_member_location[DW_OP_plus_uconst 0x0]
TMS320C6x COFF Assembler PC v5.1.0 Fri Mar 25 16:51:07 2011

Tools Copyright (c) 1996-2005 Texas Instruments Incorporated
C:\DOCUME~1\yqhe\LOCALS~1\Temp\TI2522                                PAGE  126

    6644                            .dwattr DW$488, DW_AT_accessibility(DW_ACCESS_public)
    6645                    DW$489  .dwtag  DW_TAG_member, DW_AT_type(*DW$T$9)
    6646                            .dwattr DW$489, DW_AT_name("tsk_alg_status"), DW_AT_symbol_name("_tsk_alg_status")
    6647                            .dwattr DW$489, DW_AT_data_member_location[DW_OP_plus_uconst 0x2]
    6648                            .dwattr DW$489, DW_AT_accessibility(DW_ACCESS_public)
    6649                    DW$490  .dwtag  DW_TAG_member, DW_AT_type(*DW$T$9)
    6650                            .dwattr DW$490, DW_AT_name("tsk_alg_saved_status"), DW_AT_symbol_name("_tsk_alg_saved_status")
    6651                            .dwattr DW$490, DW_AT_data_member_location[DW_OP_plus_uconst 0x4]
    6652                            .dwattr DW$490, DW_AT_accessibility(DW_ACCESS_public)
    6653                    DW$491  .dwtag  DW_TAG_member, DW_AT_type(*DW$T$9)
    6654                            .dwattr DW$491, DW_AT_name("tsk_alg_inuse"), DW_AT_symbol_name("_tsk_alg_inuse")
    6655                            .dwattr DW$491, DW_AT_data_member_location[DW_OP_plus_uconst 0x6]
    6656                            .dwattr DW$491, DW_AT_accessibility(DW_ACCESS_public)
    6657                    DW$492  .dwtag  DW_TAG_member, DW_AT_type(*DW$T$10)
    6658                            .dwattr DW$492, DW_AT_name("proc_start_time"), DW_AT_symbol_name("_proc_start_time")
    6659                            .dwattr DW$492, DW_AT_data_member_location[DW_OP_plus_uconst 0x8]
    6660                            .dwattr DW$492, DW_AT_accessibility(DW_ACCESS_public)
    6661                    DW$493  .dwtag  DW_TAG_member, DW_AT_type(*DW$T$10)
    6662                            .dwattr DW$493, DW_AT_name("proc_timeout"), DW_AT_symbol_name("_proc_timeout")
    6663                            .dwattr DW$493, DW_AT_data_member_location[DW_OP_plus_uconst 0xc]
    6664                            .dwattr DW$493, DW_AT_accessibility(DW_ACCESS_public)
    6665                    DW$494  .dwtag  DW_TAG_member, DW_AT_type(*DW$T$11)
    6666                            .dwattr DW$494, DW_AT_name("tsk_testimg_tag_left"), DW_AT_symbol_name("_tsk_testimg_tag_left")
    6667                            .dwattr DW$494, DW_AT_data_member_location[DW_OP_plus_uconst 0x10]
    6668                            .dwattr DW$494, DW_AT_accessibility(DW_ACCESS_public)
    6669                    DW$495  .dwtag  DW_TAG_member, DW_AT_type(*DW$T$11)
    6670                            .dwattr DW$495, DW_AT_name("tsk_testimg_tag_right"), DW_AT_symbol_name("_tsk_testimg_tag_right
    6671                            .dwattr DW$495, DW_AT_data_member_location[DW_OP_plus_uconst 0x14]
    6672                            .dwattr DW$495, DW_AT_accessibility(DW_ACCESS_public)
    6673                            .dwendtag DW$T$131
    6674                    
    6675                    
    6676                    DW$T$132        .dwtag  DW_TAG_structure_type
    6677                            .dwattr DW$T$132, DW_AT_name("dsp_distance_t")
    6678                            .dwattr DW$T$132, DW_AT_byte_size(0x24)
    6679                    DW$496  .dwtag  DW_TAG_member, DW_AT_type(*DW$T$11)
    6680                            .dwattr DW$496, DW_AT_name("same_count"), DW_AT_symbol_name("_same_count")
    6681                            .dwattr DW$496, DW_AT_data_member_location[DW_OP_plus_uconst 0x0]
    6682                            .dwattr DW$496, DW_AT_accessibility(DW_ACCESS_public)
    6683                    DW$497  .dwtag  DW_TAG_member, DW_AT_type(*DW$T$11)
    6684                            .dwattr DW$497, DW_AT_name("last_distance"), DW_AT_symbol_name("_last_distance")
    6685                            .dwattr DW$497, DW_AT_data_member_location[DW_OP_plus_uconst 0x4]
    6686                            .dwattr DW$497, DW_AT_accessibility(DW_ACCESS_public)
    6687                    DW$498  .dwtag  DW_TAG_member, DW_AT_type(*DW$T$11)
    6688                            .dwattr DW$498, DW_AT_name("if_has_people"), DW_AT_symbol_name("_if_has_people")
    6689                            .dwattr DW$498, DW_AT_data_member_location[DW_OP_plus_uconst 0x8]
    6690                            .dwattr DW$498, DW_AT_accessibility(DW_ACCESS_public)
    6691                    DW$499  .dwtag  DW_TAG_member, DW_AT_type(*DW$T$11)
    6692                            .dwattr DW$499, DW_AT_name("last_if_has"), DW_AT_symbol_name("_last_if_has")
    6693                            .dwattr DW$499, DW_AT_data_member_location[DW_OP_plus_uconst 0xc]
    6694                            .dwattr DW$499, DW_AT_accessibility(DW_ACCESS_public)
    6695                    DW$500  .dwtag  DW_TAG_member, DW_AT_type(*DW$T$11)
    6696                            .dwattr DW$500, DW_AT_name("no_count"), DW_AT_symbol_name("_no_count")
    6697                            .dwattr DW$500, DW_AT_data_member_location[DW_OP_plus_uconst 0x10]
    6698                            .dwattr DW$500, DW_AT_accessibility(DW_ACCESS_public)
TMS320C6x COFF Assembler PC v5.1.0 Fri Mar 25 16:51:07 2011

Tools Copyright (c) 1996-2005 Texas Instruments Incorporated
C:\DOCUME~1\yqhe\LOCALS~1\Temp\TI2522                                PAGE  127

    6699                    DW$501  .dwtag  DW_TAG_member, DW_AT_type(*DW$T$11)
    6700                            .dwattr DW$501, DW_AT_name("has_count"), DW_AT_symbol_name("_has_count")
    6701                            .dwattr DW$501, DW_AT_data_member_location[DW_OP_plus_uconst 0x14]
    6702                            .dwattr DW$501, DW_AT_accessibility(DW_ACCESS_public)
    6703                    DW$502  .dwtag  DW_TAG_member, DW_AT_type(*DW$T$11)
    6704                            .dwattr DW$502, DW_AT_name("disp_count"), DW_AT_symbol_name("_disp_count")
    6705                            .dwattr DW$502, DW_AT_data_member_location[DW_OP_plus_uconst 0x18]
    6706                            .dwattr DW$502, DW_AT_accessibility(DW_ACCESS_public)
    6707                    DW$503  .dwtag  DW_TAG_member, DW_AT_type(*DW$T$11)
    6708                            .dwattr DW$503, DW_AT_name("if_disp_image"), DW_AT_symbol_name("_if_disp_image")
    6709                            .dwattr DW$503, DW_AT_data_member_location[DW_OP_plus_uconst 0x1c]
    6710                            .dwattr DW$503, DW_AT_accessibility(DW_ACCESS_public)
    6711                    DW$504  .dwtag  DW_TAG_member, DW_AT_type(*DW$T$11)
    6712                            .dwattr DW$504, DW_AT_name("wait_frame"), DW_AT_symbol_name("_wait_frame")
    6713                            .dwattr DW$504, DW_AT_data_member_location[DW_OP_plus_uconst 0x20]
    6714                            .dwattr DW$504, DW_AT_accessibility(DW_ACCESS_public)
    6715                            .dwendtag DW$T$132
    6716                    
    6717                    
    6718                    DW$T$134        .dwtag  DW_TAG_structure_type
    6719                            .dwattr DW$T$134, DW_AT_name("policy_t")
    6720                            .dwattr DW$T$134, DW_AT_byte_size(0x28)
    6721                    DW$505  .dwtag  DW_TAG_member, DW_AT_type(*DW$T$9)
    6722                            .dwattr DW$505, DW_AT_name("policy_control"), DW_AT_symbol_name("_policy_control")
    6723                            .dwattr DW$505, DW_AT_data_member_location[DW_OP_plus_uconst 0x0]
    6724                            .dwattr DW$505, DW_AT_accessibility(DW_ACCESS_public)
    6725                    DW$506  .dwtag  DW_TAG_member, DW_AT_type(*DW$T$9)
    6726                            .dwattr DW$506, DW_AT_name("iden_count"), DW_AT_symbol_name("_iden_count")
    6727                            .dwattr DW$506, DW_AT_data_member_location[DW_OP_plus_uconst 0x2]
    6728                            .dwattr DW$506, DW_AT_accessibility(DW_ACCESS_public)
    6729                    DW$507  .dwtag  DW_TAG_member, DW_AT_type(*DW$T$9)
    6730                            .dwattr DW$507, DW_AT_name("iden_mode"), DW_AT_symbol_name("_iden_mode")
    6731                            .dwattr DW$507, DW_AT_data_member_location[DW_OP_plus_uconst 0x4]
    6732                            .dwattr DW$507, DW_AT_accessibility(DW_ACCESS_public)
    6733                    DW$508  .dwtag  DW_TAG_member, DW_AT_type(*DW$T$9)
    6734                            .dwattr DW$508, DW_AT_name("data_type"), DW_AT_symbol_name("_data_type")
    6735                            .dwattr DW$508, DW_AT_data_member_location[DW_OP_plus_uconst 0x6]
    6736                            .dwattr DW$508, DW_AT_accessibility(DW_ACCESS_public)
    6737                    DW$509  .dwtag  DW_TAG_member, DW_AT_type(*DW$T$133)
    6738                            .dwattr DW$509, DW_AT_name("enroll_score_l"), DW_AT_symbol_name("_enroll_score_l")
    6739                            .dwattr DW$509, DW_AT_data_member_location[DW_OP_plus_uconst 0x8]
    6740                            .dwattr DW$509, DW_AT_accessibility(DW_ACCESS_public)
    6741                    DW$510  .dwtag  DW_TAG_member, DW_AT_type(*DW$T$133)
    6742                            .dwattr DW$510, DW_AT_name("enroll_score_r"), DW_AT_symbol_name("_enroll_score_r")
    6743                            .dwattr DW$510, DW_AT_data_member_location[DW_OP_plus_uconst 0x18]
    6744                            .dwattr DW$510, DW_AT_accessibility(DW_ACCESS_public)
    6745                            .dwendtag DW$T$134
    6746                    
    6747                    
    6748                    DW$T$135        .dwtag  DW_TAG_structure_type
    6749                            .dwattr DW$T$135, DW_AT_name("dsp_sound_t")
    6750                            .dwattr DW$T$135, DW_AT_byte_size(0x08)
    6751                    DW$511  .dwtag  DW_TAG_member, DW_AT_type(*DW$T$11)
    6752                            .dwattr DW$511, DW_AT_name("last_sound_time"), DW_AT_symbol_name("_last_sound_time")
    6753                            .dwattr DW$511, DW_AT_data_member_location[DW_OP_plus_uconst 0x0]
TMS320C6x COFF Assembler PC v5.1.0 Fri Mar 25 16:51:07 2011

Tools Copyright (c) 1996-2005 Texas Instruments Incorporated
C:\DOCUME~1\yqhe\LOCALS~1\Temp\TI2522                                PAGE  128

    6754                            .dwattr DW$511, DW_AT_accessibility(DW_ACCESS_public)
    6755                    DW$512  .dwtag  DW_TAG_member, DW_AT_type(*DW$T$11)
    6756                            .dwattr DW$512, DW_AT_name("last_sound_value"), DW_AT_symbol_name("_last_sound_value")
    6757                            .dwattr DW$512, DW_AT_data_member_location[DW_OP_plus_uconst 0x4]
    6758                            .dwattr DW$512, DW_AT_accessibility(DW_ACCESS_public)
    6759                            .dwendtag DW$T$135
    6760                    
    6761                    
    6762                    DW$T$137        .dwtag  DW_TAG_structure_type
    6763                            .dwattr DW$T$137, DW_AT_name("dsp_result_t")
    6764                            .dwattr DW$T$137, DW_AT_byte_size(0x0c)
    6765                    DW$513  .dwtag  DW_TAG_member, DW_AT_type(*DW$T$136)
    6766                            .dwattr DW$513, DW_AT_name("count"), DW_AT_symbol_name("_count")
    6767                            .dwattr DW$513, DW_AT_data_member_location[DW_OP_plus_uconst 0x0]
    6768                            .dwattr DW$513, DW_AT_accessibility(DW_ACCESS_public)
    6769                    DW$514  .dwtag  DW_TAG_member, DW_AT_type(*DW$T$136)
    6770                            .dwattr DW$514, DW_AT_name("result"), DW_AT_symbol_name("_result")
    6771                            .dwattr DW$514, DW_AT_data_member_location[DW_OP_plus_uconst 0x4]
    6772                            .dwattr DW$514, DW_AT_accessibility(DW_ACCESS_public)
    6773                    DW$515  .dwtag  DW_TAG_member, DW_AT_type(*DW$T$136)
    6774                            .dwattr DW$515, DW_AT_name("grab_iden_result"), DW_AT_symbol_name("_grab_iden_result")
    6775                            .dwattr DW$515, DW_AT_data_member_location[DW_OP_plus_uconst 0x8]
    6776                            .dwattr DW$515, DW_AT_accessibility(DW_ACCESS_public)
    6777                            .dwendtag DW$T$137
    6778                    
    6779                    DW$T$64 .dwtag  DW_TAG_pointer_type, DW_AT_type(*DW$T$63)
    6780                            .dwattr DW$T$64, DW_AT_address_class(0x20)
    6781                    
    6782                    DW$T$136        .dwtag  DW_TAG_array_type, DW_AT_type(*DW$T$8)
    6783                            .dwattr DW$T$136, DW_AT_language(DW_LANG_C)
    6784                            .dwattr DW$T$136, DW_AT_byte_size(0x04)
    6785                    DW$516  .dwtag  DW_TAG_subrange_type
    6786                            .dwattr DW$516, DW_AT_upper_bound(0x01)
    6787                            .dwendtag DW$T$136
    6788                    
    6789                    
    6790                    DW$T$133        .dwtag  DW_TAG_array_type, DW_AT_type(*DW$T$10)
    6791                            .dwattr DW$T$133, DW_AT_language(DW_LANG_C)
    6792                            .dwattr DW$T$133, DW_AT_byte_size(0x10)
    6793                    DW$517  .dwtag  DW_TAG_subrange_type
    6794                            .dwattr DW$517, DW_AT_upper_bound(0x03)
    6795                            .dwendtag DW$T$133
    6796                    
    6797                    DW$T$20 .dwtag  DW_TAG_volatile_type
    6798                            .dwattr DW$T$20, DW_AT_type(*DW$T$19)
    6799                    
    6800                    DW$T$24 .dwtag  DW_TAG_structure_type
    6801                            .dwattr DW$T$24, DW_AT_name("QUE_Elem")
    6802                            .dwattr DW$T$24, DW_AT_byte_size(0x08)
    6803                    DW$518  .dwtag  DW_TAG_member, DW_AT_type(*DW$T$23)
    6804                            .dwattr DW$518, DW_AT_name("next"), DW_AT_symbol_name("_next")
    6805                            .dwattr DW$518, DW_AT_data_member_location[DW_OP_plus_uconst 0x0]
    6806                            .dwattr DW$518, DW_AT_accessibility(DW_ACCESS_public)
    6807                    DW$519  .dwtag  DW_TAG_member, DW_AT_type(*DW$T$23)
    6808                            .dwattr DW$519, DW_AT_name("prev"), DW_AT_symbol_name("_prev")
TMS320C6x COFF Assembler PC v5.1.0 Fri Mar 25 16:51:07 2011

Tools Copyright (c) 1996-2005 Texas Instruments Incorporated
C:\DOCUME~1\yqhe\LOCALS~1\Temp\TI2522                                PAGE  129

    6809                            .dwattr DW$519, DW_AT_data_member_location[DW_OP_plus_uconst 0x4]
    6810                            .dwattr DW$519, DW_AT_accessibility(DW_ACCESS_public)
    6811                            .dwendtag DW$T$24
    6812                    
    6813                    DW$T$23 .dwtag  DW_TAG_pointer_type, DW_AT_type(*DW$T$24)
    6814                            .dwattr DW$T$23, DW_AT_address_class(0x20)
    6815                    DW$T$44 .dwtag  DW_TAG_typedef, DW_AT_name("DEV_Frame"), DW_AT_type(*DW$T$30)
    6816                            .dwattr DW$T$44, DW_AT_language(DW_LANG_C)
    6817                    DW$T$58 .dwtag  DW_TAG_typedef, DW_AT_name("IOM_Fxns"), DW_AT_type(*DW$T$57)
    6818                            .dwattr DW$T$58, DW_AT_language(DW_LANG_C)
    6819                    DW$T$88 .dwtag  DW_TAG_typedef, DW_AT_name("FVID_IFrame"), DW_AT_type(*DW$T$84)
    6820                            .dwattr DW$T$88, DW_AT_language(DW_LANG_C)
    6821                    DW$T$89 .dwtag  DW_TAG_typedef, DW_AT_name("FVID_PFrame"), DW_AT_type(*DW$T$85)
    6822                            .dwattr DW$T$89, DW_AT_language(DW_LANG_C)
    6823                    DW$T$90 .dwtag  DW_TAG_typedef, DW_AT_name("FVID_RawIFrame"), DW_AT_type(*DW$T$86)
    6824                            .dwattr DW$T$90, DW_AT_language(DW_LANG_C)
    6825                    DW$T$91 .dwtag  DW_TAG_typedef, DW_AT_name("FVID_RawPFrame"), DW_AT_type(*DW$T$87)
    6826                            .dwattr DW$T$91, DW_AT_language(DW_LANG_C)
    6827                    
    6828                    DW$T$94 .dwtag  DW_TAG_structure_type
    6829                            .dwattr DW$T$94, DW_AT_name("dsp_tsk_control_t")
    6830                            .dwattr DW$T$94, DW_AT_byte_size(0x0c)
    6831                    DW$520  .dwtag  DW_TAG_member, DW_AT_type(*DW$T$9)
    6832                            .dwattr DW$520, DW_AT_name("tsk_img_control"), DW_AT_symbol_name("_tsk_img_control")
    6833                            .dwattr DW$520, DW_AT_data_member_location[DW_OP_plus_uconst 0x0]
    6834                            .dwattr DW$520, DW_AT_accessibility(DW_ACCESS_public)
    6835                    DW$521  .dwtag  DW_TAG_member, DW_AT_type(*DW$T$9)
    6836                            .dwattr DW$521, DW_AT_name("tsk_img_control_count"), DW_AT_symbol_name("_tsk_img_control_count
    6837                            .dwattr DW$521, DW_AT_data_member_location[DW_OP_plus_uconst 0x2]
    6838                            .dwattr DW$521, DW_AT_accessibility(DW_ACCESS_public)
    6839                    DW$522  .dwtag  DW_TAG_member, DW_AT_type(*DW$T$9)
    6840                            .dwattr DW$522, DW_AT_name("tsk_alg_control"), DW_AT_symbol_name("_tsk_alg_control")
    6841                            .dwattr DW$522, DW_AT_data_member_location[DW_OP_plus_uconst 0x4]
    6842                            .dwattr DW$522, DW_AT_accessibility(DW_ACCESS_public)
    6843                    DW$523  .dwtag  DW_TAG_member, DW_AT_type(*DW$T$9)
    6844                            .dwattr DW$523, DW_AT_name("tsk_alg_control_count"), DW_AT_symbol_name("_tsk_alg_control_count
    6845                            .dwattr DW$523, DW_AT_data_member_location[DW_OP_plus_uconst 0x6]
    6846                            .dwattr DW$523, DW_AT_accessibility(DW_ACCESS_public)
    6847                    DW$524  .dwtag  DW_TAG_member, DW_AT_type(*DW$T$11)
    6848                            .dwattr DW$524, DW_AT_name("tsk_adc_value"), DW_AT_symbol_name("_tsk_adc_value")
    6849                            .dwattr DW$524, DW_AT_data_member_location[DW_OP_plus_uconst 0x8]
    6850                            .dwattr DW$524, DW_AT_accessibility(DW_ACCESS_public)
    6851                            .dwendtag DW$T$94
    6852                    
    6853                    
    6854                    DW$T$95 .dwtag  DW_TAG_structure_type
    6855                            .dwattr DW$T$95, DW_AT_name("dsp_tsk_policy_t")
    6856                            .dwattr DW$T$95, DW_AT_byte_size(0x0c)
    6857                    DW$525  .dwtag  DW_TAG_member, DW_AT_type(*DW$T$9)
    6858                            .dwattr DW$525, DW_AT_name("policy_control"), DW_AT_symbol_name("_policy_control")
    6859                            .dwattr DW$525, DW_AT_data_member_location[DW_OP_plus_uconst 0x0]
    6860                            .dwattr DW$525, DW_AT_accessibility(DW_ACCESS_public)
    6861                    DW$526  .dwtag  DW_TAG_member, DW_AT_type(*DW$T$9)
    6862                            .dwattr DW$526, DW_AT_name("try_count"), DW_AT_symbol_name("_try_count")
    6863                            .dwattr DW$526, DW_AT_data_member_location[DW_OP_plus_uconst 0x2]
TMS320C6x COFF Assembler PC v5.1.0 Fri Mar 25 16:51:07 2011

Tools Copyright (c) 1996-2005 Texas Instruments Incorporated
C:\DOCUME~1\yqhe\LOCALS~1\Temp\TI2522                                PAGE  130

    6864                            .dwattr DW$526, DW_AT_accessibility(DW_ACCESS_public)
    6865                    DW$527  .dwtag  DW_TAG_member, DW_AT_type(*DW$T$9)
    6866                            .dwattr DW$527, DW_AT_name("iden_mode"), DW_AT_symbol_name("_iden_mode")
    6867                            .dwattr DW$527, DW_AT_data_member_location[DW_OP_plus_uconst 0x4]
    6868                            .dwattr DW$527, DW_AT_accessibility(DW_ACCESS_public)
    6869                    DW$528  .dwtag  DW_TAG_member, DW_AT_type(*DW$T$9)
    6870                            .dwattr DW$528, DW_AT_name("data_type"), DW_AT_symbol_name("_data_type")
    6871                            .dwattr DW$528, DW_AT_data_member_location[DW_OP_plus_uconst 0x6]
    6872                            .dwattr DW$528, DW_AT_accessibility(DW_ACCESS_public)
    6873                    DW$529  .dwtag  DW_TAG_member, DW_AT_type(*DW$T$11)
    6874                            .dwattr DW$529, DW_AT_name("policy_flag"), DW_AT_symbol_name("_policy_flag")
    6875                            .dwattr DW$529, DW_AT_data_member_location[DW_OP_plus_uconst 0x8]
    6876                            .dwattr DW$529, DW_AT_accessibility(DW_ACCESS_public)
    6877                            .dwendtag DW$T$95
    6878                    
    6879                    
    6880                    DW$T$98 .dwtag  DW_TAG_structure_type
    6881                            .dwattr DW$T$98, DW_AT_name("dsp_tsk_flag_t")
    6882                            .dwattr DW$T$98, DW_AT_byte_size(0x1c)
    6883                    DW$530  .dwtag  DW_TAG_member, DW_AT_type(*DW$T$11)
    6884                            .dwattr DW$530, DW_AT_name("tsk_img_resp"), DW_AT_symbol_name("_tsk_img_resp")
    6885                            .dwattr DW$530, DW_AT_data_member_location[DW_OP_plus_uconst 0x0]
    6886                            .dwattr DW$530, DW_AT_accessibility(DW_ACCESS_public)
    6887                    DW$531  .dwtag  DW_TAG_member, DW_AT_type(*DW$T$9)
    6888                            .dwattr DW$531, DW_AT_name("tsk_alg_status"), DW_AT_symbol_name("_tsk_alg_status")
    6889                            .dwattr DW$531, DW_AT_data_member_location[DW_OP_plus_uconst 0x4]
    6890                            .dwattr DW$531, DW_AT_accessibility(DW_ACCESS_public)
    6891                    DW$532  .dwtag  DW_TAG_member, DW_AT_type(*DW$T$9)
    6892                            .dwattr DW$532, DW_AT_name("tsk_alg_status_count"), DW_AT_symbol_name("_tsk_alg_status_count")
    6893                            .dwattr DW$532, DW_AT_data_member_location[DW_OP_plus_uconst 0x6]
    6894                            .dwattr DW$532, DW_AT_accessibility(DW_ACCESS_public)
    6895                    DW$533  .dwtag  DW_TAG_member, DW_AT_type(*DW$T$9)
    6896                            .dwattr DW$533, DW_AT_name("req_tsk_alg_control"), DW_AT_symbol_name("_req_tsk_alg_control")
    6897                            .dwattr DW$533, DW_AT_data_member_location[DW_OP_plus_uconst 0x8]
    6898                            .dwattr DW$533, DW_AT_accessibility(DW_ACCESS_public)
    6899                    DW$534  .dwtag  DW_TAG_member, DW_AT_type(*DW$T$9)
    6900                            .dwattr DW$534, DW_AT_name("req_tsk_alg_control_count"), DW_AT_symbol_name("_req_tsk_alg_contr
    6901                            .dwattr DW$534, DW_AT_data_member_location[DW_OP_plus_uconst 0xa]
    6902                            .dwattr DW$534, DW_AT_accessibility(DW_ACCESS_public)
    6903                    DW$535  .dwtag  DW_TAG_member, DW_AT_type(*DW$T$97)
    6904                            .dwattr DW$535, DW_AT_name("left_data"), DW_AT_symbol_name("_left_data")
    6905                            .dwattr DW$535, DW_AT_data_member_location[DW_OP_plus_uconst 0xc]
    6906                            .dwattr DW$535, DW_AT_accessibility(DW_ACCESS_public)
    6907                    DW$536  .dwtag  DW_TAG_member, DW_AT_type(*DW$T$97)
    6908                            .dwattr DW$536, DW_AT_name("right_data"), DW_AT_symbol_name("_right_data")
    6909                            .dwattr DW$536, DW_AT_data_member_location[DW_OP_plus_uconst 0x14]
    6910                            .dwattr DW$536, DW_AT_accessibility(DW_ACCESS_public)
    6911                            .dwendtag DW$T$98
    6912                    
    6913                    
    6914                    DW$T$100        .dwtag  DW_TAG_structure_type
    6915                            .dwattr DW$T$100, DW_AT_name("dsp_algorithm_result_t")
    6916                            .dwattr DW$T$100, DW_AT_byte_size(0x20)
    6917                    DW$537  .dwtag  DW_TAG_member, DW_AT_type(*DW$T$11)
    6918                            .dwattr DW$537, DW_AT_name("result_type"), DW_AT_symbol_name("_result_type")
TMS320C6x COFF Assembler PC v5.1.0 Fri Mar 25 16:51:07 2011

Tools Copyright (c) 1996-2005 Texas Instruments Incorporated
C:\DOCUME~1\yqhe\LOCALS~1\Temp\TI2522                                PAGE  131

    6919                            .dwattr DW$537, DW_AT_data_member_location[DW_OP_plus_uconst 0x0]
    6920                            .dwattr DW$537, DW_AT_accessibility(DW_ACCESS_public)
    6921                    DW$538  .dwtag  DW_TAG_member, DW_AT_type(*DW$T$99)
    6922                            .dwattr DW$538, DW_AT_name("policy"), DW_AT_symbol_name("_policy")
    6923                            .dwattr DW$538, DW_AT_data_member_location[DW_OP_plus_uconst 0x4]
    6924                            .dwattr DW$538, DW_AT_accessibility(DW_ACCESS_public)
    6925                    DW$539  .dwtag  DW_TAG_member, DW_AT_type(*DW$T$11)
    6926                            .dwattr DW$539, DW_AT_name("feature_tag"), DW_AT_symbol_name("_feature_tag")
    6927                            .dwattr DW$539, DW_AT_data_member_location[DW_OP_plus_uconst 0x10]
    6928                            .dwattr DW$539, DW_AT_accessibility(DW_ACCESS_public)
    6929                    DW$540  .dwtag  DW_TAG_member, DW_AT_type(*DW$T$10)
    6930                            .dwattr DW$540, DW_AT_name("left_result"), DW_AT_symbol_name("_left_result")
    6931                            .dwattr DW$540, DW_AT_data_member_location[DW_OP_plus_uconst 0x14]
    6932                            .dwattr DW$540, DW_AT_accessibility(DW_ACCESS_public)
    6933                    DW$541  .dwtag  DW_TAG_member, DW_AT_type(*DW$T$10)
    6934                            .dwattr DW$541, DW_AT_name("right_result"), DW_AT_symbol_name("_right_result")
    6935                            .dwattr DW$541, DW_AT_data_member_location[DW_OP_plus_uconst 0x18]
    6936                            .dwattr DW$541, DW_AT_accessibility(DW_ACCESS_public)
    6937                    DW$542  .dwtag  DW_TAG_member, DW_AT_type(*DW$T$3)
    6938                            .dwattr DW$542, DW_AT_name("result_data"), DW_AT_symbol_name("_result_data")
    6939                            .dwattr DW$542, DW_AT_data_member_location[DW_OP_plus_uconst 0x1c]
    6940                            .dwattr DW$542, DW_AT_accessibility(DW_ACCESS_public)
    6941                            .dwendtag DW$T$100
    6942                    
    6943                    
    6944                    DW$T$101        .dwtag  DW_TAG_structure_type
    6945                            .dwattr DW$T$101, DW_AT_name("dsp_algorithm_sound_t")
    6946                            .dwattr DW$T$101, DW_AT_byte_size(0x08)
    6947                    DW$543  .dwtag  DW_TAG_member, DW_AT_type(*DW$T$11)
    6948                            .dwattr DW$543, DW_AT_name("sound_value"), DW_AT_symbol_name("_sound_value")
    6949                            .dwattr DW$543, DW_AT_data_member_location[DW_OP_plus_uconst 0x0]
    6950                            .dwattr DW$543, DW_AT_accessibility(DW_ACCESS_public)
    6951                    DW$544  .dwtag  DW_TAG_member, DW_AT_type(*DW$T$11)
    6952                            .dwattr DW$544, DW_AT_name("sound_count"), DW_AT_symbol_name("_sound_count")
    6953                            .dwattr DW$544, DW_AT_data_member_location[DW_OP_plus_uconst 0x4]
    6954                            .dwattr DW$544, DW_AT_accessibility(DW_ACCESS_public)
    6955                            .dwendtag DW$T$101
    6956                    
    6957                    
    6958                    DW$T$103        .dwtag  DW_TAG_structure_type
    6959                            .dwattr DW$T$103, DW_AT_name("dsp_algorithm_devparam_t")
    6960                            .dwattr DW$T$103, DW_AT_byte_size(0x54)
    6961                    DW$545  .dwtag  DW_TAG_member, DW_AT_type(*DW$T$11)
    6962                            .dwattr DW$545, DW_AT_name("param_count"), DW_AT_symbol_name("_param_count")
    6963                            .dwattr DW$545, DW_AT_data_member_location[DW_OP_plus_uconst 0x0]
    6964                            .dwattr DW$545, DW_AT_accessibility(DW_ACCESS_public)
    6965                    DW$546  .dwtag  DW_TAG_member, DW_AT_type(*DW$T$102)
    6966                            .dwattr DW$546, DW_AT_name("device_param"), DW_AT_symbol_name("_device_param")
    6967                            .dwattr DW$546, DW_AT_data_member_location[DW_OP_plus_uconst 0x4]
    6968                            .dwattr DW$546, DW_AT_accessibility(DW_ACCESS_public)
    6969                            .dwendtag DW$T$103
    6970                    
    6971                    
    6972                    DW$T$104        .dwtag  DW_TAG_structure_type
    6973                            .dwattr DW$T$104, DW_AT_name("dsp_tsk_watchdog_t")
TMS320C6x COFF Assembler PC v5.1.0 Fri Mar 25 16:51:07 2011

Tools Copyright (c) 1996-2005 Texas Instruments Incorporated
C:\DOCUME~1\yqhe\LOCALS~1\Temp\TI2522                                PAGE  132

    6974                            .dwattr DW$T$104, DW_AT_byte_size(0x08)
    6975                    DW$547  .dwtag  DW_TAG_member, DW_AT_type(*DW$T$11)
    6976                            .dwattr DW$547, DW_AT_name("tsk_img_watchdog"), DW_AT_symbol_name("_tsk_img_watchdog")
    6977                            .dwattr DW$547, DW_AT_data_member_location[DW_OP_plus_uconst 0x0]
    6978                            .dwattr DW$547, DW_AT_accessibility(DW_ACCESS_public)
    6979                    DW$548  .dwtag  DW_TAG_member, DW_AT_type(*DW$T$11)
    6980                            .dwattr DW$548, DW_AT_name("tsk_alg_watchdog"), DW_AT_symbol_name("_tsk_alg_watchdog")
    6981                            .dwattr DW$548, DW_AT_data_member_location[DW_OP_plus_uconst 0x4]
    6982                            .dwattr DW$548, DW_AT_accessibility(DW_ACCESS_public)
    6983                            .dwendtag DW$T$104
    6984                    
    6985                    
    6986                    DW$T$105        .dwtag  DW_TAG_structure_type
    6987                            .dwattr DW$T$105, DW_AT_name("dsp_icon_t")
    6988                            .dwattr DW$T$105, DW_AT_byte_size(0x14)
    6989                    DW$549  .dwtag  DW_TAG_member, DW_AT_type(*DW$T$11)
    6990                            .dwattr DW$549, DW_AT_name("req_icon_control"), DW_AT_symbol_name("_req_icon_control")
    6991                            .dwattr DW$549, DW_AT_data_member_location[DW_OP_plus_uconst 0x0]
    6992                            .dwattr DW$549, DW_AT_accessibility(DW_ACCESS_public)
    6993                    DW$550  .dwtag  DW_TAG_member, DW_AT_type(*DW$T$11)
    6994                            .dwattr DW$550, DW_AT_name("req_icon_id"), DW_AT_symbol_name("_req_icon_id")
    6995                            .dwattr DW$550, DW_AT_data_member_location[DW_OP_plus_uconst 0x4]
    6996                            .dwattr DW$550, DW_AT_accessibility(DW_ACCESS_public)
    6997                    DW$551  .dwtag  DW_TAG_member, DW_AT_type(*DW$T$11)
    6998                            .dwattr DW$551, DW_AT_name("dsp_icon_state"), DW_AT_symbol_name("_dsp_icon_state")
    6999                            .dwattr DW$551, DW_AT_data_member_location[DW_OP_plus_uconst 0x8]
    7000                            .dwattr DW$551, DW_AT_accessibility(DW_ACCESS_public)
    7001                    DW$552  .dwtag  DW_TAG_member, DW_AT_type(*DW$T$97)
    7002                            .dwattr DW$552, DW_AT_name("icon_data"), DW_AT_symbol_name("_icon_data")
    7003                            .dwattr DW$552, DW_AT_data_member_location[DW_OP_plus_uconst 0xc]
    7004                            .dwattr DW$552, DW_AT_accessibility(DW_ACCESS_public)
    7005                            .dwendtag DW$T$105
    7006                    
    7007                    
    7008                    DW$T$107        .dwtag  DW_TAG_structure_type
    7009                            .dwattr DW$T$107, DW_AT_name("dsp_mac_t")
    7010                            .dwattr DW$T$107, DW_AT_byte_size(0x08)
    7011                    DW$553  .dwtag  DW_TAG_member, DW_AT_type(*DW$T$106)
    7012                            .dwattr DW$553, DW_AT_name("mac_val"), DW_AT_symbol_name("_mac_val")
    7013                            .dwattr DW$553, DW_AT_data_member_location[DW_OP_plus_uconst 0x0]
    7014                            .dwattr DW$553, DW_AT_accessibility(DW_ACCESS_public)
    7015                            .dwendtag DW$T$107
    7016                    
    7017                    
    7018                    DW$T$109        .dwtag  DW_TAG_structure_type
    7019                            .dwattr DW$T$109, DW_AT_name("dsp_copyimg_t")
    7020                            .dwattr DW$T$109, DW_AT_byte_size(0x08)
    7021                    DW$554  .dwtag  DW_TAG_member, DW_AT_type(*DW$T$108)
    7022                            .dwattr DW$554, DW_AT_name("left_param"), DW_AT_symbol_name("_left_param")
    7023                            .dwattr DW$554, DW_AT_data_member_location[DW_OP_plus_uconst 0x0]
    7024                            .dwattr DW$554, DW_AT_accessibility(DW_ACCESS_public)
    7025                    DW$555  .dwtag  DW_TAG_member, DW_AT_type(*DW$T$108)
    7026                            .dwattr DW$555, DW_AT_name("right_param"), DW_AT_symbol_name("_right_param")
    7027                            .dwattr DW$555, DW_AT_data_member_location[DW_OP_plus_uconst 0x4]
    7028                            .dwattr DW$555, DW_AT_accessibility(DW_ACCESS_public)
TMS320C6x COFF Assembler PC v5.1.0 Fri Mar 25 16:51:07 2011

Tools Copyright (c) 1996-2005 Texas Instruments Incorporated
C:\DOCUME~1\yqhe\LOCALS~1\Temp\TI2522                                PAGE  133

    7029                            .dwendtag DW$T$109
    7030                    
    7031                    
    7032                    DW$T$112        .dwtag  DW_TAG_structure_type
    7033                            .dwattr DW$T$112, DW_AT_name("dsp_testimg_t")
    7034                            .dwattr DW$T$112, DW_AT_byte_size(0x28)
    7035                    DW$556  .dwtag  DW_TAG_member, DW_AT_type(*DW$T$111)
    7036                            .dwattr DW$556, DW_AT_name("left_eye"), DW_AT_symbol_name("_left_eye")
    7037                            .dwattr DW$556, DW_AT_data_member_location[DW_OP_plus_uconst 0x0]
    7038                            .dwattr DW$556, DW_AT_accessibility(DW_ACCESS_public)
    7039                    DW$557  .dwtag  DW_TAG_member, DW_AT_type(*DW$T$111)
    7040                            .dwattr DW$557, DW_AT_name("right_eye"), DW_AT_symbol_name("_right_eye")
    7041                            .dwattr DW$557, DW_AT_data_member_location[DW_OP_plus_uconst 0x14]
    7042                            .dwattr DW$557, DW_AT_accessibility(DW_ACCESS_public)
    7043                            .dwendtag DW$T$112
    7044                    
    7045                    
    7046                    DW$T$113        .dwtag  DW_TAG_structure_type
    7047                            .dwattr DW$T$113, DW_AT_name("dsp_distance_ctrl_t")
    7048                            .dwattr DW$T$113, DW_AT_byte_size(0x10)
    7049                    DW$558  .dwtag  DW_TAG_member, DW_AT_type(*DW$T$9)
    7050                            .dwattr DW$558, DW_AT_name("adc_noperson"), DW_AT_symbol_name("_adc_noperson")
    7051                            .dwattr DW$558, DW_AT_data_member_location[DW_OP_plus_uconst 0x0]
    7052                            .dwattr DW$558, DW_AT_accessibility(DW_ACCESS_public)
    7053                    DW$559  .dwtag  DW_TAG_member, DW_AT_type(*DW$T$9)
    7054                            .dwattr DW$559, DW_AT_name("adc_toofar"), DW_AT_symbol_name("_adc_toofar")
    7055                            .dwattr DW$559, DW_AT_data_member_location[DW_OP_plus_uconst 0x2]
    7056                            .dwattr DW$559, DW_AT_accessibility(DW_ACCESS_public)
    7057                    DW$560  .dwtag  DW_TAG_member, DW_AT_type(*DW$T$9)
    7058                            .dwattr DW$560, DW_AT_name("adc_ok"), DW_AT_symbol_name("_adc_ok")
    7059                            .dwattr DW$560, DW_AT_data_member_location[DW_OP_plus_uconst 0x4]
    7060                            .dwattr DW$560, DW_AT_accessibility(DW_ACCESS_public)
    7061                    DW$561  .dwtag  DW_TAG_member, DW_AT_type(*DW$T$9)
    7062                            .dwattr DW$561, DW_AT_name("adc_tooclose"), DW_AT_symbol_name("_adc_tooclose")
    7063                            .dwattr DW$561, DW_AT_data_member_location[DW_OP_plus_uconst 0x6]
    7064                            .dwattr DW$561, DW_AT_accessibility(DW_ACCESS_public)
    7065                    DW$562  .dwtag  DW_TAG_member, DW_AT_type(*DW$T$9)
    7066                            .dwattr DW$562, DW_AT_name("adc_smooth"), DW_AT_symbol_name("_adc_smooth")
    7067                            .dwattr DW$562, DW_AT_data_member_location[DW_OP_plus_uconst 0x8]
    7068                            .dwattr DW$562, DW_AT_accessibility(DW_ACCESS_public)
    7069                    DW$563  .dwtag  DW_TAG_member, DW_AT_type(*DW$T$9)
    7070                            .dwattr DW$563, DW_AT_name("adc_noperson_disp"), DW_AT_symbol_name("_adc_noperson_disp")
    7071                            .dwattr DW$563, DW_AT_data_member_location[DW_OP_plus_uconst 0xa]
    7072                            .dwattr DW$563, DW_AT_accessibility(DW_ACCESS_public)
    7073                    DW$564  .dwtag  DW_TAG_member, DW_AT_type(*DW$T$9)
    7074                            .dwattr DW$564, DW_AT_name("adc_play_sound"), DW_AT_symbol_name("_adc_play_sound")
    7075                            .dwattr DW$564, DW_AT_data_member_location[DW_OP_plus_uconst 0xc]
    7076                            .dwattr DW$564, DW_AT_accessibility(DW_ACCESS_public)
    7077                    DW$565  .dwtag  DW_TAG_member, DW_AT_type(*DW$T$9)
    7078                            .dwattr DW$565, DW_AT_name("adc_nouse"), DW_AT_symbol_name("_adc_nouse")
    7079                            .dwattr DW$565, DW_AT_data_member_location[DW_OP_plus_uconst 0xe]
    7080                            .dwattr DW$565, DW_AT_accessibility(DW_ACCESS_public)
    7081                            .dwendtag DW$T$113
    7082                    
    7083                    
TMS320C6x COFF Assembler PC v5.1.0 Fri Mar 25 16:51:07 2011

Tools Copyright (c) 1996-2005 Texas Instruments Incorporated
C:\DOCUME~1\yqhe\LOCALS~1\Temp\TI2522                                PAGE  134

    7084                    DW$T$115        .dwtag  DW_TAG_structure_type
    7085                            .dwattr DW$T$115, DW_AT_name("dsp_buildtime_t")
    7086                            .dwattr DW$T$115, DW_AT_byte_size(0x20)
    7087                    DW$566  .dwtag  DW_TAG_member, DW_AT_type(*DW$T$114)
    7088                            .dwattr DW$566, DW_AT_name("datetime"), DW_AT_symbol_name("_datetime")
    7089                            .dwattr DW$566, DW_AT_data_member_location[DW_OP_plus_uconst 0x0]
    7090                            .dwattr DW$566, DW_AT_accessibility(DW_ACCESS_public)
    7091                            .dwendtag DW$T$115
    7092                    
    7093                    
    7094                    DW$T$116        .dwtag  DW_TAG_structure_type
    7095                            .dwattr DW$T$116, DW_AT_name("switch_control_t")
    7096                            .dwattr DW$T$116, DW_AT_byte_size(0x04)
    7097                    DW$567  .dwtag  DW_TAG_member, DW_AT_type(*DW$T$11)
    7098                            .dwattr DW$567, DW_AT_name("ctrls"), DW_AT_symbol_name("_ctrls")
    7099                            .dwattr DW$567, DW_AT_data_member_location[DW_OP_plus_uconst 0x0]
    7100                            .dwattr DW$567, DW_AT_accessibility(DW_ACCESS_public)
    7101                            .dwendtag DW$T$116
    7102                    
    7103                    
    7104                    DW$T$63 .dwtag  DW_TAG_subroutine_type
    7105                            .dwattr DW$T$63, DW_AT_language(DW_LANG_C)
    7106                    DW$568  .dwtag  DW_TAG_formal_parameter, DW_AT_type(*DW$T$26)
    7107                    DW$569  .dwtag  DW_TAG_formal_parameter, DW_AT_type(*DW$T$28)
    7108                    DW$570  .dwtag  DW_TAG_formal_parameter, DW_AT_type(*DW$T$26)
    7109                    DW$571  .dwtag  DW_TAG_formal_parameter, DW_AT_type(*DW$T$27)
    7110                            .dwendtag DW$T$63
    7111                    
    7112                    
    7113                    DW$T$106        .dwtag  DW_TAG_array_type, DW_AT_type(*DW$T$6)
    7114                            .dwattr DW$T$106, DW_AT_language(DW_LANG_C)
    7115                            .dwattr DW$T$106, DW_AT_byte_size(0x08)
    7116                    DW$572  .dwtag  DW_TAG_subrange_type
    7117                            .dwattr DW$572, DW_AT_upper_bound(0x07)
    7118                            .dwendtag DW$T$106
    7119                    
    7120                    DW$T$8  .dwtag  DW_TAG_base_type, DW_AT_name("short")
    7121                            .dwattr DW$T$8, DW_AT_encoding(DW_ATE_signed)
    7122                            .dwattr DW$T$8, DW_AT_byte_size(0x02)
    7123                    
    7124                    DW$T$102        .dwtag  DW_TAG_array_type, DW_AT_type(*DW$T$10)
    7125                            .dwattr DW$T$102, DW_AT_language(DW_LANG_C)
    7126                            .dwattr DW$T$102, DW_AT_byte_size(0x50)
    7127                    DW$573  .dwtag  DW_TAG_subrange_type
    7128                            .dwattr DW$573, DW_AT_upper_bound(0x13)
    7129                            .dwendtag DW$T$102
    7130                    
    7131                    
    7132                    DW$T$30 .dwtag  DW_TAG_structure_type
    7133                            .dwattr DW$T$30, DW_AT_name("DEV_Frame")
    7134                            .dwattr DW$T$30, DW_AT_byte_size(0x20)
    7135                    DW$574  .dwtag  DW_TAG_member, DW_AT_type(*DW$T$25)
    7136                            .dwattr DW$574, DW_AT_name("link"), DW_AT_symbol_name("_link")
    7137                            .dwattr DW$574, DW_AT_data_member_location[DW_OP_plus_uconst 0x0]
    7138                            .dwattr DW$574, DW_AT_accessibility(DW_ACCESS_public)
TMS320C6x COFF Assembler PC v5.1.0 Fri Mar 25 16:51:07 2011

Tools Copyright (c) 1996-2005 Texas Instruments Incorporated
C:\DOCUME~1\yqhe\LOCALS~1\Temp\TI2522                                PAGE  135

    7139                    DW$575  .dwtag  DW_TAG_member, DW_AT_type(*DW$T$26)
    7140                            .dwattr DW$575, DW_AT_name("addr"), DW_AT_symbol_name("_addr")
    7141                            .dwattr DW$575, DW_AT_data_member_location[DW_OP_plus_uconst 0x8]
    7142                            .dwattr DW$575, DW_AT_accessibility(DW_ACCESS_public)
    7143                    DW$576  .dwtag  DW_TAG_member, DW_AT_type(*DW$T$27)
    7144                            .dwattr DW$576, DW_AT_name("size"), DW_AT_symbol_name("_size")
    7145                            .dwattr DW$576, DW_AT_data_member_location[DW_OP_plus_uconst 0xc]
    7146                            .dwattr DW$576, DW_AT_accessibility(DW_ACCESS_public)
    7147                    DW$577  .dwtag  DW_TAG_member, DW_AT_type(*DW$T$29)
    7148                            .dwattr DW$577, DW_AT_name("misc"), DW_AT_symbol_name("_misc")
    7149                            .dwattr DW$577, DW_AT_data_member_location[DW_OP_plus_uconst 0x10]
    7150                            .dwattr DW$577, DW_AT_accessibility(DW_ACCESS_public)
    7151                    DW$578  .dwtag  DW_TAG_member, DW_AT_type(*DW$T$29)
    7152                            .dwattr DW$578, DW_AT_name("arg"), DW_AT_symbol_name("_arg")
    7153                            .dwattr DW$578, DW_AT_data_member_location[DW_OP_plus_uconst 0x14]
    7154                            .dwattr DW$578, DW_AT_accessibility(DW_ACCESS_public)
    7155                    DW$579  .dwtag  DW_TAG_member, DW_AT_type(*DW$T$27)
    7156                            .dwattr DW$579, DW_AT_name("cmd"), DW_AT_symbol_name("_cmd")
    7157                            .dwattr DW$579, DW_AT_data_member_location[DW_OP_plus_uconst 0x18]
    7158                            .dwattr DW$579, DW_AT_accessibility(DW_ACCESS_public)
    7159                    DW$580  .dwtag  DW_TAG_member, DW_AT_type(*DW$T$28)
    7160                            .dwattr DW$580, DW_AT_name("status"), DW_AT_symbol_name("_status")
    7161                            .dwattr DW$580, DW_AT_data_member_location[DW_OP_plus_uconst 0x1c]
    7162                            .dwattr DW$580, DW_AT_accessibility(DW_ACCESS_public)
    7163                            .dwendtag DW$T$30
    7164                    
    7165                    
    7166                    DW$T$114        .dwtag  DW_TAG_array_type, DW_AT_type(*DW$T$41)
    7167                            .dwattr DW$T$114, DW_AT_language(DW_LANG_C)
    7168                            .dwattr DW$T$114, DW_AT_byte_size(0x20)
    7169                    DW$581  .dwtag  DW_TAG_subrange_type
    7170                            .dwattr DW$581, DW_AT_upper_bound(0x1f)
    7171                            .dwendtag DW$T$114
    7172                    
    7173                    
    7174                    DW$T$57 .dwtag  DW_TAG_structure_type
    7175                            .dwattr DW$T$57, DW_AT_name("IOM_Fxns")
    7176                            .dwattr DW$T$57, DW_AT_byte_size(0x18)
    7177                    DW$582  .dwtag  DW_TAG_member, DW_AT_type(*DW$T$34)
    7178                            .dwattr DW$582, DW_AT_name("mdBindDev"), DW_AT_symbol_name("_mdBindDev")
    7179                            .dwattr DW$582, DW_AT_data_member_location[DW_OP_plus_uconst 0x0]
    7180                            .dwattr DW$582, DW_AT_accessibility(DW_ACCESS_public)
    7181                    DW$583  .dwtag  DW_TAG_member, DW_AT_type(*DW$T$37)
    7182                            .dwattr DW$583, DW_AT_name("mdUnBindDev"), DW_AT_symbol_name("_mdUnBindDev")
    7183                            .dwattr DW$583, DW_AT_data_member_location[DW_OP_plus_uconst 0x4]
    7184                            .dwattr DW$583, DW_AT_accessibility(DW_ACCESS_public)
    7185                    DW$584  .dwtag  DW_TAG_member, DW_AT_type(*DW$T$40)
    7186                            .dwattr DW$584, DW_AT_name("mdControlChan"), DW_AT_symbol_name("_mdControlChan")
    7187                            .dwattr DW$584, DW_AT_data_member_location[DW_OP_plus_uconst 0x8]
    7188                            .dwattr DW$584, DW_AT_accessibility(DW_ACCESS_public)
    7189                    DW$585  .dwtag  DW_TAG_member, DW_AT_type(*DW$T$52)
    7190                            .dwattr DW$585, DW_AT_name("mdCreateChan"), DW_AT_symbol_name("_mdCreateChan")
    7191                            .dwattr DW$585, DW_AT_data_member_location[DW_OP_plus_uconst 0xc]
    7192                            .dwattr DW$585, DW_AT_accessibility(DW_ACCESS_public)
    7193                    DW$586  .dwtag  DW_TAG_member, DW_AT_type(*DW$T$53)
TMS320C6x COFF Assembler PC v5.1.0 Fri Mar 25 16:51:07 2011

Tools Copyright (c) 1996-2005 Texas Instruments Incorporated
C:\DOCUME~1\yqhe\LOCALS~1\Temp\TI2522                                PAGE  136

    7194                            .dwattr DW$586, DW_AT_name("mdDeleteChan"), DW_AT_symbol_name("_mdDeleteChan")
    7195                            .dwattr DW$586, DW_AT_data_member_location[DW_OP_plus_uconst 0x10]
    7196                            .dwattr DW$586, DW_AT_accessibility(DW_ACCESS_public)
    7197                    DW$587  .dwtag  DW_TAG_member, DW_AT_type(*DW$T$56)
    7198                            .dwattr DW$587, DW_AT_name("mdSubmitChan"), DW_AT_symbol_name("_mdSubmitChan")
    7199                            .dwattr DW$587, DW_AT_data_member_location[DW_OP_plus_uconst 0x14]
    7200                            .dwattr DW$587, DW_AT_accessibility(DW_ACCESS_public)
    7201                            .dwendtag DW$T$57
    7202                    
    7203                    
    7204                    DW$T$84 .dwtag  DW_TAG_structure_type
    7205                            .dwattr DW$T$84, DW_AT_name("FVID_IFrame")
    7206                            .dwattr DW$T$84, DW_AT_byte_size(0x18)
    7207                    DW$588  .dwtag  DW_TAG_member, DW_AT_type(*DW$T$83)
    7208                            .dwattr DW$588, DW_AT_name("y1"), DW_AT_symbol_name("_y1")
    7209                            .dwattr DW$588, DW_AT_data_member_location[DW_OP_plus_uconst 0x0]
    7210                            .dwattr DW$588, DW_AT_accessibility(DW_ACCESS_public)
    7211                    DW$589  .dwtag  DW_TAG_member, DW_AT_type(*DW$T$83)
    7212                            .dwattr DW$589, DW_AT_name("cb1"), DW_AT_symbol_name("_cb1")
    7213                            .dwattr DW$589, DW_AT_data_member_location[DW_OP_plus_uconst 0x4]
    7214                            .dwattr DW$589, DW_AT_accessibility(DW_ACCESS_public)
    7215                    DW$590  .dwtag  DW_TAG_member, DW_AT_type(*DW$T$83)
    7216                            .dwattr DW$590, DW_AT_name("cr1"), DW_AT_symbol_name("_cr1")
    7217                            .dwattr DW$590, DW_AT_data_member_location[DW_OP_plus_uconst 0x8]
    7218                            .dwattr DW$590, DW_AT_accessibility(DW_ACCESS_public)
    7219                    DW$591  .dwtag  DW_TAG_member, DW_AT_type(*DW$T$83)
    7220                            .dwattr DW$591, DW_AT_name("y2"), DW_AT_symbol_name("_y2")
    7221                            .dwattr DW$591, DW_AT_data_member_location[DW_OP_plus_uconst 0xc]
    7222                            .dwattr DW$591, DW_AT_accessibility(DW_ACCESS_public)
    7223                    DW$592  .dwtag  DW_TAG_member, DW_AT_type(*DW$T$83)
    7224                            .dwattr DW$592, DW_AT_name("cb2"), DW_AT_symbol_name("_cb2")
    7225                            .dwattr DW$592, DW_AT_data_member_location[DW_OP_plus_uconst 0x10]
    7226                            .dwattr DW$592, DW_AT_accessibility(DW_ACCESS_public)
    7227                    DW$593  .dwtag  DW_TAG_member, DW_AT_type(*DW$T$83)
    7228                            .dwattr DW$593, DW_AT_name("cr2"), DW_AT_symbol_name("_cr2")
    7229                            .dwattr DW$593, DW_AT_data_member_location[DW_OP_plus_uconst 0x14]
    7230                            .dwattr DW$593, DW_AT_accessibility(DW_ACCESS_public)
    7231                            .dwendtag DW$T$84
    7232                    
    7233                    
    7234                    DW$T$85 .dwtag  DW_TAG_structure_type
    7235                            .dwattr DW$T$85, DW_AT_name("FVID_PFrame")
    7236                            .dwattr DW$T$85, DW_AT_byte_size(0x0c)
    7237                    DW$594  .dwtag  DW_TAG_member, DW_AT_type(*DW$T$83)
    7238                            .dwattr DW$594, DW_AT_name("y"), DW_AT_symbol_name("_y")
    7239                            .dwattr DW$594, DW_AT_data_member_location[DW_OP_plus_uconst 0x0]
    7240                            .dwattr DW$594, DW_AT_accessibility(DW_ACCESS_public)
    7241                    DW$595  .dwtag  DW_TAG_member, DW_AT_type(*DW$T$83)
    7242                            .dwattr DW$595, DW_AT_name("cb"), DW_AT_symbol_name("_cb")
    7243                            .dwattr DW$595, DW_AT_data_member_location[DW_OP_plus_uconst 0x4]
    7244                            .dwattr DW$595, DW_AT_accessibility(DW_ACCESS_public)
    7245                    DW$596  .dwtag  DW_TAG_member, DW_AT_type(*DW$T$83)
    7246                            .dwattr DW$596, DW_AT_name("cr"), DW_AT_symbol_name("_cr")
    7247                            .dwattr DW$596, DW_AT_data_member_location[DW_OP_plus_uconst 0x8]
    7248                            .dwattr DW$596, DW_AT_accessibility(DW_ACCESS_public)
TMS320C6x COFF Assembler PC v5.1.0 Fri Mar 25 16:51:07 2011

Tools Copyright (c) 1996-2005 Texas Instruments Incorporated
C:\DOCUME~1\yqhe\LOCALS~1\Temp\TI2522                                PAGE  137

    7249                            .dwendtag DW$T$85
    7250                    
    7251                    
    7252                    DW$T$86 .dwtag  DW_TAG_structure_type
    7253                            .dwattr DW$T$86, DW_AT_name("FVID_RawIFrame")
    7254                            .dwattr DW$T$86, DW_AT_byte_size(0x08)
    7255                    DW$597  .dwtag  DW_TAG_member, DW_AT_type(*DW$T$83)
    7256                            .dwattr DW$597, DW_AT_name("buf1"), DW_AT_symbol_name("_buf1")
    7257                            .dwattr DW$597, DW_AT_data_member_location[DW_OP_plus_uconst 0x0]
    7258                            .dwattr DW$597, DW_AT_accessibility(DW_ACCESS_public)
    7259                    DW$598  .dwtag  DW_TAG_member, DW_AT_type(*DW$T$83)
    7260                            .dwattr DW$598, DW_AT_name("buf2"), DW_AT_symbol_name("_buf2")
    7261                            .dwattr DW$598, DW_AT_data_member_location[DW_OP_plus_uconst 0x4]
    7262                            .dwattr DW$598, DW_AT_accessibility(DW_ACCESS_public)
    7263                            .dwendtag DW$T$86
    7264                    
    7265                    
    7266                    DW$T$87 .dwtag  DW_TAG_structure_type
    7267                            .dwattr DW$T$87, DW_AT_name("FVID_RawPFrame")
    7268                            .dwattr DW$T$87, DW_AT_byte_size(0x04)
    7269                    DW$599  .dwtag  DW_TAG_member, DW_AT_type(*DW$T$83)
    7270                            .dwattr DW$599, DW_AT_name("buf"), DW_AT_symbol_name("_buf")
    7271                            .dwattr DW$599, DW_AT_data_member_location[DW_OP_plus_uconst 0x0]
    7272                            .dwattr DW$599, DW_AT_accessibility(DW_ACCESS_public)
    7273                            .dwendtag DW$T$87
    7274                    
    7275                    DW$T$111        .dwtag  DW_TAG_typedef, DW_AT_name("dsp_img_t"), DW_AT_type(*DW$T$110)
    7276                            .dwattr DW$T$111, DW_AT_language(DW_LANG_C)
    7277                    DW$T$29 .dwtag  DW_TAG_typedef, DW_AT_name("Arg"), DW_AT_type(*DW$T$28)
    7278                            .dwattr DW$T$29, DW_AT_language(DW_LANG_C)
    7279                    DW$T$34 .dwtag  DW_TAG_typedef, DW_AT_name("IOM_TmdBindDev"), DW_AT_type(*DW$T$33)
    7280                            .dwattr DW$T$34, DW_AT_language(DW_LANG_C)
    7281                    DW$T$37 .dwtag  DW_TAG_typedef, DW_AT_name("IOM_TmdUnBindDev"), DW_AT_type(*DW$T$36)
    7282                            .dwattr DW$T$37, DW_AT_language(DW_LANG_C)
    7283                    DW$T$53 .dwtag  DW_TAG_typedef, DW_AT_name("IOM_TmdDeleteChan"), DW_AT_type(*DW$T$36)
    7284                            .dwattr DW$T$53, DW_AT_language(DW_LANG_C)
    7285                    DW$T$40 .dwtag  DW_TAG_typedef, DW_AT_name("IOM_TmdControlChan"), DW_AT_type(*DW$T$39)
    7286                            .dwattr DW$T$40, DW_AT_language(DW_LANG_C)
    7287                    DW$T$52 .dwtag  DW_TAG_typedef, DW_AT_name("IOM_TmdCreateChan"), DW_AT_type(*DW$T$51)
    7288                            .dwattr DW$T$52, DW_AT_language(DW_LANG_C)
    7289                    DW$T$56 .dwtag  DW_TAG_typedef, DW_AT_name("IOM_TmdSubmitChan"), DW_AT_type(*DW$T$55)
    7290                            .dwattr DW$T$56, DW_AT_language(DW_LANG_C)
    7291                    DW$T$83 .dwtag  DW_TAG_pointer_type, DW_AT_type(*DW$T$82)
    7292                            .dwattr DW$T$83, DW_AT_address_class(0x20)
    7293                    
    7294                    DW$T$110        .dwtag  DW_TAG_structure_type
    7295                            .dwattr DW$T$110, DW_AT_name("dsp_img_t")
    7296                            .dwattr DW$T$110, DW_AT_byte_size(0x14)
    7297                    DW$600  .dwtag  DW_TAG_member, DW_AT_type(*DW$T$11)
    7298                            .dwattr DW$600, DW_AT_name("tag_arm"), DW_AT_symbol_name("_tag_arm")
    7299                            .dwattr DW$600, DW_AT_data_member_location[DW_OP_plus_uconst 0x0]
    7300                            .dwattr DW$600, DW_AT_accessibility(DW_ACCESS_public)
    7301                    DW$601  .dwtag  DW_TAG_member, DW_AT_type(*DW$T$11)
    7302                            .dwattr DW$601, DW_AT_name("tag_dsp"), DW_AT_symbol_name("_tag_dsp")
    7303                            .dwattr DW$601, DW_AT_data_member_location[DW_OP_plus_uconst 0x4]
TMS320C6x COFF Assembler PC v5.1.0 Fri Mar 25 16:51:07 2011

Tools Copyright (c) 1996-2005 Texas Instruments Incorporated
C:\DOCUME~1\yqhe\LOCALS~1\Temp\TI2522                                PAGE  138

    7304                            .dwattr DW$601, DW_AT_accessibility(DW_ACCESS_public)
    7305                    DW$602  .dwtag  DW_TAG_member, DW_AT_type(*DW$T$11)
    7306                            .dwattr DW$602, DW_AT_name("type"), DW_AT_symbol_name("_type")
    7307                            .dwattr DW$602, DW_AT_data_member_location[DW_OP_plus_uconst 0x8]
    7308                            .dwattr DW$602, DW_AT_accessibility(DW_ACCESS_public)
    7309                    DW$603  .dwtag  DW_TAG_member, DW_AT_type(*DW$T$97)
    7310                            .dwattr DW$603, DW_AT_name("img_data"), DW_AT_symbol_name("_img_data")
    7311                            .dwattr DW$603, DW_AT_data_member_location[DW_OP_plus_uconst 0xc]
    7312                            .dwattr DW$603, DW_AT_accessibility(DW_ACCESS_public)
    7313                            .dwendtag DW$T$110
    7314                    
    7315                    DW$T$33 .dwtag  DW_TAG_pointer_type, DW_AT_type(*DW$T$32)
    7316                            .dwattr DW$T$33, DW_AT_address_class(0x20)
    7317                    DW$T$36 .dwtag  DW_TAG_pointer_type, DW_AT_type(*DW$T$35)
    7318                            .dwattr DW$T$36, DW_AT_address_class(0x20)
    7319                    DW$T$39 .dwtag  DW_TAG_pointer_type, DW_AT_type(*DW$T$38)
    7320                            .dwattr DW$T$39, DW_AT_address_class(0x20)
    7321                    DW$T$51 .dwtag  DW_TAG_pointer_type, DW_AT_type(*DW$T$50)
    7322                            .dwattr DW$T$51, DW_AT_address_class(0x20)
    7323                    DW$T$55 .dwtag  DW_TAG_pointer_type, DW_AT_type(*DW$T$54)
    7324                            .dwattr DW$T$55, DW_AT_address_class(0x20)
    7325                    DW$T$82 .dwtag  DW_TAG_typedef, DW_AT_name("Char"), DW_AT_type(*DW$T$41)
    7326                            .dwattr DW$T$82, DW_AT_language(DW_LANG_C)
    7327                    
    7328                    DW$T$32 .dwtag  DW_TAG_subroutine_type, DW_AT_type(*DW$T$28)
    7329                            .dwattr DW$T$32, DW_AT_language(DW_LANG_C)
    7330                    DW$604  .dwtag  DW_TAG_formal_parameter, DW_AT_type(*DW$T$31)
    7331                    DW$605  .dwtag  DW_TAG_formal_parameter, DW_AT_type(*DW$T$28)
    7332                    DW$606  .dwtag  DW_TAG_formal_parameter, DW_AT_type(*DW$T$26)
    7333                            .dwendtag DW$T$32
    7334                    
    7335                    
    7336                    DW$T$35 .dwtag  DW_TAG_subroutine_type, DW_AT_type(*DW$T$28)
    7337                            .dwattr DW$T$35, DW_AT_language(DW_LANG_C)
    7338                    DW$607  .dwtag  DW_TAG_formal_parameter, DW_AT_type(*DW$T$26)
    7339                            .dwendtag DW$T$35
    7340                    
    7341                    
    7342                    DW$T$38 .dwtag  DW_TAG_subroutine_type, DW_AT_type(*DW$T$28)
    7343                            .dwattr DW$T$38, DW_AT_language(DW_LANG_C)
    7344                    DW$608  .dwtag  DW_TAG_formal_parameter, DW_AT_type(*DW$T$26)
    7345                    DW$609  .dwtag  DW_TAG_formal_parameter, DW_AT_type(*DW$T$27)
    7346                    DW$610  .dwtag  DW_TAG_formal_parameter, DW_AT_type(*DW$T$26)
    7347                            .dwendtag DW$T$38
    7348                    
    7349                    
    7350                    DW$T$50 .dwtag  DW_TAG_subroutine_type, DW_AT_type(*DW$T$28)
    7351                            .dwattr DW$T$50, DW_AT_language(DW_LANG_C)
    7352                    DW$611  .dwtag  DW_TAG_formal_parameter, DW_AT_type(*DW$T$31)
    7353                    DW$612  .dwtag  DW_TAG_formal_parameter, DW_AT_type(*DW$T$26)
    7354                    DW$613  .dwtag  DW_TAG_formal_parameter, DW_AT_type(*DW$T$43)
    7355                    DW$614  .dwtag  DW_TAG_formal_parameter, DW_AT_type(*DW$T$28)
    7356                    DW$615  .dwtag  DW_TAG_formal_parameter, DW_AT_type(*DW$T$26)
    7357                    DW$616  .dwtag  DW_TAG_formal_parameter, DW_AT_type(*DW$T$49)
    7358                    DW$617  .dwtag  DW_TAG_formal_parameter, DW_AT_type(*DW$T$26)
TMS320C6x COFF Assembler PC v5.1.0 Fri Mar 25 16:51:07 2011

Tools Copyright (c) 1996-2005 Texas Instruments Incorporated
C:\DOCUME~1\yqhe\LOCALS~1\Temp\TI2522                                PAGE  139

    7359                            .dwendtag DW$T$50
    7360                    
    7361                    
    7362                    DW$T$54 .dwtag  DW_TAG_subroutine_type, DW_AT_type(*DW$T$28)
    7363                            .dwattr DW$T$54, DW_AT_language(DW_LANG_C)
    7364                    DW$618  .dwtag  DW_TAG_formal_parameter, DW_AT_type(*DW$T$26)
    7365                    DW$619  .dwtag  DW_TAG_formal_parameter, DW_AT_type(*DW$T$46)
    7366                            .dwendtag DW$T$54
    7367                    
    7368                    DW$T$46 .dwtag  DW_TAG_pointer_type, DW_AT_type(*DW$T$45)
    7369                            .dwattr DW$T$46, DW_AT_address_class(0x20)
    7370                    DW$T$31 .dwtag  DW_TAG_pointer_type, DW_AT_type(*DW$T$26)
    7371                            .dwattr DW$T$31, DW_AT_address_class(0x20)
    7372                    DW$T$49 .dwtag  DW_TAG_typedef, DW_AT_name("IOM_TiomCallback"), DW_AT_type(*DW$T$48)
    7373                            .dwattr DW$T$49, DW_AT_language(DW_LANG_C)
    7374                    DW$T$48 .dwtag  DW_TAG_pointer_type, DW_AT_type(*DW$T$47)
    7375                            .dwattr DW$T$48, DW_AT_address_class(0x20)
    7376                    
    7377                    DW$T$47 .dwtag  DW_TAG_subroutine_type
    7378                            .dwattr DW$T$47, DW_AT_language(DW_LANG_C)
    7379                    DW$620  .dwtag  DW_TAG_formal_parameter, DW_AT_type(*DW$T$26)
    7380                    DW$621  .dwtag  DW_TAG_formal_parameter, DW_AT_type(*DW$T$46)
    7381                            .dwendtag DW$T$47
    7382                    
    7383                    
    7384                            .dwattr DW$142, DW_AT_external(0x01)
    7385                            .dwattr DW$254, DW_AT_external(0x01)
    7386                            .dwattr DW$248, DW_AT_external(0x01)
    7387                            .dwattr DW$251, DW_AT_external(0x01)
    7388                            .dwattr DW$258, DW_AT_external(0x01)
    7389                            .dwattr DW$289, DW_AT_external(0x01)
    7390                            .dwattr DW$285, DW_AT_external(0x01)
    7391                            .dwattr DW$278, DW_AT_external(0x01)
    7392                            .dwattr DW$151, DW_AT_external(0x01)
    7393                            .dwattr DW$158, DW_AT_external(0x01)
    7394                            .dwattr DW$163, DW_AT_external(0x01)
    7395                            .dwattr DW$166, DW_AT_external(0x01)
    7396                            .dwattr DW$240, DW_AT_external(0x01)
    7397                            .dwattr DW$282, DW_AT_external(0x01)
    7398                            .dwattr DW$255, DW_AT_external(0x01)
    7399                            .dwattr DW$170, DW_AT_external(0x01)
    7400                            .dwattr DW$167, DW_AT_external(0x01)
    7401                            .dwattr DW$CU, DW_AT_language(DW_LANG_C)
    7402                    
    7403                    ;***************************************************************
    7404                    ;* DWARF CIE ENTRIES                                           *
    7405                    ;***************************************************************
    7406                    
    7407                    DW$CIE  .dwcie 1, 126
    7408                            .dwcfa  0x0c, 31, 0
    7409                            .dwcfa  0x07, 0
    7410                            .dwcfa  0x07, 1
    7411                            .dwcfa  0x07, 2
    7412                            .dwcfa  0x07, 3
    7413                            .dwcfa  0x07, 4
TMS320C6x COFF Assembler PC v5.1.0 Fri Mar 25 16:51:07 2011

Tools Copyright (c) 1996-2005 Texas Instruments Incorporated
C:\DOCUME~1\yqhe\LOCALS~1\Temp\TI2522                                PAGE  140

    7414                            .dwcfa  0x07, 5
    7415                            .dwcfa  0x07, 6
    7416                            .dwcfa  0x07, 7
    7417                            .dwcfa  0x07, 8
    7418                            .dwcfa  0x07, 9
    7419                            .dwcfa  0x08, 10
    7420                            .dwcfa  0x08, 11
    7421                            .dwcfa  0x08, 12
    7422                            .dwcfa  0x08, 13
    7423                            .dwcfa  0x08, 14
    7424                            .dwcfa  0x08, 15
    7425                            .dwcfa  0x07, 16
    7426                            .dwcfa  0x07, 17
    7427                            .dwcfa  0x07, 18
    7428                            .dwcfa  0x07, 19
    7429                            .dwcfa  0x07, 20
    7430                            .dwcfa  0x07, 21
    7431                            .dwcfa  0x07, 22
    7432                            .dwcfa  0x07, 23
    7433                            .dwcfa  0x07, 24
    7434                            .dwcfa  0x07, 25
    7435                            .dwcfa  0x08, 26
    7436                            .dwcfa  0x08, 27
    7437                            .dwcfa  0x08, 28
    7438                            .dwcfa  0x08, 29
    7439                            .dwcfa  0x08, 30
    7440                            .dwcfa  0x08, 31
    7441                            .dwcfa  0x08, 32
    7442                            .dwcfa  0x07, 33
    7443                            .dwcfa  0x07, 34
    7444                            .dwcfa  0x07, 35
    7445                            .dwcfa  0x07, 36
    7446                            .dwcfa  0x07, 37
    7447                            .dwcfa  0x07, 38
    7448                            .dwcfa  0x07, 39
    7449                            .dwcfa  0x07, 40
    7450                            .dwcfa  0x07, 41
    7451                            .dwcfa  0x07, 42
    7452                            .dwcfa  0x07, 43
    7453                            .dwcfa  0x07, 44
    7454                            .dwcfa  0x07, 45
    7455                            .dwcfa  0x07, 46
    7456                            .dwcfa  0x07, 47
    7457                            .dwcfa  0x07, 48
    7458                            .dwcfa  0x07, 49
    7459                            .dwcfa  0x07, 50
    7460                            .dwcfa  0x07, 51
    7461                            .dwcfa  0x07, 52
    7462                            .dwcfa  0x07, 53
    7463                            .dwcfa  0x07, 54
    7464                            .dwcfa  0x07, 55
    7465                            .dwcfa  0x07, 56
    7466                            .dwcfa  0x07, 57
    7467                            .dwcfa  0x07, 58
    7468                            .dwcfa  0x07, 59
TMS320C6x COFF Assembler PC v5.1.0 Fri Mar 25 16:51:07 2011

Tools Copyright (c) 1996-2005 Texas Instruments Incorporated
C:\DOCUME~1\yqhe\LOCALS~1\Temp\TI2522                                PAGE  141

    7469                            .dwcfa  0x07, 60
    7470                            .dwcfa  0x07, 61
    7471                            .dwcfa  0x07, 62
    7472                            .dwcfa  0x07, 63
    7473                            .dwcfa  0x07, 64
    7474                            .dwcfa  0x07, 65
    7475                            .dwcfa  0x07, 66
    7476                            .dwcfa  0x07, 67
    7477                            .dwcfa  0x07, 68
    7478                            .dwcfa  0x07, 69
    7479                            .dwcfa  0x07, 70
    7480                            .dwcfa  0x07, 71
    7481                            .dwcfa  0x07, 72
    7482                            .dwcfa  0x07, 73
    7483                            .dwcfa  0x07, 74
    7484                            .dwcfa  0x07, 75
    7485                            .dwcfa  0x07, 76
    7486                            .dwcfa  0x07, 77
    7487                            .dwcfa  0x07, 78
    7488                            .dwcfa  0x07, 79
    7489                            .dwcfa  0x07, 80
    7490                            .dwcfa  0x07, 81
    7491                            .dwcfa  0x07, 82
    7492                            .dwcfa  0x07, 83
    7493                            .dwcfa  0x07, 84
    7494                            .dwcfa  0x07, 85
    7495                            .dwcfa  0x07, 86
    7496                            .dwcfa  0x07, 87
    7497                            .dwcfa  0x07, 88
    7498                            .dwcfa  0x07, 89
    7499                            .dwcfa  0x07, 90
    7500                            .dwcfa  0x07, 91
    7501                            .dwcfa  0x07, 92
    7502                            .dwcfa  0x07, 93
    7503                            .dwcfa  0x07, 94
    7504                            .dwcfa  0x07, 95
    7505                            .dwcfa  0x07, 96
    7506                            .dwcfa  0x07, 97
    7507                            .dwcfa  0x07, 98
    7508                            .dwcfa  0x07, 99
    7509                            .dwcfa  0x07, 100
    7510                            .dwcfa  0x07, 101
    7511                            .dwcfa  0x07, 102
    7512                            .dwcfa  0x07, 103
    7513                            .dwcfa  0x07, 104
    7514                            .dwcfa  0x07, 105
    7515                            .dwcfa  0x07, 106
    7516                            .dwcfa  0x07, 107
    7517                            .dwcfa  0x07, 108
    7518                            .dwcfa  0x07, 109
    7519                            .dwcfa  0x07, 110
    7520                            .dwcfa  0x07, 111
    7521                            .dwcfa  0x07, 112
    7522                            .dwcfa  0x07, 113
    7523                            .dwcfa  0x07, 114
TMS320C6x COFF Assembler PC v5.1.0 Fri Mar 25 16:51:07 2011

Tools Copyright (c) 1996-2005 Texas Instruments Incorporated
C:\DOCUME~1\yqhe\LOCALS~1\Temp\TI2522                                PAGE  142

    7524                            .dwcfa  0x07, 115
    7525                            .dwcfa  0x07, 116
    7526                            .dwcfa  0x07, 117
    7527                            .dwcfa  0x07, 118
    7528                            .dwcfa  0x07, 119
    7529                            .dwcfa  0x07, 120
    7530                            .dwcfa  0x07, 121
    7531                            .dwcfa  0x07, 122
    7532                            .dwcfa  0x07, 123
    7533                            .dwcfa  0x07, 124
    7534                            .dwcfa  0x07, 125
    7535                            .dwcfa  0x07, 126
    7536                    
    7537                    ;***************************************************************
    7538                    ;* DWARF REGISTER MAP                                          *
    7539                    ;***************************************************************
    7540                    
    7541                    DW$622  .dwtag  DW_TAG_assign_register, DW_AT_name("A0")
    7542                            .dwattr DW$622, DW_AT_location[DW_OP_reg0]
    7543                    DW$623  .dwtag  DW_TAG_assign_register, DW_AT_name("A1")
    7544                            .dwattr DW$623, DW_AT_location[DW_OP_reg1]
    7545                    DW$624  .dwtag  DW_TAG_assign_register, DW_AT_name("A2")
    7546                            .dwattr DW$624, DW_AT_location[DW_OP_reg2]
    7547                    DW$625  .dwtag  DW_TAG_assign_register, DW_AT_name("A3")
    7548                            .dwattr DW$625, DW_AT_location[DW_OP_reg3]
    7549                    DW$626  .dwtag  DW_TAG_assign_register, DW_AT_name("A4")
    7550                            .dwattr DW$626, DW_AT_location[DW_OP_reg4]
    7551                    DW$627  .dwtag  DW_TAG_assign_register, DW_AT_name("A5")
    7552                            .dwattr DW$627, DW_AT_location[DW_OP_reg5]
    7553                    DW$628  .dwtag  DW_TAG_assign_register, DW_AT_name("A6")
    7554                            .dwattr DW$628, DW_AT_location[DW_OP_reg6]
    7555                    DW$629  .dwtag  DW_TAG_assign_register, DW_AT_name("A7")
    7556                            .dwattr DW$629, DW_AT_location[DW_OP_reg7]
    7557                    DW$630  .dwtag  DW_TAG_assign_register, DW_AT_name("A8")
    7558                            .dwattr DW$630, DW_AT_location[DW_OP_reg8]
    7559                    DW$631  .dwtag  DW_TAG_assign_register, DW_AT_name("A9")
    7560                            .dwattr DW$631, DW_AT_location[DW_OP_reg9]
    7561                    DW$632  .dwtag  DW_TAG_assign_register, DW_AT_name("A10")
    7562                            .dwattr DW$632, DW_AT_location[DW_OP_reg10]
    7563                    DW$633  .dwtag  DW_TAG_assign_register, DW_AT_name("A11")
    7564                            .dwattr DW$633, DW_AT_location[DW_OP_reg11]
    7565                    DW$634  .dwtag  DW_TAG_assign_register, DW_AT_name("A12")
    7566                            .dwattr DW$634, DW_AT_location[DW_OP_reg12]
    7567                    DW$635  .dwtag  DW_TAG_assign_register, DW_AT_name("A13")
    7568                            .dwattr DW$635, DW_AT_location[DW_OP_reg13]
    7569                    DW$636  .dwtag  DW_TAG_assign_register, DW_AT_name("A14")
    7570                            .dwattr DW$636, DW_AT_location[DW_OP_reg14]
    7571                    DW$637  .dwtag  DW_TAG_assign_register, DW_AT_name("A15")
    7572                            .dwattr DW$637, DW_AT_location[DW_OP_reg15]
    7573                    DW$638  .dwtag  DW_TAG_assign_register, DW_AT_name("B0")
    7574                            .dwattr DW$638, DW_AT_location[DW_OP_reg16]
    7575                    DW$639  .dwtag  DW_TAG_assign_register, DW_AT_name("B1")
    7576                            .dwattr DW$639, DW_AT_location[DW_OP_reg17]
    7577                    DW$640  .dwtag  DW_TAG_assign_register, DW_AT_name("B2")
    7578                            .dwattr DW$640, DW_AT_location[DW_OP_reg18]
TMS320C6x COFF Assembler PC v5.1.0 Fri Mar 25 16:51:07 2011

Tools Copyright (c) 1996-2005 Texas Instruments Incorporated
C:\DOCUME~1\yqhe\LOCALS~1\Temp\TI2522                                PAGE  143

    7579                    DW$641  .dwtag  DW_TAG_assign_register, DW_AT_name("B3")
    7580                            .dwattr DW$641, DW_AT_location[DW_OP_reg19]
    7581                    DW$642  .dwtag  DW_TAG_assign_register, DW_AT_name("B4")
    7582                            .dwattr DW$642, DW_AT_location[DW_OP_reg20]
    7583                    DW$643  .dwtag  DW_TAG_assign_register, DW_AT_name("B5")
    7584                            .dwattr DW$643, DW_AT_location[DW_OP_reg21]
    7585                    DW$644  .dwtag  DW_TAG_assign_register, DW_AT_name("B6")
    7586                            .dwattr DW$644, DW_AT_location[DW_OP_reg22]
    7587                    DW$645  .dwtag  DW_TAG_assign_register, DW_AT_name("B7")
    7588                            .dwattr DW$645, DW_AT_location[DW_OP_reg23]
    7589                    DW$646  .dwtag  DW_TAG_assign_register, DW_AT_name("B8")
    7590                            .dwattr DW$646, DW_AT_location[DW_OP_reg24]
    7591                    DW$647  .dwtag  DW_TAG_assign_register, DW_AT_name("B9")
    7592                            .dwattr DW$647, DW_AT_location[DW_OP_reg25]
    7593                    DW$648  .dwtag  DW_TAG_assign_register, DW_AT_name("B10")
    7594                            .dwattr DW$648, DW_AT_location[DW_OP_reg26]
    7595                    DW$649  .dwtag  DW_TAG_assign_register, DW_AT_name("B11")
    7596                            .dwattr DW$649, DW_AT_location[DW_OP_reg27]
    7597                    DW$650  .dwtag  DW_TAG_assign_register, DW_AT_name("B12")
    7598                            .dwattr DW$650, DW_AT_location[DW_OP_reg28]
    7599                    DW$651  .dwtag  DW_TAG_assign_register, DW_AT_name("B13")
    7600                            .dwattr DW$651, DW_AT_location[DW_OP_reg29]
    7601                    DW$652  .dwtag  DW_TAG_assign_register, DW_AT_name("DP")
    7602                            .dwattr DW$652, DW_AT_location[DW_OP_reg30]
    7603                    DW$653  .dwtag  DW_TAG_assign_register, DW_AT_name("SP")
    7604                            .dwattr DW$653, DW_AT_location[DW_OP_reg31]
    7605                    DW$654  .dwtag  DW_TAG_assign_register, DW_AT_name("FP")
    7606                            .dwattr DW$654, DW_AT_location[DW_OP_regx 0x20]
    7607                    DW$655  .dwtag  DW_TAG_assign_register, DW_AT_name("PC")
    7608                            .dwattr DW$655, DW_AT_location[DW_OP_regx 0x21]
    7609                    DW$656  .dwtag  DW_TAG_assign_register, DW_AT_name("IRP")
    7610                            .dwattr DW$656, DW_AT_location[DW_OP_regx 0x22]
    7611                    DW$657  .dwtag  DW_TAG_assign_register, DW_AT_name("IFR")
    7612                            .dwattr DW$657, DW_AT_location[DW_OP_regx 0x23]
    7613                    DW$658  .dwtag  DW_TAG_assign_register, DW_AT_name("NRP")
    7614                            .dwattr DW$658, DW_AT_location[DW_OP_regx 0x24]
    7615                    DW$659  .dwtag  DW_TAG_assign_register, DW_AT_name("A16")
    7616                            .dwattr DW$659, DW_AT_location[DW_OP_regx 0x25]
    7617                    DW$660  .dwtag  DW_TAG_assign_register, DW_AT_name("A17")
    7618                            .dwattr DW$660, DW_AT_location[DW_OP_regx 0x26]
    7619                    DW$661  .dwtag  DW_TAG_assign_register, DW_AT_name("A18")
    7620                            .dwattr DW$661, DW_AT_location[DW_OP_regx 0x27]
    7621                    DW$662  .dwtag  DW_TAG_assign_register, DW_AT_name("A19")
    7622                            .dwattr DW$662, DW_AT_location[DW_OP_regx 0x28]
    7623                    DW$663  .dwtag  DW_TAG_assign_register, DW_AT_name("A20")
    7624                            .dwattr DW$663, DW_AT_location[DW_OP_regx 0x29]
    7625                    DW$664  .dwtag  DW_TAG_assign_register, DW_AT_name("A21")
    7626                            .dwattr DW$664, DW_AT_location[DW_OP_regx 0x2a]
    7627                    DW$665  .dwtag  DW_TAG_assign_register, DW_AT_name("A22")
    7628                            .dwattr DW$665, DW_AT_location[DW_OP_regx 0x2b]
    7629                    DW$666  .dwtag  DW_TAG_assign_register, DW_AT_name("A23")
    7630                            .dwattr DW$666, DW_AT_location[DW_OP_regx 0x2c]
    7631                    DW$667  .dwtag  DW_TAG_assign_register, DW_AT_name("A24")
    7632                            .dwattr DW$667, DW_AT_location[DW_OP_regx 0x2d]
    7633                    DW$668  .dwtag  DW_TAG_assign_register, DW_AT_name("A25")
TMS320C6x COFF Assembler PC v5.1.0 Fri Mar 25 16:51:07 2011

Tools Copyright (c) 1996-2005 Texas Instruments Incorporated
C:\DOCUME~1\yqhe\LOCALS~1\Temp\TI2522                                PAGE  144

    7634                            .dwattr DW$668, DW_AT_location[DW_OP_regx 0x2e]
    7635                    DW$669  .dwtag  DW_TAG_assign_register, DW_AT_name("A26")
    7636                            .dwattr DW$669, DW_AT_location[DW_OP_regx 0x2f]
    7637                    DW$670  .dwtag  DW_TAG_assign_register, DW_AT_name("A27")
    7638                            .dwattr DW$670, DW_AT_location[DW_OP_regx 0x30]
    7639                    DW$671  .dwtag  DW_TAG_assign_register, DW_AT_name("A28")
    7640                            .dwattr DW$671, DW_AT_location[DW_OP_regx 0x31]
    7641                    DW$672  .dwtag  DW_TAG_assign_register, DW_AT_name("A29")
    7642                            .dwattr DW$672, DW_AT_location[DW_OP_regx 0x32]
    7643                    DW$673  .dwtag  DW_TAG_assign_register, DW_AT_name("A30")
    7644                            .dwattr DW$673, DW_AT_location[DW_OP_regx 0x33]
    7645                    DW$674  .dwtag  DW_TAG_assign_register, DW_AT_name("A31")
    7646                            .dwattr DW$674, DW_AT_location[DW_OP_regx 0x34]
    7647                    DW$675  .dwtag  DW_TAG_assign_register, DW_AT_name("B16")
    7648                            .dwattr DW$675, DW_AT_location[DW_OP_regx 0x35]
    7649                    DW$676  .dwtag  DW_TAG_assign_register, DW_AT_name("B17")
    7650                            .dwattr DW$676, DW_AT_location[DW_OP_regx 0x36]
    7651                    DW$677  .dwtag  DW_TAG_assign_register, DW_AT_name("B18")
    7652                            .dwattr DW$677, DW_AT_location[DW_OP_regx 0x37]
    7653                    DW$678  .dwtag  DW_TAG_assign_register, DW_AT_name("B19")
    7654                            .dwattr DW$678, DW_AT_location[DW_OP_regx 0x38]
    7655                    DW$679  .dwtag  DW_TAG_assign_register, DW_AT_name("B20")
    7656                            .dwattr DW$679, DW_AT_location[DW_OP_regx 0x39]
    7657                    DW$680  .dwtag  DW_TAG_assign_register, DW_AT_name("B21")
    7658                            .dwattr DW$680, DW_AT_location[DW_OP_regx 0x3a]
    7659                    DW$681  .dwtag  DW_TAG_assign_register, DW_AT_name("B22")
    7660                            .dwattr DW$681, DW_AT_location[DW_OP_regx 0x3b]
    7661                    DW$682  .dwtag  DW_TAG_assign_register, DW_AT_name("B23")
    7662                            .dwattr DW$682, DW_AT_location[DW_OP_regx 0x3c]
    7663                    DW$683  .dwtag  DW_TAG_assign_register, DW_AT_name("B24")
    7664                            .dwattr DW$683, DW_AT_location[DW_OP_regx 0x3d]
    7665                    DW$684  .dwtag  DW_TAG_assign_register, DW_AT_name("B25")
    7666                            .dwattr DW$684, DW_AT_location[DW_OP_regx 0x3e]
    7667                    DW$685  .dwtag  DW_TAG_assign_register, DW_AT_name("B26")
    7668                            .dwattr DW$685, DW_AT_location[DW_OP_regx 0x3f]
    7669                    DW$686  .dwtag  DW_TAG_assign_register, DW_AT_name("B27")
    7670                            .dwattr DW$686, DW_AT_location[DW_OP_regx 0x40]
    7671                    DW$687  .dwtag  DW_TAG_assign_register, DW_AT_name("B28")
    7672                            .dwattr DW$687, DW_AT_location[DW_OP_regx 0x41]
    7673                    DW$688  .dwtag  DW_TAG_assign_register, DW_AT_name("B29")
    7674                            .dwattr DW$688, DW_AT_location[DW_OP_regx 0x42]
    7675                    DW$689  .dwtag  DW_TAG_assign_register, DW_AT_name("B30")
    7676                            .dwattr DW$689, DW_AT_location[DW_OP_regx 0x43]
    7677                    DW$690  .dwtag  DW_TAG_assign_register, DW_AT_name("B31")
    7678                            .dwattr DW$690, DW_AT_location[DW_OP_regx 0x44]
    7679                    DW$691  .dwtag  DW_TAG_assign_register, DW_AT_name("AMR")
    7680                            .dwattr DW$691, DW_AT_location[DW_OP_regx 0x45]
    7681                    DW$692  .dwtag  DW_TAG_assign_register, DW_AT_name("CSR")
    7682                            .dwattr DW$692, DW_AT_location[DW_OP_regx 0x46]
    7683                    DW$693  .dwtag  DW_TAG_assign_register, DW_AT_name("ISR")
    7684                            .dwattr DW$693, DW_AT_location[DW_OP_regx 0x47]
    7685                    DW$694  .dwtag  DW_TAG_assign_register, DW_AT_name("ICR")
    7686                            .dwattr DW$694, DW_AT_location[DW_OP_regx 0x48]
    7687                    DW$695  .dwtag  DW_TAG_assign_register, DW_AT_name("IER")
    7688                            .dwattr DW$695, DW_AT_location[DW_OP_regx 0x49]
TMS320C6x COFF Assembler PC v5.1.0 Fri Mar 25 16:51:07 2011

Tools Copyright (c) 1996-2005 Texas Instruments Incorporated
C:\DOCUME~1\yqhe\LOCALS~1\Temp\TI2522                                PAGE  145

    7689                    DW$696  .dwtag  DW_TAG_assign_register, DW_AT_name("ISTP")
    7690                            .dwattr DW$696, DW_AT_location[DW_OP_regx 0x4a]
    7691                    DW$697  .dwtag  DW_TAG_assign_register, DW_AT_name("IN")
    7692                            .dwattr DW$697, DW_AT_location[DW_OP_regx 0x4b]
    7693                    DW$698  .dwtag  DW_TAG_assign_register, DW_AT_name("OUT")
    7694                            .dwattr DW$698, DW_AT_location[DW_OP_regx 0x4c]
    7695                    DW$699  .dwtag  DW_TAG_assign_register, DW_AT_name("ACR")
    7696                            .dwattr DW$699, DW_AT_location[DW_OP_regx 0x4d]
    7697                    DW$700  .dwtag  DW_TAG_assign_register, DW_AT_name("ADR")
    7698                            .dwattr DW$700, DW_AT_location[DW_OP_regx 0x4e]
    7699                    DW$701  .dwtag  DW_TAG_assign_register, DW_AT_name("FADCR")
    7700                            .dwattr DW$701, DW_AT_location[DW_OP_regx 0x4f]
    7701                    DW$702  .dwtag  DW_TAG_assign_register, DW_AT_name("FAUCR")
    7702                            .dwattr DW$702, DW_AT_location[DW_OP_regx 0x50]
    7703                    DW$703  .dwtag  DW_TAG_assign_register, DW_AT_name("FMCR")
    7704                            .dwattr DW$703, DW_AT_location[DW_OP_regx 0x51]
    7705                    DW$704  .dwtag  DW_TAG_assign_register, DW_AT_name("GFPGFR")
    7706                            .dwattr DW$704, DW_AT_location[DW_OP_regx 0x52]
    7707                    DW$705  .dwtag  DW_TAG_assign_register, DW_AT_name("DIER")
    7708                            .dwattr DW$705, DW_AT_location[DW_OP_regx 0x53]
    7709                    DW$706  .dwtag  DW_TAG_assign_register, DW_AT_name("REP")
    7710                            .dwattr DW$706, DW_AT_location[DW_OP_regx 0x54]
    7711                    DW$707  .dwtag  DW_TAG_assign_register, DW_AT_name("TSCL")
    7712                            .dwattr DW$707, DW_AT_location[DW_OP_regx 0x55]
    7713                    DW$708  .dwtag  DW_TAG_assign_register, DW_AT_name("TSCH")
    7714                            .dwattr DW$708, DW_AT_location[DW_OP_regx 0x56]
    7715                    DW$709  .dwtag  DW_TAG_assign_register, DW_AT_name("ARP")
    7716                            .dwattr DW$709, DW_AT_location[DW_OP_regx 0x57]
    7717                    DW$710  .dwtag  DW_TAG_assign_register, DW_AT_name("ILC")
    7718                            .dwattr DW$710, DW_AT_location[DW_OP_regx 0x58]
    7719                    DW$711  .dwtag  DW_TAG_assign_register, DW_AT_name("RILC")
    7720                            .dwattr DW$711, DW_AT_location[DW_OP_regx 0x59]
    7721                    DW$712  .dwtag  DW_TAG_assign_register, DW_AT_name("DNUM")
    7722                            .dwattr DW$712, DW_AT_location[DW_OP_regx 0x5a]
    7723                    DW$713  .dwtag  DW_TAG_assign_register, DW_AT_name("SSR")
    7724                            .dwattr DW$713, DW_AT_location[DW_OP_regx 0x5b]
    7725                    DW$714  .dwtag  DW_TAG_assign_register, DW_AT_name("GPLYA")
    7726                            .dwattr DW$714, DW_AT_location[DW_OP_regx 0x5c]
    7727                    DW$715  .dwtag  DW_TAG_assign_register, DW_AT_name("GPLYB")
    7728                            .dwattr DW$715, DW_AT_location[DW_OP_regx 0x5d]
    7729                    DW$716  .dwtag  DW_TAG_assign_register, DW_AT_name("TSR")
    7730                            .dwattr DW$716, DW_AT_location[DW_OP_regx 0x5e]
    7731                    DW$717  .dwtag  DW_TAG_assign_register, DW_AT_name("ITSR")
    7732                            .dwattr DW$717, DW_AT_location[DW_OP_regx 0x5f]
    7733                    DW$718  .dwtag  DW_TAG_assign_register, DW_AT_name("NTSR")
    7734                            .dwattr DW$718, DW_AT_location[DW_OP_regx 0x60]
    7735                    DW$719  .dwtag  DW_TAG_assign_register, DW_AT_name("EFR")
    7736                            .dwattr DW$719, DW_AT_location[DW_OP_regx 0x61]
    7737                    DW$720  .dwtag  DW_TAG_assign_register, DW_AT_name("ECR")
    7738                            .dwattr DW$720, DW_AT_location[DW_OP_regx 0x62]
    7739                    DW$721  .dwtag  DW_TAG_assign_register, DW_AT_name("IERR")
    7740                            .dwattr DW$721, DW_AT_location[DW_OP_regx 0x63]
    7741                    DW$722  .dwtag  DW_TAG_assign_register, DW_AT_name("DMSG")
    7742                            .dwattr DW$722, DW_AT_location[DW_OP_regx 0x64]
    7743                    DW$723  .dwtag  DW_TAG_assign_register, DW_AT_name("CMSG")
TMS320C6x COFF Assembler PC v5.1.0 Fri Mar 25 16:51:07 2011

Tools Copyright (c) 1996-2005 Texas Instruments Incorporated
C:\DOCUME~1\yqhe\LOCALS~1\Temp\TI2522                                PAGE  146

    7744                            .dwattr DW$723, DW_AT_location[DW_OP_regx 0x65]
    7745                    DW$724  .dwtag  DW_TAG_assign_register, DW_AT_name("DT_DMA_ADDR")
    7746                            .dwattr DW$724, DW_AT_location[DW_OP_regx 0x66]
    7747                    DW$725  .dwtag  DW_TAG_assign_register, DW_AT_name("DT_DMA_DATA")
    7748                            .dwattr DW$725, DW_AT_location[DW_OP_regx 0x67]
    7749                    DW$726  .dwtag  DW_TAG_assign_register, DW_AT_name("DT_DMA_CNTL")
    7750                            .dwattr DW$726, DW_AT_location[DW_OP_regx 0x68]
    7751                    DW$727  .dwtag  DW_TAG_assign_register, DW_AT_name("TCU_CNTL")
    7752                            .dwattr DW$727, DW_AT_location[DW_OP_regx 0x69]
    7753                    DW$728  .dwtag  DW_TAG_assign_register, DW_AT_name("RTDX_REC_CNTL")
    7754                            .dwattr DW$728, DW_AT_location[DW_OP_regx 0x6a]
    7755                    DW$729  .dwtag  DW_TAG_assign_register, DW_AT_name("RTDX_XMT_CNTL")
    7756                            .dwattr DW$729, DW_AT_location[DW_OP_regx 0x6b]
    7757                    DW$730  .dwtag  DW_TAG_assign_register, DW_AT_name("RTDX_CFG")
    7758                            .dwattr DW$730, DW_AT_location[DW_OP_regx 0x6c]
    7759                    DW$731  .dwtag  DW_TAG_assign_register, DW_AT_name("RTDX_RDATA")
    7760                            .dwattr DW$731, DW_AT_location[DW_OP_regx 0x6d]
    7761                    DW$732  .dwtag  DW_TAG_assign_register, DW_AT_name("RTDX_WDATA")
    7762                            .dwattr DW$732, DW_AT_location[DW_OP_regx 0x6e]
    7763                    DW$733  .dwtag  DW_TAG_assign_register, DW_AT_name("RTDX_RADDR")
    7764                            .dwattr DW$733, DW_AT_location[DW_OP_regx 0x6f]
    7765                    DW$734  .dwtag  DW_TAG_assign_register, DW_AT_name("RTDX_WADDR")
    7766                            .dwattr DW$734, DW_AT_location[DW_OP_regx 0x70]
    7767                    DW$735  .dwtag  DW_TAG_assign_register, DW_AT_name("MFREG0")
    7768                            .dwattr DW$735, DW_AT_location[DW_OP_regx 0x71]
    7769                    DW$736  .dwtag  DW_TAG_assign_register, DW_AT_name("DBG_STAT")
    7770                            .dwattr DW$736, DW_AT_location[DW_OP_regx 0x72]
    7771                    DW$737  .dwtag  DW_TAG_assign_register, DW_AT_name("BRK_EN")
    7772                            .dwattr DW$737, DW_AT_location[DW_OP_regx 0x73]
    7773                    DW$738  .dwtag  DW_TAG_assign_register, DW_AT_name("HWBP0_CNT")
    7774                            .dwattr DW$738, DW_AT_location[DW_OP_regx 0x74]
    7775                    DW$739  .dwtag  DW_TAG_assign_register, DW_AT_name("HWBP0")
    7776                            .dwattr DW$739, DW_AT_location[DW_OP_regx 0x75]
    7777                    DW$740  .dwtag  DW_TAG_assign_register, DW_AT_name("HWBP1")
    7778                            .dwattr DW$740, DW_AT_location[DW_OP_regx 0x76]
    7779                    DW$741  .dwtag  DW_TAG_assign_register, DW_AT_name("HWBP2")
    7780                            .dwattr DW$741, DW_AT_location[DW_OP_regx 0x77]
    7781                    DW$742  .dwtag  DW_TAG_assign_register, DW_AT_name("HWBP3")
    7782                            .dwattr DW$742, DW_AT_location[DW_OP_regx 0x78]
    7783                    DW$743  .dwtag  DW_TAG_assign_register, DW_AT_name("OVERLAY")
    7784                            .dwattr DW$743, DW_AT_location[DW_OP_regx 0x79]
    7785                    DW$744  .dwtag  DW_TAG_assign_register, DW_AT_name("PC_PROF")
    7786                            .dwattr DW$744, DW_AT_location[DW_OP_regx 0x7a]
    7787                    DW$745  .dwtag  DW_TAG_assign_register, DW_AT_name("ATSR")
    7788                            .dwattr DW$745, DW_AT_location[DW_OP_regx 0x7b]
    7789                    DW$746  .dwtag  DW_TAG_assign_register, DW_AT_name("TRR")
    7790                            .dwattr DW$746, DW_AT_location[DW_OP_regx 0x7c]
    7791                    DW$747  .dwtag  DW_TAG_assign_register, DW_AT_name("TCRR")
    7792                            .dwattr DW$747, DW_AT_location[DW_OP_regx 0x7d]
    7793                    DW$748  .dwtag  DW_TAG_assign_register, DW_AT_name("CIE_RETA")
    7794                            .dwattr DW$748, DW_AT_location[DW_OP_regx 0x7e]
    7795                            .dwendtag DW$CU
    7796                    

No Assembly Errors, No Assembly Warnings
